Archive member included because of file (symbol)

bin/blib.a(intel.o)           (obj_intel)
bin/blib.a(nvs.o)             bin/blib.a(intel.o) (nvs_read)
bin/blib.a(config.o)          (obj_config)
bin/blib.a(bios_console.o)    bin/blib.a(config.o) (obj_bios_console)
bin/blib.a(bzimage.o)         bin/blib.a(config.o) (obj_bzimage)
bin/blib.a(elfboot.o)         bin/blib.a(config.o) (obj_elfboot)
bin/blib.a(initrd.o)          bin/blib.a(bzimage.o) (initrd_reshuffle)
bin/blib.a(multiboot.o)       bin/blib.a(config.o) (obj_multiboot)
bin/blib.a(pxe_image.o)       bin/blib.a(config.o) (obj_pxe_image)
bin/blib.a(pxe_call.o)        bin/blib.a(pxe_image.o) (pxe_activate)
bin/blib.a(pxe_file.o)        bin/blib.a(pxe_call.o) (obj_pxe_file)
bin/blib.a(pxe_loader.o)      bin/blib.a(pxe_call.o) (undi_loader)
bin/blib.a(pxe_preboot.o)     bin/blib.a(pxe_call.o) (obj_pxe_preboot)
bin/blib.a(pxe_tftp.o)        bin/blib.a(pxe_preboot.o) (pxenv_tftp_read_file)
bin/blib.a(pxe_udp.o)         bin/blib.a(pxe_call.o) (obj_pxe_udp)
bin/blib.a(pxe_undi.o)        bin/blib.a(pxe_preboot.o) (pxe_netdev)
bin/blib.a(x86_string.o)      bin/blib.a(bzimage.o) (__memcpy)
bin/blib.a(cpuid_cmd.o)       bin/blib.a(config.o) (obj_cpuid_cmd)
bin/blib.a(setjmp.o)          bin/blib.a(pxe_call.o) (setjmp)
bin/blib.a(virtaddr.o)        bin/blib.a(elfboot.o) (_virt_to_phys)
bin/blib.a(librm.o)           bin/blib.a(pxe_call.o) (rm_cs)
bin/blib.a(libprefix.o)       bin/blib.a(pxe_preboot.o) (hooked_bios_interrupts)
bin/blib.a(mromprefix.o)      (_mrom_start)
bin/blib.a(unnrv2b16.o)       bin/blib.a(libprefix.o) (decompress16)
bin/blib.a(pxe_entry.o)       bin/blib.a(pxe_call.o) (ppxe)
bin/blib.a(ansiesc.o)         bin/blib.a(bios_console.o) (ansiesc_process)
bin/blib.a(console.o)         bin/blib.a(pxe_image.o) (console_configure)
bin/blib.a(cpio.o)            bin/blib.a(bzimage.o) (cpio_set_field)
bin/blib.a(device.o)          bin/blib.a(pxe_call.o) (device_keep_count)
bin/blib.a(exec.o)            bin/blib.a(pxe_file.o) (system)
bin/blib.a(getopt.o)          bin/blib.a(cpuid_cmd.o) (optind)
bin/blib.a(image.o)           bin/blib.a(bzimage.o) (unregister_image)
bin/blib.a(init.o)            bin/blib.a(pxe_loader.o) (initialise)
bin/blib.a(interface.o)       bin/blib.a(pxe_tftp.o) (null_intf)
bin/blib.a(iobuf.o)           bin/blib.a(intel.o) (alloc_iob)
bin/blib.a(list.o)            bin/blib.a(device.o) (extern_list_add)
bin/blib.a(main.o)            bin/blib.a(mromprefix.o) (main)
bin/blib.a(malloc.o)          bin/blib.a(intel.o) (alloc_memblock)
bin/blib.a(memblock.o)        bin/blib.a(initrd.o) (largest_memblock)
bin/blib.a(misc.o)            bin/blib.a(bzimage.o) (strtoul)
bin/blib.a(open.o)            bin/blib.a(pxe_tftp.o) (xfer_open_uri_string)
bin/blib.a(parseopt.o)        bin/blib.a(cpuid_cmd.o) (parse_integer)
bin/blib.a(posix_io.o)        bin/blib.a(pxe_file.o) (open)
bin/blib.a(process.o)         bin/blib.a(pxe_tftp.o) (step)
bin/blib.a(refcnt.o)          bin/blib.a(bzimage.o) (ref_increment)
bin/blib.a(settings.o)        bin/blib.a(parseopt.o) (find_settings)
bin/blib.a(string.o)          bin/blib.a(settings.o) (strncpy)
bin/blib.a(timer.o)           bin/blib.a(intel.o) (mdelay)
bin/blib.a(uri.o)             bin/blib.a(open.o) (parse_uri)
bin/blib.a(uuid.o)            bin/blib.a(settings.o) (uuid_ntoa)
bin/blib.a(vsprintf.o)        bin/blib.a(multiboot.o) (snprintf)
bin/blib.a(xfer.o)            bin/blib.a(pxe_tftp.o) (xfer_deliver)
bin/blib.a(arp.o)             bin/blib.a(pxe_undi.o) (arp_protocol)
bin/blib.a(ethernet.o)        bin/blib.a(intel.o) (alloc_etherdev)
bin/blib.a(eth_slow.o)        bin/blib.a(ethernet.o) (obj_eth_slow)
bin/blib.a(fakedhcp.o)        bin/blib.a(pxe_preboot.o) (create_fakedhcpdiscover)
bin/blib.a(ipv4.o)            bin/blib.a(pxe_undi.o) (ipv4_protocol)
bin/blib.a(neighbour.o)       bin/blib.a(ipv4.o) (neighbour_tx)
bin/blib.a(netdevice.o)       bin/blib.a(ipv4.o) (net_devices)
bin/blib.a(netdev_settings.o)
                              bin/blib.a(netdevice.o) (netdev_settings_operations)
bin/blib.a(nullnet.o)         bin/blib.a(intel.o) (null_netdev_operations)
bin/blib.a(rarp.o)            bin/blib.a(pxe_undi.o) (rarp_protocol)
bin/blib.a(retry.o)           bin/blib.a(neighbour.o) (start_timer)
bin/blib.a(tcpip.o)           bin/blib.a(ipv4.o) (tcpip_rx)
bin/blib.a(udp.o)             bin/blib.a(pxe_udp.o) (udp_open_promisc)
bin/blib.a(http.o)            bin/blib.a(config.o) (obj_http)
bin/blib.a(httpcore.o)        bin/blib.a(http.o) (http_open_filter)
bin/blib.a(iscsi.o)           bin/blib.a(config.o) (obj_iscsi)
bin/blib.a(dhcp.o)            bin/blib.a(fakedhcp.o) (dhcp_last_xid)
bin/blib.a(dns.o)             bin/blib.a(config.o) (obj_dns)
bin/blib.a(tftp.o)            bin/blib.a(config.o) (obj_tftp)
bin/blib.a(elf.o)             bin/blib.a(elfboot.o) (elf_load)
bin/blib.a(embedded.o)        bin/blib.a(config.o) (obj_embedded)
bin/blib.a(script.o)          bin/blib.a(config.o) (obj_script)
bin/blib.a(segment.o)         bin/blib.a(bzimage.o) (prep_segment)
bin/blib.a(pci.o)             bin/blib.a(intel.o) (adjust_pci_device)
bin/blib.a(pci_settings.o)    bin/blib.a(config.o) (obj_pci_settings)
bin/blib.a(ibft.o)            bin/blib.a(iscsi.o) (ibft_describe)
bin/blib.a(scsi.o)            bin/blib.a(iscsi.o) (scsi_response)
bin/blib.a(smbios_settings.o)
                              bin/blib.a(iscsi.o) (uuid_setting)
bin/blib.a(chap.o)            bin/blib.a(iscsi.o) (chap_init)
bin/blib.a(md5.o)             bin/blib.a(httpcore.o) (md5_algorithm)
bin/blib.a(strerror.o)        bin/blib.a(script.o) (strerror)
bin/blib.a(autoboot_cmd.o)    bin/blib.a(config.o) (obj_autoboot_cmd)
bin/blib.a(config_cmd.o)      bin/blib.a(config.o) (obj_config_cmd)
bin/blib.a(dhcp_cmd.o)        bin/blib.a(config.o) (obj_dhcp_cmd)
bin/blib.a(ifmgmt_cmd.o)      bin/blib.a(autoboot_cmd.o) (ifcommon_exec)
bin/blib.a(image_cmd.o)       bin/blib.a(config.o) (obj_image_cmd)
bin/blib.a(login_cmd.o)       bin/blib.a(config.o) (obj_login_cmd)
bin/blib.a(menu_cmd.o)        bin/blib.a(config.o) (obj_menu_cmd)
bin/blib.a(nvo_cmd.o)         bin/blib.a(config.o) (obj_nvo_cmd)
bin/blib.a(reboot_cmd.o)      bin/blib.a(config.o) (obj_reboot_cmd)
bin/blib.a(route_cmd.o)       bin/blib.a(config.o) (obj_route_cmd)
bin/blib.a(sanboot_cmd.o)     bin/blib.a(config.o) (obj_sanboot_cmd)
bin/blib.a(sync_cmd.o)        bin/blib.a(config.o) (obj_sync_cmd)
bin/blib.a(login_ui.o)        bin/blib.a(login_cmd.o) (login_ui)
bin/blib.a(menu_ui.o)         bin/blib.a(menu_cmd.o) (show_menu)
bin/blib.a(settings_ui.o)     bin/blib.a(config_cmd.o) (settings_ui)
bin/blib.a(clear.o)           bin/blib.a(menu_ui.o) (wclrtoeol)
bin/blib.a(mucurses.o)        bin/blib.a(clear.o) (_wputc)
bin/blib.a(print.o)           bin/blib.a(menu_ui.o) (waddnstr)
bin/blib.a(winattrs.o)        bin/blib.a(login_ui.o) (wattroff)
bin/blib.a(wininit.o)         bin/blib.a(login_ui.o) (initscr)
bin/blib.a(editbox.o)         bin/blib.a(login_ui.o) (init_editbox)
bin/blib.a(keymap_us.o)       bin/blib.a(config.o) (obj_keymap_us)
bin/blib.a(autoboot.o)        bin/blib.a(sanboot_cmd.o) (uriboot)
bin/blib.a(dhcpmgmt.o)        bin/blib.a(dhcp_cmd.o) (pxebs)
bin/blib.a(ifmgmt.o)          bin/blib.a(ifmgmt_cmd.o) (ifopen)
bin/blib.a(imgmgmt.o)         bin/blib.a(autoboot.o) (imgdownload)
bin/blib.a(prompt.o)          bin/blib.a(script.o) (prompt)
bin/blib.a(pxemenu.o)         bin/blib.a(config.o) (obj_pxemenu)
bin/blib.a(route.o)           bin/blib.a(route_cmd.o) (route)
bin/blib.a(sync.o)            bin/blib.a(sync_cmd.o) (sync)
bin/blib.a(config_ethernet.o)
                              bin/blib.a(ethernet.o) (obj_config_ethernet)
bin/blib.a(config_route.o)    bin/blib.a(route.o) (obj_config_route)
bin/blib.a(basemem_packet.o)  bin/blib.a(pxe_undi.o) (basemem_packet)
bin/blib.a(pci_autoboot.o)    bin/blib.a(mromprefix.o) (autoboot_busdevfn)
bin/blib.a(relocate.o)        bin/blib.a(libprefix.o) (relocate)
bin/blib.a(timer2.o)          bin/blib.a(timer.o) (timer2_udelay)
bin/blib.a(librm_mgmt.o)      bin/blib.a(librm.o) (init_idt)
bin/blib.a(memmap.o)          bin/blib.a(libprefix.o) (memmap_post)
bin/blib.a(biosint.o)         bin/blib.a(pxe_call.o) (hook_bios_interrupt)
bin/blib.a(bios_nap.o)        bin/blib.a(console.o) (cpu_nap)
bin/blib.a(bios_reboot.o)     bin/blib.a(reboot_cmd.o) (reboot)
bin/blib.a(bios_timer.o)      bin/blib.a(exec.o) (currticks)
bin/blib.a(int13.o)           bin/blib.a(autoboot.o) (san_hook)
bin/blib.a(memtop_umalloc.o)  bin/blib.a(image.o) (urealloc)
bin/blib.a(pcibios.o)         bin/blib.a(pci.o) (pcibios_read)
bin/blib.a(cpuid.o)           bin/blib.a(cpuid_cmd.o) (x86_features)
bin/blib.a(x86_tcpip.o)       bin/blib.a(ipv4.o) (x86_tcpip_continue_chksum)
bin/blib.a(stack16.o)         bin/blib.a(mromprefix.o) (_estack16)
bin/blib.a(stack.o)           bin/blib.a(librm.o) (_estack)
bin/blib.a(liba20.o)          bin/blib.a(librm.o) (enable_a20)
bin/blib.a(acpi.o)            bin/blib.a(httpcore.o) (acpi_describe)
bin/blib.a(asprintf.o)        bin/blib.a(xfer.o) (vasprintf)
bin/blib.a(base16.o)          bin/blib.a(httpcore.o) (base16_encode)
bin/blib.a(base64.o)          bin/blib.a(httpcore.o) (base64_encode)
bin/blib.a(basename.o)        bin/blib.a(image.o) (basename)
bin/blib.a(bitmap.o)          bin/blib.a(tftp.o) (bitmap_resize)
bin/blib.a(blockdev.o)        bin/blib.a(httpcore.o) (block_capacity)
bin/blib.a(ctype.o)           bin/blib.a(exec.o) (isspace)
bin/blib.a(cwuri.o)           bin/blib.a(image.o) (churi)
bin/blib.a(downloader.o)      bin/blib.a(imgmgmt.o) (create_downloader)
bin/blib.a(edd.o)             bin/blib.a(int13.o) (edd_describe)
bin/blib.a(errno.o)           bin/blib.a(exec.o) (errno)
bin/blib.a(getkey.o)          bin/blib.a(login_ui.o) (getkey)
bin/blib.a(job.o)             bin/blib.a(ifmgmt.o) (job_progress)
bin/blib.a(linebuf.o)         bin/blib.a(httpcore.o) (buffered_line)
bin/blib.a(menu.o)            bin/blib.a(menu_cmd.o) (add_menu_item)
bin/blib.a(monojob.o)         bin/blib.a(dhcpmgmt.o) (monojob_wait)
bin/blib.a(params.o)          bin/blib.a(parseopt.o) (find_parameters)
bin/blib.a(pending.o)         bin/blib.a(sync.o) (pending_total)
bin/blib.a(random.o)          bin/blib.a(netdevice.o) (srandom)
bin/blib.a(resolv.o)          bin/blib.a(dns.o) (resolv_done)
bin/blib.a(aoe.o)             bin/blib.a(config_ethernet.o) (obj_aoe)
bin/blib.a(dhcppkt.o)         bin/blib.a(fakedhcp.o) (dhcppkt_store)
bin/blib.a(fragment.o)        bin/blib.a(ipv4.o) (fragment_reassemble)
bin/blib.a(icmpv4.o)          bin/blib.a(ipv4.o) (obj_icmpv4)
bin/blib.a(socket.o)          bin/blib.a(resolv.o) (sock_aton)
bin/blib.a(tcp.o)             bin/blib.a(httpcore.o) (tcp_sock_stream)
bin/blib.a(ata.o)             bin/blib.a(aoe.o) (ata_command)
bin/blib.a(smbios.o)          bin/blib.a(smbios_settings.o) (find_smbios_structure)
bin/blib.a(editstring.o)      bin/blib.a(login_ui.o) (edit_string)
bin/blib.a(readline.o)        bin/blib.a(nvo_cmd.o) (readline_history)
bin/blib.a(shell.o)           bin/blib.a(autoboot.o) (shell)
bin/blib.a(ansi_screen.o)     bin/blib.a(mucurses.o) (_ansi_screen)
bin/blib.a(route_ipv4.o)      bin/blib.a(config_route.o) (obj_route_ipv4)
bin/blib.a(hidemem.o)         bin/blib.a(memtop_umalloc.o) (hide_umalloc)
bin/blib.a(bootsector.o)      bin/blib.a(int13.o) (call_bootsector)
bin/blib.a(bios_smbios.o)     bin/blib.a(smbios.o) (find_smbios)
bin/blib.a(e820mangler.o)     bin/blib.a(hidemem.o) (hidemem_base)
bin/blib.a(ansicol.o)         bin/blib.a(ansi_screen.o) (ansicol_set_pair)
bin/blib.a(dhcpopts.o)        bin/blib.a(dhcppkt.o) (dhcpopt_no_realloc)
bin/blib.a(icmp.o)            bin/blib.a(icmpv4.o) (icmp_rx_echo_request)
bin/blib.a(patch_cf.o)        bin/blib.a(e820mangler.o) (patch_cf)

Allocating common symbols
Common symbol       size              file

pxe_cmdline         0x4               bin/blib.a(pxe_image.o)
initrd_top          0x4               bin/blib.a(initrd.o)
errno               0x4               bin/blib.a(errno.o)
isapnp_read_port    0x2               bin/blib.a(pxe_preboot.o)
pxe_restart_nbp     0x1c              bin/blib.a(pxe_call.o)
initrd_bottom       0x4               bin/blib.a(initrd.o)
optarg              0x4               bin/blib.a(getopt.o)
dhcp_last_xid       0x4               bin/blib.a(dhcp.o)
freemem             0x4               bin/blib.a(malloc.o)
optind              0x4               bin/blib.a(getopt.o)
nextchar            0x4               bin/blib.a(getopt.o)
builtin_scope       0x1               bin/blib.a(settings.o)
autoboot_device     0x1c              bin/blib.a(autoboot.o)
pending_total       0x4               bin/blib.a(pending.o)
idt                 0x800             bin/blib.a(librm_mgmt.o)
ipv6_scope          0x1               bin/blib.a(settings.o)
optopt              0x4               bin/blib.a(getopt.o)
current_image       0x4               bin/blib.a(image.o)

Discarded input sections

 .text          0x0000000000000000        0x0 bin/version.8086100f.mrom.o
 .data          0x0000000000000000        0x0 bin/version.8086100f.mrom.o
 .bss           0x0000000000000000        0x0 bin/version.8086100f.mrom.o
 .prefix.name   0x0000000000000000        0xe bin/version.8086100f.mrom.o
 .rodata.build_wname
                0x0000000000000000       0x1c bin/version.8086100f.mrom.o
 .rodata.product_short_wname
                0x0000000000000000        0xa bin/version.8086100f.mrom.o
 .rodata.product_wname
                0x0000000000000000       0x2a bin/version.8086100f.mrom.o
 .rodata.product_wversion
                0x0000000000000000       0x1c bin/version.8086100f.mrom.o
 .rodata.build_name
                0x0000000000000000        0xe bin/version.8086100f.mrom.o
 .rodata.product_name
                0x0000000000000000       0x15 bin/version.8086100f.mrom.o
 .rodata.product_minor_version
                0x0000000000000000        0x4 bin/version.8086100f.mrom.o
 .rodata.product_major_version
                0x0000000000000000        0x4 bin/version.8086100f.mrom.o
 .data.build_id
                0x0000000000000000        0x4 bin/version.8086100f.mrom.o
 .data.build_timestamp
                0x0000000000000000        0x4 bin/version.8086100f.mrom.o
 .comment       0x0000000000000000       0x2b bin/version.8086100f.mrom.o
 .note.GNU-stack
                0x0000000000000000        0x0 bin/version.8086100f.mrom.o
 .text          0x0000000000000000        0x0 bin/blib.a(intel.o)
 .data          0x0000000000000000        0x0 bin/blib.a(intel.o)
 .bss           0x0000000000000000        0x0 bin/blib.a(intel.o)
 .einfo         0x0000000000000000      0x258 bin/blib.a(intel.o)
 .comment       0x0000000000000000       0x2b bin/blib.a(intel.o)
 .note.GNU-stack
                0x0000000000000000        0x0 bin/blib.a(intel.o)
 .text          0x0000000000000000        0x0 bin/blib.a(nvs.o)
 .data          0x0000000000000000        0x0 bin/blib.a(nvs.o)
 .bss           0x0000000000000000        0x0 bin/blib.a(nvs.o)
 .text.nvs_verify
                0x0000000000000000       0x4b bin/blib.a(nvs.o)
 .einfo         0x0000000000000000       0x40 bin/blib.a(nvs.o)
 .text.nvs_write
                0x0000000000000000       0x6b bin/blib.a(nvs.o)
 .comment       0x0000000000000000       0x2b bin/blib.a(nvs.o)
 .note.GNU-stack
                0x0000000000000000        0x0 bin/blib.a(nvs.o)
 .text          0x0000000000000000        0x0 bin/blib.a(config.o)
 .data          0x0000000000000000        0x0 bin/blib.a(config.o)
 .bss           0x0000000000000000        0x0 bin/blib.a(config.o)
 .discard       0x0000000000000000       0x78 bin/blib.a(config.o)
 .comment       0x0000000000000000       0x2b bin/blib.a(config.o)
 .note.GNU-stack
                0x0000000000000000        0x0 bin/blib.a(config.o)
 .text          0x0000000000000000        0x0 bin/blib.a(bios_console.o)
 .data          0x0000000000000000        0x0 bin/blib.a(bios_console.o)
 .bss           0x0000000000000000        0x0 bin/blib.a(bios_console.o)
 .comment       0x0000000000000000       0x2b bin/blib.a(bios_console.o)
 .note.GNU-stack
                0x0000000000000000        0x0 bin/blib.a(bios_console.o)
 .text          0x0000000000000000        0x0 bin/blib.a(bzimage.o)
 .data          0x0000000000000000        0x0 bin/blib.a(bzimage.o)
 .bss           0x0000000000000000        0x0 bin/blib.a(bzimage.o)
 .einfo         0x0000000000000000      0x190 bin/blib.a(bzimage.o)
 .comment       0x0000000000000000       0x2b bin/blib.a(bzimage.o)
 .note.GNU-stack
                0x0000000000000000        0x0 bin/blib.a(bzimage.o)
 .text          0x0000000000000000        0x0 bin/blib.a(elfboot.o)
 .data          0x0000000000000000        0x0 bin/blib.a(elfboot.o)
 .bss           0x0000000000000000        0x0 bin/blib.a(elfboot.o)
 .einfo         0x0000000000000000       0x40 bin/blib.a(elfboot.o)
 .comment       0x0000000000000000       0x2b bin/blib.a(elfboot.o)
 .note.GNU-stack
                0x0000000000000000        0x0 bin/blib.a(elfboot.o)
 .text          0x0000000000000000        0x0 bin/blib.a(initrd.o)
 .data          0x0000000000000000        0x0 bin/blib.a(initrd.o)
 .bss           0x0000000000000000        0x0 bin/blib.a(initrd.o)
 .einfo         0x0000000000000000       0x48 bin/blib.a(initrd.o)
 .comment       0x0000000000000000       0x2b bin/blib.a(initrd.o)
 .note.GNU-stack
                0x0000000000000000        0x0 bin/blib.a(initrd.o)
 .text          0x0000000000000000        0x0 bin/blib.a(multiboot.o)
 .data          0x0000000000000000        0x0 bin/blib.a(multiboot.o)
 .bss           0x0000000000000000        0x0 bin/blib.a(multiboot.o)
 .einfo         0x0000000000000000       0xd8 bin/blib.a(multiboot.o)
 .comment       0x0000000000000000       0x2b bin/blib.a(multiboot.o)
 .note.GNU-stack
                0x0000000000000000        0x0 bin/blib.a(multiboot.o)
 .text          0x0000000000000000        0x0 bin/blib.a(pxe_image.o)
 .data          0x0000000000000000        0x0 bin/blib.a(pxe_image.o)
 .bss           0x0000000000000000        0x0 bin/blib.a(pxe_image.o)
 .einfo         0x0000000000000000       0xd0 bin/blib.a(pxe_image.o)
 .comment       0x0000000000000000       0x2b bin/blib.a(pxe_image.o)
 .note.GNU-stack
                0x0000000000000000        0x0 bin/blib.a(pxe_image.o)
 .text          0x0000000000000000        0x0 bin/blib.a(pxe_call.o)
 .data          0x0000000000000000        0x0 bin/blib.a(pxe_call.o)
 .bss           0x0000000000000000        0x0 bin/blib.a(pxe_call.o)
 .text.pxe_api_call_weak
                0x0000000000000000        0xa bin/blib.a(pxe_call.o)
 .text.pxe_loader_call
                0x0000000000000000       0x5d bin/blib.a(pxe_call.o)
 .einfo         0x0000000000000000       0x50 bin/blib.a(pxe_call.o)
 .discard       0x0000000000000000       0x14 bin/blib.a(pxe_call.o)
 .comment       0x0000000000000000       0x2b bin/blib.a(pxe_call.o)
 .note.GNU-stack
                0x0000000000000000        0x0 bin/blib.a(pxe_call.o)
 .text          0x0000000000000000        0x0 bin/blib.a(pxe_file.o)
 .data          0x0000000000000000        0x0 bin/blib.a(pxe_file.o)
 .bss           0x0000000000000000        0x0 bin/blib.a(pxe_file.o)
 .comment       0x0000000000000000       0x2b bin/blib.a(pxe_file.o)
 .note.GNU-stack
                0x0000000000000000        0x0 bin/blib.a(pxe_file.o)
 .text          0x0000000000000000        0x0 bin/blib.a(pxe_loader.o)
 .data          0x0000000000000000        0x0 bin/blib.a(pxe_loader.o)
 .bss           0x0000000000000000        0x0 bin/blib.a(pxe_loader.o)
 .text.undi_loader
                0x0000000000000000       0x3e bin/blib.a(pxe_loader.o)
 .comment       0x0000000000000000       0x2b bin/blib.a(pxe_loader.o)
 .note.GNU-stack
                0x0000000000000000        0x0 bin/blib.a(pxe_loader.o)
 .text          0x0000000000000000        0x0 bin/blib.a(pxe_preboot.o)
 .data          0x0000000000000000        0x0 bin/blib.a(pxe_preboot.o)
 .bss           0x0000000000000000        0x0 bin/blib.a(pxe_preboot.o)
 .comment       0x0000000000000000       0x2b bin/blib.a(pxe_preboot.o)
 .note.GNU-stack
                0x0000000000000000        0x0 bin/blib.a(pxe_preboot.o)
 .text          0x0000000000000000        0x0 bin/blib.a(pxe_tftp.o)
 .data          0x0000000000000000        0x0 bin/blib.a(pxe_tftp.o)
 .bss           0x0000000000000000        0x0 bin/blib.a(pxe_tftp.o)
 .einfo         0x0000000000000000      0x330 bin/blib.a(pxe_tftp.o)
 .comment       0x0000000000000000       0x2b bin/blib.a(pxe_tftp.o)
 .note.GNU-stack
                0x0000000000000000        0x0 bin/blib.a(pxe_tftp.o)
 .text          0x0000000000000000        0x0 bin/blib.a(pxe_udp.o)
 .data          0x0000000000000000        0x0 bin/blib.a(pxe_udp.o)
 .bss           0x0000000000000000        0x0 bin/blib.a(pxe_udp.o)
 .einfo         0x0000000000000000       0x50 bin/blib.a(pxe_udp.o)
 .comment       0x0000000000000000       0x2b bin/blib.a(pxe_udp.o)
 .note.GNU-stack
                0x0000000000000000        0x0 bin/blib.a(pxe_udp.o)
 .text          0x0000000000000000        0x0 bin/blib.a(pxe_undi.o)
 .data          0x0000000000000000        0x0 bin/blib.a(pxe_undi.o)
 .bss           0x0000000000000000        0x0 bin/blib.a(pxe_undi.o)
 .comment       0x0000000000000000       0x2b bin/blib.a(pxe_undi.o)
 .note.GNU-stack
                0x0000000000000000        0x0 bin/blib.a(pxe_undi.o)
 .text          0x0000000000000000        0x0 bin/blib.a(x86_string.o)
 .data          0x0000000000000000        0x0 bin/blib.a(x86_string.o)
 .bss           0x0000000000000000        0x0 bin/blib.a(x86_string.o)
 .comment       0x0000000000000000       0x2b bin/blib.a(x86_string.o)
 .note.GNU-stack
                0x0000000000000000        0x0 bin/blib.a(x86_string.o)
 .text          0x0000000000000000        0x0 bin/blib.a(cpuid_cmd.o)
 .data          0x0000000000000000        0x0 bin/blib.a(cpuid_cmd.o)
 .bss           0x0000000000000000        0x0 bin/blib.a(cpuid_cmd.o)
 .einfo         0x0000000000000000       0x50 bin/blib.a(cpuid_cmd.o)
 .comment       0x0000000000000000       0x2b bin/blib.a(cpuid_cmd.o)
 .note.GNU-stack
                0x0000000000000000        0x0 bin/blib.a(cpuid_cmd.o)
 .data          0x0000000000000000        0x0 bin/blib.a(setjmp.o)
 .bss           0x0000000000000000        0x0 bin/blib.a(setjmp.o)
 .note          0x0000000000000000       0x14 bin/blib.a(setjmp.o)
 .data          0x0000000000000000        0x0 bin/blib.a(virtaddr.o)
 .bss           0x0000000000000000        0x0 bin/blib.a(virtaddr.o)
 .note          0x0000000000000000       0x14 bin/blib.a(virtaddr.o)
 .bss           0x0000000000000000        0x0 bin/blib.a(librm.o)
 .note          0x0000000000000000       0x14 bin/blib.a(librm.o)
 .text          0x0000000000000000        0x0 bin/blib.a(libprefix.o)
 .data          0x0000000000000000        0x0 bin/blib.a(libprefix.o)
 .bss           0x0000000000000000        0x0 bin/blib.a(libprefix.o)
 .text16.early.data
                0x0000000000000000        0x2 bin/blib.a(libprefix.o)
 .note          0x0000000000000000       0x14 bin/blib.a(libprefix.o)
 .text          0x0000000000000000        0x0 bin/blib.a(mromprefix.o)
 .data          0x0000000000000000        0x0 bin/blib.a(mromprefix.o)
 .bss           0x0000000000000000        0x0 bin/blib.a(mromprefix.o)
 .note          0x0000000000000000       0x14 bin/blib.a(mromprefix.o)
 .text          0x0000000000000000        0x0 bin/blib.a(unnrv2b16.o)
 .data          0x0000000000000000        0x0 bin/blib.a(unnrv2b16.o)
 .bss           0x0000000000000000        0x0 bin/blib.a(unnrv2b16.o)
 .note          0x0000000000000000       0x14 bin/blib.a(unnrv2b16.o)
 .text          0x0000000000000000        0x0 bin/blib.a(pxe_entry.o)
 .data          0x0000000000000000        0x0 bin/blib.a(pxe_entry.o)
 .bss           0x0000000000000000        0x0 bin/blib.a(pxe_entry.o)
 .weak          0x0000000000000000        0x0 bin/blib.a(pxe_entry.o)
 .note          0x0000000000000000       0x14 bin/blib.a(pxe_entry.o)
 .text          0x0000000000000000        0x0 bin/blib.a(ansiesc.o)
 .data          0x0000000000000000        0x0 bin/blib.a(ansiesc.o)
 .bss           0x0000000000000000        0x0 bin/blib.a(ansiesc.o)
 .comment       0x0000000000000000       0x2b bin/blib.a(ansiesc.o)
 .note.GNU-stack
                0x0000000000000000        0x0 bin/blib.a(ansiesc.o)
 .text          0x0000000000000000        0x0 bin/blib.a(console.o)
 .data          0x0000000000000000        0x0 bin/blib.a(console.o)
 .bss           0x0000000000000000        0x0 bin/blib.a(console.o)
 .comment       0x0000000000000000       0x2b bin/blib.a(console.o)
 .note.GNU-stack
                0x0000000000000000        0x0 bin/blib.a(console.o)
 .text          0x0000000000000000        0x0 bin/blib.a(cpio.o)
 .data          0x0000000000000000        0x0 bin/blib.a(cpio.o)
 .bss           0x0000000000000000        0x0 bin/blib.a(cpio.o)
 .comment       0x0000000000000000       0x2b bin/blib.a(cpio.o)
 .note.GNU-stack
                0x0000000000000000        0x0 bin/blib.a(cpio.o)
 .text          0x0000000000000000        0x0 bin/blib.a(device.o)
 .data          0x0000000000000000        0x0 bin/blib.a(device.o)
 .bss           0x0000000000000000        0x0 bin/blib.a(device.o)
 .comment       0x0000000000000000       0x2b bin/blib.a(device.o)
 .note.GNU-stack
                0x0000000000000000        0x0 bin/blib.a(device.o)
 .text          0x0000000000000000        0x0 bin/blib.a(exec.o)
 .data          0x0000000000000000        0x0 bin/blib.a(exec.o)
 .bss           0x0000000000000000        0x0 bin/blib.a(exec.o)
 .einfo         0x0000000000000000      0x1c8 bin/blib.a(exec.o)
 .comment       0x0000000000000000       0x2b bin/blib.a(exec.o)
 .note.GNU-stack
                0x0000000000000000        0x0 bin/blib.a(exec.o)
 .text          0x0000000000000000        0x0 bin/blib.a(getopt.o)
 .data          0x0000000000000000        0x0 bin/blib.a(getopt.o)
 .bss           0x0000000000000000        0x0 bin/blib.a(getopt.o)
 .comment       0x0000000000000000       0x2b bin/blib.a(getopt.o)
 .note.GNU-stack
                0x0000000000000000        0x0 bin/blib.a(getopt.o)
 .text          0x0000000000000000        0x0 bin/blib.a(image.o)
 .data          0x0000000000000000        0x0 bin/blib.a(image.o)
 .bss           0x0000000000000000        0x0 bin/blib.a(image.o)
 .einfo         0x0000000000000000      0x1e0 bin/blib.a(image.o)
 .text.image_set_trust
                0x0000000000000000       0x26 bin/blib.a(image.o)
 .text.image_pixbuf
                0x0000000000000000       0x2b bin/blib.a(image.o)
 .bss.require_trusted_images_permanent
                0x0000000000000000        0x4 bin/blib.a(image.o)
 .comment       0x0000000000000000       0x2b bin/blib.a(image.o)
 .note.GNU-stack
                0x0000000000000000        0x0 bin/blib.a(image.o)
 .text          0x0000000000000000        0x0 bin/blib.a(init.o)
 .data          0x0000000000000000        0x0 bin/blib.a(init.o)
 .bss           0x0000000000000000        0x0 bin/blib.a(init.o)
 .comment       0x0000000000000000       0x2b bin/blib.a(init.o)
 .note.GNU-stack
                0x0000000000000000        0x0 bin/blib.a(init.o)
 .text          0x0000000000000000        0x0 bin/blib.a(interface.o)
 .data          0x0000000000000000        0x0 bin/blib.a(interface.o)
 .bss           0x0000000000000000        0x0 bin/blib.a(interface.o)
 .text.intf_get
                0x0000000000000000        0xf bin/blib.a(interface.o)
 .comment       0x0000000000000000       0x2b bin/blib.a(interface.o)
 .note.GNU-stack
                0x0000000000000000        0x0 bin/blib.a(interface.o)
 .text          0x0000000000000000        0x0 bin/blib.a(iobuf.o)
 .data          0x0000000000000000        0x0 bin/blib.a(iobuf.o)
 .bss           0x0000000000000000        0x0 bin/blib.a(iobuf.o)
 .einfo         0x0000000000000000       0x40 bin/blib.a(iobuf.o)
 .text.iob_concatenate
                0x0000000000000000       0x81 bin/blib.a(iobuf.o)
 .comment       0x0000000000000000       0x2b bin/blib.a(iobuf.o)
 .note.GNU-stack
                0x0000000000000000        0x0 bin/blib.a(iobuf.o)
 .text          0x0000000000000000        0x0 bin/blib.a(list.o)
 .data          0x0000000000000000        0x0 bin/blib.a(list.o)
 .bss           0x0000000000000000        0x0 bin/blib.a(list.o)
 .text.extern_list_del
                0x0000000000000000        0xb bin/blib.a(list.o)
 .text.extern_list_empty
                0x0000000000000000        0x9 bin/blib.a(list.o)
 .text.extern_list_is_singular
                0x0000000000000000       0x13 bin/blib.a(list.o)
 .text.extern_list_is_last
                0x0000000000000000        0x9 bin/blib.a(list.o)
 .text.extern_list_cut_position
                0x0000000000000000       0x1c bin/blib.a(list.o)
 .text.extern_list_splice
                0x0000000000000000       0x18 bin/blib.a(list.o)
 .text.extern_list_splice_tail
                0x0000000000000000       0x19 bin/blib.a(list.o)
 .text.extern_list_splice_init
                0x0000000000000000        0xf bin/blib.a(list.o)
 .text.extern_list_splice_tail_init
                0x0000000000000000        0xf bin/blib.a(list.o)
 .text.extern_list_contains
                0x0000000000000000       0x17 bin/blib.a(list.o)
 .comment       0x0000000000000000       0x2b bin/blib.a(list.o)
 .note.GNU-stack
                0x0000000000000000        0x0 bin/blib.a(list.o)
 .text          0x0000000000000000        0x0 bin/blib.a(main.o)
 .data          0x0000000000000000        0x0 bin/blib.a(main.o)
 .bss           0x0000000000000000        0x0 bin/blib.a(main.o)
 .comment       0x0000000000000000       0x2b bin/blib.a(main.o)
 .note.GNU-stack
                0x0000000000000000        0x0 bin/blib.a(main.o)
 .text          0x0000000000000000        0x0 bin/blib.a(malloc.o)
 .data          0x0000000000000000        0x0 bin/blib.a(malloc.o)
 .bss           0x0000000000000000        0x0 bin/blib.a(malloc.o)
 .comment       0x0000000000000000       0x2b bin/blib.a(malloc.o)
 .note.GNU-stack
                0x0000000000000000        0x0 bin/blib.a(malloc.o)
 .text          0x0000000000000000        0x0 bin/blib.a(memblock.o)
 .data          0x0000000000000000        0x0 bin/blib.a(memblock.o)
 .bss           0x0000000000000000        0x0 bin/blib.a(memblock.o)
 .comment       0x0000000000000000       0x2b bin/blib.a(memblock.o)
 .note.GNU-stack
                0x0000000000000000        0x0 bin/blib.a(memblock.o)
 .text          0x0000000000000000        0x0 bin/blib.a(misc.o)
 .data          0x0000000000000000        0x0 bin/blib.a(misc.o)
 .bss           0x0000000000000000        0x0 bin/blib.a(misc.o)
 .comment       0x0000000000000000       0x2b bin/blib.a(misc.o)
 .note.GNU-stack
                0x0000000000000000        0x0 bin/blib.a(misc.o)
 .text          0x0000000000000000        0x0 bin/blib.a(open.o)
 .data          0x0000000000000000        0x0 bin/blib.a(open.o)
 .bss           0x0000000000000000        0x0 bin/blib.a(open.o)
 .einfo         0x0000000000000000      0x118 bin/blib.a(open.o)
 .text.xfer_open
                0x0000000000000000       0x12 bin/blib.a(open.o)
 .comment       0x0000000000000000       0x2b bin/blib.a(open.o)
 .note.GNU-stack
                0x0000000000000000        0x0 bin/blib.a(open.o)
 .text          0x0000000000000000        0x0 bin/blib.a(parseopt.o)
 .data          0x0000000000000000        0x0 bin/blib.a(parseopt.o)
 .bss           0x0000000000000000        0x0 bin/blib.a(parseopt.o)
 .einfo         0x0000000000000000      0x250 bin/blib.a(parseopt.o)
 .text.parse_parameters
                0x0000000000000000       0x3b bin/blib.a(parseopt.o)
 .comment       0x0000000000000000       0x2b bin/blib.a(parseopt.o)
 .note.GNU-stack
                0x0000000000000000        0x0 bin/blib.a(parseopt.o)
 .text          0x0000000000000000        0x0 bin/blib.a(posix_io.o)
 .data          0x0000000000000000        0x0 bin/blib.a(posix_io.o)
 .bss           0x0000000000000000        0x0 bin/blib.a(posix_io.o)
 .einfo         0x0000000000000000      0x2a0 bin/blib.a(posix_io.o)
 .comment       0x0000000000000000       0x2b bin/blib.a(posix_io.o)
 .note.GNU-stack
                0x0000000000000000        0x0 bin/blib.a(posix_io.o)
 .text          0x0000000000000000        0x0 bin/blib.a(process.o)
 .data          0x0000000000000000        0x0 bin/blib.a(process.o)
 .bss           0x0000000000000000        0x0 bin/blib.a(process.o)
 .text.process_object
                0x0000000000000000        0x6 bin/blib.a(process.o)
 .comment       0x0000000000000000       0x2b bin/blib.a(process.o)
 .note.GNU-stack
                0x0000000000000000        0x0 bin/blib.a(process.o)
 .text          0x0000000000000000        0x0 bin/blib.a(refcnt.o)
 .data          0x0000000000000000        0x0 bin/blib.a(refcnt.o)
 .bss           0x0000000000000000        0x0 bin/blib.a(refcnt.o)
 .comment       0x0000000000000000       0x2b bin/blib.a(refcnt.o)
 .note.GNU-stack
                0x0000000000000000        0x0 bin/blib.a(refcnt.o)
 .text          0x0000000000000000        0x0 bin/blib.a(settings.o)
 .data          0x0000000000000000        0x0 bin/blib.a(settings.o)
 .bss           0x0000000000000000        0x0 bin/blib.a(settings.o)
 .text.parse_ipv4_setting
                0x0000000000000000        0x8 bin/blib.a(settings.o)
 .einfo         0x0000000000000000      0x668 bin/blib.a(settings.o)
 .text.format_ipv4_setting
                0x0000000000000000        0x8 bin/blib.a(settings.o)
 .text.fetch_uint_setting
                0x0000000000000000        0x8 bin/blib.a(settings.o)
 .text.fetch_int_setting
                0x0000000000000000        0x8 bin/blib.a(settings.o)
 .text.find_setting
                0x0000000000000000       0x2a bin/blib.a(settings.o)
 .comment       0x0000000000000000       0x2b bin/blib.a(settings.o)
 .note.GNU-stack
                0x0000000000000000        0x0 bin/blib.a(settings.o)
 .text          0x0000000000000000        0x0 bin/blib.a(string.o)
 .data          0x0000000000000000        0x0 bin/blib.a(string.o)
 .bss           0x0000000000000000        0x0 bin/blib.a(string.o)
 .text.strcat   0x0000000000000000       0x1e bin/blib.a(string.o)
 .comment       0x0000000000000000       0x2b bin/blib.a(string.o)
 .note.GNU-stack
                0x0000000000000000        0x0 bin/blib.a(string.o)
 .text          0x0000000000000000        0x0 bin/blib.a(timer.o)
 .data          0x0000000000000000        0x0 bin/blib.a(timer.o)
 .bss           0x0000000000000000        0x0 bin/blib.a(timer.o)
 .comment       0x0000000000000000       0x2b bin/blib.a(timer.o)
 .note.GNU-stack
                0x0000000000000000        0x0 bin/blib.a(timer.o)
 .text          0x0000000000000000        0x0 bin/blib.a(uri.o)
 .data          0x0000000000000000        0x0 bin/blib.a(uri.o)
 .bss           0x0000000000000000        0x0 bin/blib.a(uri.o)
 .comment       0x0000000000000000       0x2b bin/blib.a(uri.o)
 .note.GNU-stack
                0x0000000000000000        0x0 bin/blib.a(uri.o)
 .text          0x0000000000000000        0x0 bin/blib.a(uuid.o)
 .data          0x0000000000000000        0x0 bin/blib.a(uuid.o)
 .bss           0x0000000000000000        0x0 bin/blib.a(uuid.o)
 .comment       0x0000000000000000       0x2b bin/blib.a(uuid.o)
 .note.GNU-stack
                0x0000000000000000        0x0 bin/blib.a(uuid.o)
 .text          0x0000000000000000        0x0 bin/blib.a(vsprintf.o)
 .data          0x0000000000000000        0x0 bin/blib.a(vsprintf.o)
 .bss           0x0000000000000000        0x0 bin/blib.a(vsprintf.o)
 .comment       0x0000000000000000       0x2b bin/blib.a(vsprintf.o)
 .note.GNU-stack
                0x0000000000000000        0x0 bin/blib.a(vsprintf.o)
 .text          0x0000000000000000        0x0 bin/blib.a(xfer.o)
 .data          0x0000000000000000        0x0 bin/blib.a(xfer.o)
 .bss           0x0000000000000000        0x0 bin/blib.a(xfer.o)
 .einfo         0x0000000000000000       0xa0 bin/blib.a(xfer.o)
 .comment       0x0000000000000000       0x2b bin/blib.a(xfer.o)
 .note.GNU-stack
                0x0000000000000000        0x0 bin/blib.a(xfer.o)
 .text          0x0000000000000000        0x0 bin/blib.a(arp.o)
 .data          0x0000000000000000        0x0 bin/blib.a(arp.o)
 .bss           0x0000000000000000        0x0 bin/blib.a(arp.o)
 .einfo         0x0000000000000000       0x98 bin/blib.a(arp.o)
 .comment       0x0000000000000000       0x2b bin/blib.a(arp.o)
 .note.GNU-stack
                0x0000000000000000        0x0 bin/blib.a(arp.o)
 .text          0x0000000000000000        0x0 bin/blib.a(ethernet.o)
 .data          0x0000000000000000        0x0 bin/blib.a(ethernet.o)
 .bss           0x0000000000000000        0x0 bin/blib.a(ethernet.o)
 .einfo         0x0000000000000000       0x78 bin/blib.a(ethernet.o)
 .text.eth_random_addr
                0x0000000000000000       0x21 bin/blib.a(ethernet.o)
 .discard       0x0000000000000000        0x4 bin/blib.a(ethernet.o)
 .comment       0x0000000000000000       0x2b bin/blib.a(ethernet.o)
 .note.GNU-stack
                0x0000000000000000        0x0 bin/blib.a(ethernet.o)
 .text          0x0000000000000000        0x0 bin/blib.a(eth_slow.o)
 .data          0x0000000000000000        0x0 bin/blib.a(eth_slow.o)
 .bss           0x0000000000000000        0x0 bin/blib.a(eth_slow.o)
 .einfo         0x0000000000000000       0xa8 bin/blib.a(eth_slow.o)
 .comment       0x0000000000000000       0x2b bin/blib.a(eth_slow.o)
 .note.GNU-stack
                0x0000000000000000        0x0 bin/blib.a(eth_slow.o)
 .text          0x0000000000000000        0x0 bin/blib.a(fakedhcp.o)
 .data          0x0000000000000000        0x0 bin/blib.a(fakedhcp.o)
 .bss           0x0000000000000000        0x0 bin/blib.a(fakedhcp.o)
 .comment       0x0000000000000000       0x2b bin/blib.a(fakedhcp.o)
 .note.GNU-stack
                0x0000000000000000        0x0 bin/blib.a(fakedhcp.o)
 .text          0x0000000000000000        0x0 bin/blib.a(ipv4.o)
 .data          0x0000000000000000        0x0 bin/blib.a(ipv4.o)
 .bss           0x0000000000000000        0x0 bin/blib.a(ipv4.o)
 .einfo         0x0000000000000000      0x168 bin/blib.a(ipv4.o)
 .discard       0x0000000000000000        0x4 bin/blib.a(ipv4.o)
 .comment       0x0000000000000000       0x2b bin/blib.a(ipv4.o)
 .note.GNU-stack
                0x0000000000000000        0x0 bin/blib.a(ipv4.o)
 .text          0x0000000000000000        0x0 bin/blib.a(neighbour.o)
 .data          0x0000000000000000        0x0 bin/blib.a(neighbour.o)
 .bss           0x0000000000000000        0x0 bin/blib.a(neighbour.o)
 .einfo         0x0000000000000000      0x1b0 bin/blib.a(neighbour.o)
 .text.neighbour_define
                0x0000000000000000       0x39 bin/blib.a(neighbour.o)
 .comment       0x0000000000000000       0x2b bin/blib.a(neighbour.o)
 .note.GNU-stack
                0x0000000000000000        0x0 bin/blib.a(neighbour.o)
 .text          0x0000000000000000        0x0 bin/blib.a(netdevice.o)
 .data          0x0000000000000000        0x0 bin/blib.a(netdevice.o)
 .bss           0x0000000000000000        0x0 bin/blib.a(netdevice.o)
 .einfo         0x0000000000000000      0x2f8 bin/blib.a(netdevice.o)
 .text.netdev_tx_defer
                0x0000000000000000       0x26 bin/blib.a(netdevice.o)
 .text.find_netdev_by_index
                0x0000000000000000       0x20 bin/blib.a(netdevice.o)
 .text.vlan_find
                0x0000000000000000        0x3 bin/blib.a(netdevice.o)
 .comment       0x0000000000000000       0x2b bin/blib.a(netdevice.o)
 .note.GNU-stack
                0x0000000000000000        0x0 bin/blib.a(netdevice.o)
 .text          0x0000000000000000        0x0 bin/blib.a(netdev_settings.o)
 .data          0x0000000000000000        0x0 bin/blib.a(netdev_settings.o)
 .bss           0x0000000000000000        0x0 bin/blib.a(netdev_settings.o)
 .einfo         0x0000000000000000       0x88 bin/blib.a(netdev_settings.o)
 .comment       0x0000000000000000       0x2b bin/blib.a(netdev_settings.o)
 .note.GNU-stack
                0x0000000000000000        0x0 bin/blib.a(netdev_settings.o)
 .text          0x0000000000000000        0x0 bin/blib.a(nullnet.o)
 .data          0x0000000000000000        0x0 bin/blib.a(nullnet.o)
 .bss           0x0000000000000000        0x0 bin/blib.a(nullnet.o)
 .einfo         0x0000000000000000       0x70 bin/blib.a(nullnet.o)
 .comment       0x0000000000000000       0x2b bin/blib.a(nullnet.o)
 .note.GNU-stack
                0x0000000000000000        0x0 bin/blib.a(nullnet.o)
 .text          0x0000000000000000        0x0 bin/blib.a(rarp.o)
 .data          0x0000000000000000        0x0 bin/blib.a(rarp.o)
 .bss           0x0000000000000000        0x0 bin/blib.a(rarp.o)
 .comment       0x0000000000000000       0x2b bin/blib.a(rarp.o)
 .note.GNU-stack
                0x0000000000000000        0x0 bin/blib.a(rarp.o)
 .text          0x0000000000000000        0x0 bin/blib.a(retry.o)
 .data          0x0000000000000000        0x0 bin/blib.a(retry.o)
 .bss           0x0000000000000000        0x0 bin/blib.a(retry.o)
 .comment       0x0000000000000000       0x2b bin/blib.a(retry.o)
 .note.GNU-stack
                0x0000000000000000        0x0 bin/blib.a(retry.o)
 .text          0x0000000000000000        0x0 bin/blib.a(tcpip.o)
 .data          0x0000000000000000        0x0 bin/blib.a(tcpip.o)
 .bss           0x0000000000000000        0x0 bin/blib.a(tcpip.o)
 .einfo         0x0000000000000000       0xb0 bin/blib.a(tcpip.o)
 .text.tcpip_netdev
                0x0000000000000000       0x2d bin/blib.a(tcpip.o)
 .text.generic_tcpip_continue_chksum
                0x0000000000000000       0x37 bin/blib.a(tcpip.o)
 .comment       0x0000000000000000       0x2b bin/blib.a(tcpip.o)
 .note.GNU-stack
                0x0000000000000000        0x0 bin/blib.a(tcpip.o)
 .text          0x0000000000000000        0x0 bin/blib.a(udp.o)
 .data          0x0000000000000000        0x0 bin/blib.a(udp.o)
 .bss           0x0000000000000000        0x0 bin/blib.a(udp.o)
 .einfo         0x0000000000000000      0x198 bin/blib.a(udp.o)
 .comment       0x0000000000000000       0x2b bin/blib.a(udp.o)
 .note.GNU-stack
                0x0000000000000000        0x0 bin/blib.a(udp.o)
 .text          0x0000000000000000        0x0 bin/blib.a(http.o)
 .data          0x0000000000000000        0x0 bin/blib.a(http.o)
 .bss           0x0000000000000000        0x0 bin/blib.a(http.o)
 .comment       0x0000000000000000       0x2b bin/blib.a(http.o)
 .note.GNU-stack
                0x0000000000000000        0x0 bin/blib.a(http.o)
 .text          0x0000000000000000        0x0 bin/blib.a(httpcore.o)
 .data          0x0000000000000000        0x0 bin/blib.a(httpcore.o)
 .bss           0x0000000000000000        0x0 bin/blib.a(httpcore.o)
 .einfo         0x0000000000000000      0x5a0 bin/blib.a(httpcore.o)
 .comment       0x0000000000000000       0x2b bin/blib.a(httpcore.o)
 .note.GNU-stack
                0x0000000000000000        0x0 bin/blib.a(httpcore.o)
 .text          0x0000000000000000        0x0 bin/blib.a(iscsi.o)
 .data          0x0000000000000000        0x0 bin/blib.a(iscsi.o)
 .bss           0x0000000000000000        0x0 bin/blib.a(iscsi.o)
 .einfo         0x0000000000000000      0x9d8 bin/blib.a(iscsi.o)
 .comment       0x0000000000000000       0x2b bin/blib.a(iscsi.o)
 .note.GNU-stack
                0x0000000000000000        0x0 bin/blib.a(iscsi.o)
 .text          0x0000000000000000        0x0 bin/blib.a(dhcp.o)
 .data          0x0000000000000000        0x0 bin/blib.a(dhcp.o)
 .bss           0x0000000000000000        0x0 bin/blib.a(dhcp.o)
 .einfo         0x0000000000000000      0x238 bin/blib.a(dhcp.o)
 .text.dhcp_chaddr
                0x0000000000000000       0x5f bin/blib.a(dhcp.o)
 .comment       0x0000000000000000       0x2b bin/blib.a(dhcp.o)
 .note.GNU-stack
                0x0000000000000000        0x0 bin/blib.a(dhcp.o)
 .text          0x0000000000000000        0x0 bin/blib.a(dns.o)
 .data          0x0000000000000000        0x0 bin/blib.a(dns.o)
 .bss           0x0000000000000000        0x0 bin/blib.a(dns.o)
 .einfo         0x0000000000000000      0x690 bin/blib.a(dns.o)
 .comment       0x0000000000000000       0x2b bin/blib.a(dns.o)
 .note.GNU-stack
                0x0000000000000000        0x0 bin/blib.a(dns.o)
 .text          0x0000000000000000        0x0 bin/blib.a(tftp.o)
 .data          0x0000000000000000        0x0 bin/blib.a(tftp.o)
 .bss           0x0000000000000000        0x0 bin/blib.a(tftp.o)
 .einfo         0x0000000000000000      0x5b0 bin/blib.a(tftp.o)
 .text.tftp_set_mtftp_address
                0x0000000000000000        0x6 bin/blib.a(tftp.o)
 .text.tftp_set_mtftp_port
                0x0000000000000000        0x9 bin/blib.a(tftp.o)
 .comment       0x0000000000000000       0x2b bin/blib.a(tftp.o)
 .note.GNU-stack
                0x0000000000000000        0x0 bin/blib.a(tftp.o)
 .text          0x0000000000000000        0x0 bin/blib.a(elf.o)
 .data          0x0000000000000000        0x0 bin/blib.a(elf.o)
 .bss           0x0000000000000000        0x0 bin/blib.a(elf.o)
 .einfo         0x0000000000000000      0x118 bin/blib.a(elf.o)
 .comment       0x0000000000000000       0x2b bin/blib.a(elf.o)
 .note.GNU-stack
                0x0000000000000000        0x0 bin/blib.a(elf.o)
 .text          0x0000000000000000        0x0 bin/blib.a(embedded.o)
 .data          0x0000000000000000        0x0 bin/blib.a(embedded.o)
 .bss           0x0000000000000000        0x0 bin/blib.a(embedded.o)
 .comment       0x0000000000000000       0x2b bin/blib.a(embedded.o)
 .note.GNU-stack
                0x0000000000000000        0x0 bin/blib.a(embedded.o)
 .text          0x0000000000000000        0x0 bin/blib.a(script.o)
 .data          0x0000000000000000        0x0 bin/blib.a(script.o)
 .bss           0x0000000000000000        0x0 bin/blib.a(script.o)
 .einfo         0x0000000000000000      0x1e0 bin/blib.a(script.o)
 .comment       0x0000000000000000       0x2b bin/blib.a(script.o)
 .note.GNU-stack
                0x0000000000000000        0x0 bin/blib.a(script.o)
 .text          0x0000000000000000        0x0 bin/blib.a(segment.o)
 .data          0x0000000000000000        0x0 bin/blib.a(segment.o)
 .bss           0x0000000000000000        0x0 bin/blib.a(segment.o)
 .einfo         0x0000000000000000       0x80 bin/blib.a(segment.o)
 .comment       0x0000000000000000       0x2b bin/blib.a(segment.o)
 .note.GNU-stack
                0x0000000000000000        0x0 bin/blib.a(segment.o)
 .text          0x0000000000000000        0x0 bin/blib.a(pci.o)
 .data          0x0000000000000000        0x0 bin/blib.a(pci.o)
 .bss           0x0000000000000000        0x0 bin/blib.a(pci.o)
 .text.pci_bar_start
                0x0000000000000000       0x15 bin/blib.a(pci.o)
 .einfo         0x0000000000000000      0x120 bin/blib.a(pci.o)
 .comment       0x0000000000000000       0x2b bin/blib.a(pci.o)
 .note.GNU-stack
                0x0000000000000000        0x0 bin/blib.a(pci.o)
 .text          0x0000000000000000        0x0 bin/blib.a(pci_settings.o)
 .data          0x0000000000000000        0x0 bin/blib.a(pci_settings.o)
 .bss           0x0000000000000000        0x0 bin/blib.a(pci_settings.o)
 .comment       0x0000000000000000       0x2b bin/blib.a(pci_settings.o)
 .note.GNU-stack
                0x0000000000000000        0x0 bin/blib.a(pci_settings.o)
 .text          0x0000000000000000        0x0 bin/blib.a(ibft.o)
 .data          0x0000000000000000        0x0 bin/blib.a(ibft.o)
 .bss           0x0000000000000000        0x0 bin/blib.a(ibft.o)
 .einfo         0x0000000000000000       0xc8 bin/blib.a(ibft.o)
 .comment       0x0000000000000000       0x2b bin/blib.a(ibft.o)
 .note.GNU-stack
                0x0000000000000000        0x0 bin/blib.a(ibft.o)
 .text          0x0000000000000000        0x0 bin/blib.a(scsi.o)
 .data          0x0000000000000000        0x0 bin/blib.a(scsi.o)
 .bss           0x0000000000000000        0x0 bin/blib.a(scsi.o)
 .einfo         0x0000000000000000      0x538 bin/blib.a(scsi.o)
 .comment       0x0000000000000000       0x2b bin/blib.a(scsi.o)
 .note.GNU-stack
                0x0000000000000000        0x0 bin/blib.a(scsi.o)
 .text          0x0000000000000000        0x0 bin/blib.a(smbios_settings.o)
 .data          0x0000000000000000        0x0 bin/blib.a(smbios_settings.o)
 .bss           0x0000000000000000        0x0 bin/blib.a(smbios_settings.o)
 .comment       0x0000000000000000       0x2b bin/blib.a(smbios_settings.o)
 .note.GNU-stack
                0x0000000000000000        0x0 bin/blib.a(smbios_settings.o)
 .text          0x0000000000000000        0x0 bin/blib.a(chap.o)
 .data          0x0000000000000000        0x0 bin/blib.a(chap.o)
 .bss           0x0000000000000000        0x0 bin/blib.a(chap.o)
 .einfo         0x0000000000000000       0x38 bin/blib.a(chap.o)
 .comment       0x0000000000000000       0x2b bin/blib.a(chap.o)
 .note.GNU-stack
                0x0000000000000000        0x0 bin/blib.a(chap.o)
 .text          0x0000000000000000        0x0 bin/blib.a(md5.o)
 .data          0x0000000000000000        0x0 bin/blib.a(md5.o)
 .bss           0x0000000000000000        0x0 bin/blib.a(md5.o)
 .comment       0x0000000000000000       0x2b bin/blib.a(md5.o)
 .note.GNU-stack
                0x0000000000000000        0x0 bin/blib.a(md5.o)
 .text          0x0000000000000000        0x0 bin/blib.a(strerror.o)
 .data          0x0000000000000000        0x0 bin/blib.a(strerror.o)
 .bss           0x0000000000000000        0x0 bin/blib.a(strerror.o)
 .comment       0x0000000000000000       0x2b bin/blib.a(strerror.o)
 .note.GNU-stack
                0x0000000000000000        0x0 bin/blib.a(strerror.o)
 .text          0x0000000000000000        0x0 bin/blib.a(autoboot_cmd.o)
 .data          0x0000000000000000        0x0 bin/blib.a(autoboot_cmd.o)
 .bss           0x0000000000000000        0x0 bin/blib.a(autoboot_cmd.o)
 .comment       0x0000000000000000       0x2b bin/blib.a(autoboot_cmd.o)
 .note.GNU-stack
                0x0000000000000000        0x0 bin/blib.a(autoboot_cmd.o)
 .text          0x0000000000000000        0x0 bin/blib.a(config_cmd.o)
 .data          0x0000000000000000        0x0 bin/blib.a(config_cmd.o)
 .bss           0x0000000000000000        0x0 bin/blib.a(config_cmd.o)
 .comment       0x0000000000000000       0x2b bin/blib.a(config_cmd.o)
 .note.GNU-stack
                0x0000000000000000        0x0 bin/blib.a(config_cmd.o)
 .text          0x0000000000000000        0x0 bin/blib.a(dhcp_cmd.o)
 .data          0x0000000000000000        0x0 bin/blib.a(dhcp_cmd.o)
 .bss           0x0000000000000000        0x0 bin/blib.a(dhcp_cmd.o)
 .comment       0x0000000000000000       0x2b bin/blib.a(dhcp_cmd.o)
 .note.GNU-stack
                0x0000000000000000        0x0 bin/blib.a(dhcp_cmd.o)
 .text          0x0000000000000000        0x0 bin/blib.a(ifmgmt_cmd.o)
 .data          0x0000000000000000        0x0 bin/blib.a(ifmgmt_cmd.o)
 .bss           0x0000000000000000        0x0 bin/blib.a(ifmgmt_cmd.o)
 .einfo         0x0000000000000000       0x40 bin/blib.a(ifmgmt_cmd.o)
 .comment       0x0000000000000000       0x2b bin/blib.a(ifmgmt_cmd.o)
 .note.GNU-stack
                0x0000000000000000        0x0 bin/blib.a(ifmgmt_cmd.o)
 .text          0x0000000000000000        0x0 bin/blib.a(image_cmd.o)
 .data          0x0000000000000000        0x0 bin/blib.a(image_cmd.o)
 .bss           0x0000000000000000        0x0 bin/blib.a(image_cmd.o)
 .einfo         0x0000000000000000       0x88 bin/blib.a(image_cmd.o)
 .comment       0x0000000000000000       0x2b bin/blib.a(image_cmd.o)
 .note.GNU-stack
                0x0000000000000000        0x0 bin/blib.a(image_cmd.o)
 .text          0x0000000000000000        0x0 bin/blib.a(login_cmd.o)
 .data          0x0000000000000000        0x0 bin/blib.a(login_cmd.o)
 .bss           0x0000000000000000        0x0 bin/blib.a(login_cmd.o)
 .comment       0x0000000000000000       0x2b bin/blib.a(login_cmd.o)
 .note.GNU-stack
                0x0000000000000000        0x0 bin/blib.a(login_cmd.o)
 .text          0x0000000000000000        0x0 bin/blib.a(menu_cmd.o)
 .data          0x0000000000000000        0x0 bin/blib.a(menu_cmd.o)
 .bss           0x0000000000000000        0x0 bin/blib.a(menu_cmd.o)
 .einfo         0x0000000000000000      0x100 bin/blib.a(menu_cmd.o)
 .comment       0x0000000000000000       0x2b bin/blib.a(menu_cmd.o)
 .note.GNU-stack
                0x0000000000000000        0x0 bin/blib.a(menu_cmd.o)
 .text          0x0000000000000000        0x0 bin/blib.a(nvo_cmd.o)
 .data          0x0000000000000000        0x0 bin/blib.a(nvo_cmd.o)
 .bss           0x0000000000000000        0x0 bin/blib.a(nvo_cmd.o)
 .einfo         0x0000000000000000       0x40 bin/blib.a(nvo_cmd.o)
 .comment       0x0000000000000000       0x2b bin/blib.a(nvo_cmd.o)
 .note.GNU-stack
                0x0000000000000000        0x0 bin/blib.a(nvo_cmd.o)
 .text          0x0000000000000000        0x0 bin/blib.a(reboot_cmd.o)
 .data          0x0000000000000000        0x0 bin/blib.a(reboot_cmd.o)
 .bss           0x0000000000000000        0x0 bin/blib.a(reboot_cmd.o)
 .comment       0x0000000000000000       0x2b bin/blib.a(reboot_cmd.o)
 .note.GNU-stack
                0x0000000000000000        0x0 bin/blib.a(reboot_cmd.o)
 .text          0x0000000000000000        0x0 bin/blib.a(route_cmd.o)
 .data          0x0000000000000000        0x0 bin/blib.a(route_cmd.o)
 .bss           0x0000000000000000        0x0 bin/blib.a(route_cmd.o)
 .comment       0x0000000000000000       0x2b bin/blib.a(route_cmd.o)
 .note.GNU-stack
                0x0000000000000000        0x0 bin/blib.a(route_cmd.o)
 .text          0x0000000000000000        0x0 bin/blib.a(sanboot_cmd.o)
 .data          0x0000000000000000        0x0 bin/blib.a(sanboot_cmd.o)
 .bss           0x0000000000000000        0x0 bin/blib.a(sanboot_cmd.o)
 .einfo         0x0000000000000000       0x40 bin/blib.a(sanboot_cmd.o)
 .comment       0x0000000000000000       0x2b bin/blib.a(sanboot_cmd.o)
 .note.GNU-stack
                0x0000000000000000        0x0 bin/blib.a(sanboot_cmd.o)
 .text          0x0000000000000000        0x0 bin/blib.a(sync_cmd.o)
 .data          0x0000000000000000        0x0 bin/blib.a(sync_cmd.o)
 .bss           0x0000000000000000        0x0 bin/blib.a(sync_cmd.o)
 .comment       0x0000000000000000       0x2b bin/blib.a(sync_cmd.o)
 .note.GNU-stack
                0x0000000000000000        0x0 bin/blib.a(sync_cmd.o)
 .text          0x0000000000000000        0x0 bin/blib.a(login_ui.o)
 .data          0x0000000000000000        0x0 bin/blib.a(login_ui.o)
 .bss           0x0000000000000000        0x0 bin/blib.a(login_ui.o)
 .einfo         0x0000000000000000       0xc0 bin/blib.a(login_ui.o)
 .comment       0x0000000000000000       0x2b bin/blib.a(login_ui.o)
 .note.GNU-stack
                0x0000000000000000        0x0 bin/blib.a(login_ui.o)
 .text          0x0000000000000000        0x0 bin/blib.a(menu_ui.o)
 .data          0x0000000000000000        0x0 bin/blib.a(menu_ui.o)
 .bss           0x0000000000000000        0x0 bin/blib.a(menu_ui.o)
 .einfo         0x0000000000000000       0x80 bin/blib.a(menu_ui.o)
 .comment       0x0000000000000000       0x2b bin/blib.a(menu_ui.o)
 .note.GNU-stack
                0x0000000000000000        0x0 bin/blib.a(menu_ui.o)
 .text          0x0000000000000000        0x0 bin/blib.a(settings_ui.o)
 .data          0x0000000000000000        0x0 bin/blib.a(settings_ui.o)
 .bss           0x0000000000000000        0x0 bin/blib.a(settings_ui.o)
 .comment       0x0000000000000000       0x2b bin/blib.a(settings_ui.o)
 .note.GNU-stack
                0x0000000000000000        0x0 bin/blib.a(settings_ui.o)
 .text          0x0000000000000000        0x0 bin/blib.a(clear.o)
 .data          0x0000000000000000        0x0 bin/blib.a(clear.o)
 .bss           0x0000000000000000        0x0 bin/blib.a(clear.o)
 .text.wclrtobot
                0x0000000000000000       0x34 bin/blib.a(clear.o)
 .text.wdelch   0x0000000000000000       0x1d bin/blib.a(clear.o)
 .text.wdeleteln
                0x0000000000000000       0x2c bin/blib.a(clear.o)
 .text.werase   0x0000000000000000       0x17 bin/blib.a(clear.o)
 .comment       0x0000000000000000       0x2b bin/blib.a(clear.o)
 .note.GNU-stack
                0x0000000000000000        0x0 bin/blib.a(clear.o)
 .text          0x0000000000000000        0x0 bin/blib.a(mucurses.o)
 .data          0x0000000000000000        0x0 bin/blib.a(mucurses.o)
 .bss           0x0000000000000000        0x0 bin/blib.a(mucurses.o)
 .text._wcursback
                0x0000000000000000       0x2d bin/blib.a(mucurses.o)
 .text._wputchstr
                0x0000000000000000       0x2e bin/blib.a(mucurses.o)
 .comment       0x0000000000000000       0x2b bin/blib.a(mucurses.o)
 .note.GNU-stack
                0x0000000000000000        0x0 bin/blib.a(mucurses.o)
 .text          0x0000000000000000        0x0 bin/blib.a(print.o)
 .data          0x0000000000000000        0x0 bin/blib.a(print.o)
 .bss           0x0000000000000000        0x0 bin/blib.a(print.o)
 .text.waddch   0x0000000000000000        0xa bin/blib.a(print.o)
 .comment       0x0000000000000000       0x2b bin/blib.a(print.o)
 .note.GNU-stack
                0x0000000000000000        0x0 bin/blib.a(print.o)
 .text          0x0000000000000000        0x0 bin/blib.a(winattrs.o)
 .data          0x0000000000000000        0x0 bin/blib.a(winattrs.o)
 .bss           0x0000000000000000        0x0 bin/blib.a(winattrs.o)
 .text.getbkgd  0x0000000000000000        0x4 bin/blib.a(winattrs.o)
 .text.wattr_get
                0x0000000000000000       0x18 bin/blib.a(winattrs.o)
 .text.wattr_off
                0x0000000000000000        0x8 bin/blib.a(winattrs.o)
 .text.wattr_on
                0x0000000000000000        0x6 bin/blib.a(winattrs.o)
 .text.wattr_set
                0x0000000000000000       0x1d bin/blib.a(winattrs.o)
 .comment       0x0000000000000000       0x2b bin/blib.a(winattrs.o)
 .note.GNU-stack
                0x0000000000000000        0x0 bin/blib.a(winattrs.o)
 .text          0x0000000000000000        0x0 bin/blib.a(wininit.o)
 .data          0x0000000000000000        0x0 bin/blib.a(wininit.o)
 .bss           0x0000000000000000        0x0 bin/blib.a(wininit.o)
 .comment       0x0000000000000000       0x2b bin/blib.a(wininit.o)
 .note.GNU-stack
                0x0000000000000000        0x0 bin/blib.a(wininit.o)
 .text          0x0000000000000000        0x0 bin/blib.a(editbox.o)
 .data          0x0000000000000000        0x0 bin/blib.a(editbox.o)
 .bss           0x0000000000000000        0x0 bin/blib.a(editbox.o)
 .comment       0x0000000000000000       0x2b bin/blib.a(editbox.o)
 .note.GNU-stack
                0x0000000000000000        0x0 bin/blib.a(editbox.o)
 .text          0x0000000000000000        0x0 bin/blib.a(keymap_us.o)
 .data          0x0000000000000000        0x0 bin/blib.a(keymap_us.o)
 .bss           0x0000000000000000        0x0 bin/blib.a(keymap_us.o)
 .comment       0x0000000000000000       0x2b bin/blib.a(keymap_us.o)
 .note.GNU-stack
                0x0000000000000000        0x0 bin/blib.a(keymap_us.o)
 .text          0x0000000000000000        0x0 bin/blib.a(autoboot.o)
 .data          0x0000000000000000        0x0 bin/blib.a(autoboot.o)
 .bss           0x0000000000000000        0x0 bin/blib.a(autoboot.o)
 .text.pxe_menu_boot
                0x0000000000000000        0x6 bin/blib.a(autoboot.o)
 .einfo         0x0000000000000000       0xb0 bin/blib.a(autoboot.o)
 .comment       0x0000000000000000       0x2b bin/blib.a(autoboot.o)
 .note.GNU-stack
                0x0000000000000000        0x0 bin/blib.a(autoboot.o)
 .text          0x0000000000000000        0x0 bin/blib.a(dhcpmgmt.o)
 .data          0x0000000000000000        0x0 bin/blib.a(dhcpmgmt.o)
 .bss           0x0000000000000000        0x0 bin/blib.a(dhcpmgmt.o)
 .comment       0x0000000000000000       0x2b bin/blib.a(dhcpmgmt.o)
 .note.GNU-stack
                0x0000000000000000        0x0 bin/blib.a(dhcpmgmt.o)
 .text          0x0000000000000000        0x0 bin/blib.a(ifmgmt.o)
 .data          0x0000000000000000        0x0 bin/blib.a(ifmgmt.o)
 .bss           0x0000000000000000        0x0 bin/blib.a(ifmgmt.o)
 .einfo         0x0000000000000000       0x48 bin/blib.a(ifmgmt.o)
 .comment       0x0000000000000000       0x2b bin/blib.a(ifmgmt.o)
 .note.GNU-stack
                0x0000000000000000        0x0 bin/blib.a(ifmgmt.o)
 .text          0x0000000000000000        0x0 bin/blib.a(imgmgmt.o)
 .data          0x0000000000000000        0x0 bin/blib.a(imgmgmt.o)
 .bss           0x0000000000000000        0x0 bin/blib.a(imgmgmt.o)
 .einfo         0x0000000000000000       0xe0 bin/blib.a(imgmgmt.o)
 .comment       0x0000000000000000       0x2b bin/blib.a(imgmgmt.o)
 .note.GNU-stack
                0x0000000000000000        0x0 bin/blib.a(imgmgmt.o)
 .text          0x0000000000000000        0x0 bin/blib.a(prompt.o)
 .data          0x0000000000000000        0x0 bin/blib.a(prompt.o)
 .bss           0x0000000000000000        0x0 bin/blib.a(prompt.o)
 .einfo         0x0000000000000000       0x70 bin/blib.a(prompt.o)
 .comment       0x0000000000000000       0x2b bin/blib.a(prompt.o)
 .note.GNU-stack
                0x0000000000000000        0x0 bin/blib.a(prompt.o)
 .text          0x0000000000000000        0x0 bin/blib.a(pxemenu.o)
 .data          0x0000000000000000        0x0 bin/blib.a(pxemenu.o)
 .bss           0x0000000000000000        0x0 bin/blib.a(pxemenu.o)
 .einfo         0x0000000000000000      0x120 bin/blib.a(pxemenu.o)
 .comment       0x0000000000000000       0x2b bin/blib.a(pxemenu.o)
 .note.GNU-stack
                0x0000000000000000        0x0 bin/blib.a(pxemenu.o)
 .text          0x0000000000000000        0x0 bin/blib.a(route.o)
 .data          0x0000000000000000        0x0 bin/blib.a(route.o)
 .bss           0x0000000000000000        0x0 bin/blib.a(route.o)
 .comment       0x0000000000000000       0x2b bin/blib.a(route.o)
 .note.GNU-stack
                0x0000000000000000        0x0 bin/blib.a(route.o)
 .text          0x0000000000000000        0x0 bin/blib.a(sync.o)
 .data          0x0000000000000000        0x0 bin/blib.a(sync.o)
 .bss           0x0000000000000000        0x0 bin/blib.a(sync.o)
 .comment       0x0000000000000000       0x2b bin/blib.a(sync.o)
 .note.GNU-stack
                0x0000000000000000        0x0 bin/blib.a(sync.o)
 .text          0x0000000000000000        0x0 bin/blib.a(config_ethernet.o)
 .data          0x0000000000000000        0x0 bin/blib.a(config_ethernet.o)
 .bss           0x0000000000000000        0x0 bin/blib.a(config_ethernet.o)
 .discard       0x0000000000000000        0x4 bin/blib.a(config_ethernet.o)
 .comment       0x0000000000000000       0x2b bin/blib.a(config_ethernet.o)
 .note.GNU-stack
                0x0000000000000000        0x0 bin/blib.a(config_ethernet.o)
 .text          0x0000000000000000        0x0 bin/blib.a(config_route.o)
 .data          0x0000000000000000        0x0 bin/blib.a(config_route.o)
 .bss           0x0000000000000000        0x0 bin/blib.a(config_route.o)
 .discard       0x0000000000000000        0x4 bin/blib.a(config_route.o)
 .comment       0x0000000000000000       0x2b bin/blib.a(config_route.o)
 .note.GNU-stack
                0x0000000000000000        0x0 bin/blib.a(config_route.o)
 .text          0x0000000000000000        0x0 bin/blib.a(basemem_packet.o)
 .data          0x0000000000000000        0x0 bin/blib.a(basemem_packet.o)
 .bss           0x0000000000000000        0x0 bin/blib.a(basemem_packet.o)
 .comment       0x0000000000000000       0x2b bin/blib.a(basemem_packet.o)
 .note.GNU-stack
                0x0000000000000000        0x0 bin/blib.a(basemem_packet.o)
 .text          0x0000000000000000        0x0 bin/blib.a(pci_autoboot.o)
 .data          0x0000000000000000        0x0 bin/blib.a(pci_autoboot.o)
 .bss           0x0000000000000000        0x0 bin/blib.a(pci_autoboot.o)
 .comment       0x0000000000000000       0x2b bin/blib.a(pci_autoboot.o)
 .note.GNU-stack
                0x0000000000000000        0x0 bin/blib.a(pci_autoboot.o)
 .text          0x0000000000000000        0x0 bin/blib.a(relocate.o)
 .data          0x0000000000000000        0x0 bin/blib.a(relocate.o)
 .bss           0x0000000000000000        0x0 bin/blib.a(relocate.o)
 .comment       0x0000000000000000       0x2b bin/blib.a(relocate.o)
 .note.GNU-stack
                0x0000000000000000        0x0 bin/blib.a(relocate.o)
 .text          0x0000000000000000        0x0 bin/blib.a(timer2.o)
 .data          0x0000000000000000        0x0 bin/blib.a(timer2.o)
 .bss           0x0000000000000000        0x0 bin/blib.a(timer2.o)
 .comment       0x0000000000000000       0x2b bin/blib.a(timer2.o)
 .note.GNU-stack
                0x0000000000000000        0x0 bin/blib.a(timer2.o)
 .text          0x0000000000000000        0x0 bin/blib.a(librm_mgmt.o)
 .data          0x0000000000000000        0x0 bin/blib.a(librm_mgmt.o)
 .bss           0x0000000000000000        0x0 bin/blib.a(librm_mgmt.o)
 .text.copy_user_to_rm_stack
                0x0000000000000000       0x3a bin/blib.a(librm_mgmt.o)
 .text.remove_user_from_rm_stack
                0x0000000000000000       0x36 bin/blib.a(librm_mgmt.o)
 .comment       0x0000000000000000       0x2b bin/blib.a(librm_mgmt.o)
 .note.GNU-stack
                0x0000000000000000        0x0 bin/blib.a(librm_mgmt.o)
 .text          0x0000000000000000        0x0 bin/blib.a(memmap.o)
 .data          0x0000000000000000        0x0 bin/blib.a(memmap.o)
 .bss           0x0000000000000000        0x0 bin/blib.a(memmap.o)
 .einfo         0x0000000000000000      0x218 bin/blib.a(memmap.o)
 .comment       0x0000000000000000       0x2b bin/blib.a(memmap.o)
 .note.GNU-stack
                0x0000000000000000        0x0 bin/blib.a(memmap.o)
 .text          0x0000000000000000        0x0 bin/blib.a(biosint.o)
 .data          0x0000000000000000        0x0 bin/blib.a(biosint.o)
 .bss           0x0000000000000000        0x0 bin/blib.a(biosint.o)
 .einfo         0x0000000000000000       0x58 bin/blib.a(biosint.o)
 .comment       0x0000000000000000       0x2b bin/blib.a(biosint.o)
 .note.GNU-stack
                0x0000000000000000        0x0 bin/blib.a(biosint.o)
 .text          0x0000000000000000        0x0 bin/blib.a(bios_nap.o)
 .data          0x0000000000000000        0x0 bin/blib.a(bios_nap.o)
 .bss           0x0000000000000000        0x0 bin/blib.a(bios_nap.o)
 .comment       0x0000000000000000       0x2b bin/blib.a(bios_nap.o)
 .note.GNU-stack
                0x0000000000000000        0x0 bin/blib.a(bios_nap.o)
 .text          0x0000000000000000        0x0 bin/blib.a(bios_reboot.o)
 .data          0x0000000000000000        0x0 bin/blib.a(bios_reboot.o)
 .bss           0x0000000000000000        0x0 bin/blib.a(bios_reboot.o)
 .comment       0x0000000000000000       0x2b bin/blib.a(bios_reboot.o)
 .note.GNU-stack
                0x0000000000000000        0x0 bin/blib.a(bios_reboot.o)
 .text          0x0000000000000000        0x0 bin/blib.a(bios_timer.o)
 .data          0x0000000000000000        0x0 bin/blib.a(bios_timer.o)
 .bss           0x0000000000000000        0x0 bin/blib.a(bios_timer.o)
 .comment       0x0000000000000000       0x2b bin/blib.a(bios_timer.o)
 .note.GNU-stack
                0x0000000000000000        0x0 bin/blib.a(bios_timer.o)
 .text          0x0000000000000000        0x0 bin/blib.a(int13.o)
 .data          0x0000000000000000        0x0 bin/blib.a(int13.o)
 .bss           0x0000000000000000        0x0 bin/blib.a(int13.o)
 .einfo         0x0000000000000000      0x628 bin/blib.a(int13.o)
 .comment       0x0000000000000000       0x2b bin/blib.a(int13.o)
 .note.GNU-stack
                0x0000000000000000        0x0 bin/blib.a(int13.o)
 .text          0x0000000000000000        0x0 bin/blib.a(memtop_umalloc.o)
 .data          0x0000000000000000        0x0 bin/blib.a(memtop_umalloc.o)
 .bss           0x0000000000000000        0x0 bin/blib.a(memtop_umalloc.o)
 .comment       0x0000000000000000       0x2b bin/blib.a(memtop_umalloc.o)
 .note.GNU-stack
                0x0000000000000000        0x0 bin/blib.a(memtop_umalloc.o)
 .text          0x0000000000000000        0x0 bin/blib.a(pcibios.o)
 .data          0x0000000000000000        0x0 bin/blib.a(pcibios.o)
 .bss           0x0000000000000000        0x0 bin/blib.a(pcibios.o)
 .comment       0x0000000000000000       0x2b bin/blib.a(pcibios.o)
 .note.GNU-stack
                0x0000000000000000        0x0 bin/blib.a(pcibios.o)
 .text          0x0000000000000000        0x0 bin/blib.a(cpuid.o)
 .data          0x0000000000000000        0x0 bin/blib.a(cpuid.o)
 .bss           0x0000000000000000        0x0 bin/blib.a(cpuid.o)
 .comment       0x0000000000000000       0x2b bin/blib.a(cpuid.o)
 .note.GNU-stack
                0x0000000000000000        0x0 bin/blib.a(cpuid.o)
 .text          0x0000000000000000        0x0 bin/blib.a(x86_tcpip.o)
 .data          0x0000000000000000        0x0 bin/blib.a(x86_tcpip.o)
 .bss           0x0000000000000000        0x0 bin/blib.a(x86_tcpip.o)
 .comment       0x0000000000000000       0x2b bin/blib.a(x86_tcpip.o)
 .note.GNU-stack
                0x0000000000000000        0x0 bin/blib.a(x86_tcpip.o)
 .text          0x0000000000000000        0x0 bin/blib.a(stack16.o)
 .data          0x0000000000000000        0x0 bin/blib.a(stack16.o)
 .bss           0x0000000000000000        0x0 bin/blib.a(stack16.o)
 .note          0x0000000000000000       0x14 bin/blib.a(stack16.o)
 .text          0x0000000000000000        0x0 bin/blib.a(stack.o)
 .data          0x0000000000000000        0x0 bin/blib.a(stack.o)
 .bss           0x0000000000000000        0x0 bin/blib.a(stack.o)
 .note          0x0000000000000000       0x14 bin/blib.a(stack.o)
 .text          0x0000000000000000        0x0 bin/blib.a(liba20.o)
 .data          0x0000000000000000        0x0 bin/blib.a(liba20.o)
 .bss           0x0000000000000000        0x0 bin/blib.a(liba20.o)
 .note          0x0000000000000000       0x14 bin/blib.a(liba20.o)
 .text          0x0000000000000000        0x0 bin/blib.a(acpi.o)
 .data          0x0000000000000000        0x0 bin/blib.a(acpi.o)
 .bss           0x0000000000000000        0x0 bin/blib.a(acpi.o)
 .einfo         0x0000000000000000       0x48 bin/blib.a(acpi.o)
 .comment       0x0000000000000000       0x2b bin/blib.a(acpi.o)
 .note.GNU-stack
                0x0000000000000000        0x0 bin/blib.a(acpi.o)
 .text          0x0000000000000000        0x0 bin/blib.a(asprintf.o)
 .data          0x0000000000000000        0x0 bin/blib.a(asprintf.o)
 .bss           0x0000000000000000        0x0 bin/blib.a(asprintf.o)
 .einfo         0x0000000000000000       0x38 bin/blib.a(asprintf.o)
 .comment       0x0000000000000000       0x2b bin/blib.a(asprintf.o)
 .note.GNU-stack
                0x0000000000000000        0x0 bin/blib.a(asprintf.o)
 .text          0x0000000000000000        0x0 bin/blib.a(base16.o)
 .data          0x0000000000000000        0x0 bin/blib.a(base16.o)
 .bss           0x0000000000000000        0x0 bin/blib.a(base16.o)
 .einfo         0x0000000000000000       0xa8 bin/blib.a(base16.o)
 .comment       0x0000000000000000       0x2b bin/blib.a(base16.o)
 .note.GNU-stack
                0x0000000000000000        0x0 bin/blib.a(base16.o)
 .text          0x0000000000000000        0x0 bin/blib.a(base64.o)
 .data          0x0000000000000000        0x0 bin/blib.a(base64.o)
 .bss           0x0000000000000000        0x0 bin/blib.a(base64.o)
 .einfo         0x0000000000000000       0xe0 bin/blib.a(base64.o)
 .comment       0x0000000000000000       0x2b bin/blib.a(base64.o)
 .note.GNU-stack
                0x0000000000000000        0x0 bin/blib.a(base64.o)
 .text          0x0000000000000000        0x0 bin/blib.a(basename.o)
 .data          0x0000000000000000        0x0 bin/blib.a(basename.o)
 .bss           0x0000000000000000        0x0 bin/blib.a(basename.o)
 .comment       0x0000000000000000       0x2b bin/blib.a(basename.o)
 .note.GNU-stack
                0x0000000000000000        0x0 bin/blib.a(basename.o)
 .text          0x0000000000000000        0x0 bin/blib.a(bitmap.o)
 .data          0x0000000000000000        0x0 bin/blib.a(bitmap.o)
 .bss           0x0000000000000000        0x0 bin/blib.a(bitmap.o)
 .einfo         0x0000000000000000       0x38 bin/blib.a(bitmap.o)
 .comment       0x0000000000000000       0x2b bin/blib.a(bitmap.o)
 .note.GNU-stack
                0x0000000000000000        0x0 bin/blib.a(bitmap.o)
 .text          0x0000000000000000        0x0 bin/blib.a(blockdev.o)
 .data          0x0000000000000000        0x0 bin/blib.a(blockdev.o)
 .bss           0x0000000000000000        0x0 bin/blib.a(blockdev.o)
 .einfo         0x0000000000000000       0xd8 bin/blib.a(blockdev.o)
 .comment       0x0000000000000000       0x2b bin/blib.a(blockdev.o)
 .note.GNU-stack
                0x0000000000000000        0x0 bin/blib.a(blockdev.o)
 .text          0x0000000000000000        0x0 bin/blib.a(ctype.o)
 .data          0x0000000000000000        0x0 bin/blib.a(ctype.o)
 .bss           0x0000000000000000        0x0 bin/blib.a(ctype.o)
 .comment       0x0000000000000000       0x2b bin/blib.a(ctype.o)
 .note.GNU-stack
                0x0000000000000000        0x0 bin/blib.a(ctype.o)
 .text          0x0000000000000000        0x0 bin/blib.a(cwuri.o)
 .data          0x0000000000000000        0x0 bin/blib.a(cwuri.o)
 .bss           0x0000000000000000        0x0 bin/blib.a(cwuri.o)
 .comment       0x0000000000000000       0x2b bin/blib.a(cwuri.o)
 .note.GNU-stack
                0x0000000000000000        0x0 bin/blib.a(cwuri.o)
 .text          0x0000000000000000        0x0 bin/blib.a(downloader.o)
 .data          0x0000000000000000        0x0 bin/blib.a(downloader.o)
 .bss           0x0000000000000000        0x0 bin/blib.a(downloader.o)
 .einfo         0x0000000000000000       0x78 bin/blib.a(downloader.o)
 .comment       0x0000000000000000       0x2b bin/blib.a(downloader.o)
 .note.GNU-stack
                0x0000000000000000        0x0 bin/blib.a(downloader.o)
 .text          0x0000000000000000        0x0 bin/blib.a(edd.o)
 .data          0x0000000000000000        0x0 bin/blib.a(edd.o)
 .bss           0x0000000000000000        0x0 bin/blib.a(edd.o)
 .einfo         0x0000000000000000       0x38 bin/blib.a(edd.o)
 .comment       0x0000000000000000       0x2b bin/blib.a(edd.o)
 .note.GNU-stack
                0x0000000000000000        0x0 bin/blib.a(edd.o)
 .text          0x0000000000000000        0x0 bin/blib.a(errno.o)
 .data          0x0000000000000000        0x0 bin/blib.a(errno.o)
 .bss           0x0000000000000000        0x0 bin/blib.a(errno.o)
 .comment       0x0000000000000000       0x2b bin/blib.a(errno.o)
 .note.GNU-stack
                0x0000000000000000        0x0 bin/blib.a(errno.o)
 .text          0x0000000000000000        0x0 bin/blib.a(getkey.o)
 .data          0x0000000000000000        0x0 bin/blib.a(getkey.o)
 .bss           0x0000000000000000        0x0 bin/blib.a(getkey.o)
 .comment       0x0000000000000000       0x2b bin/blib.a(getkey.o)
 .note.GNU-stack
                0x0000000000000000        0x0 bin/blib.a(getkey.o)
 .text          0x0000000000000000        0x0 bin/blib.a(job.o)
 .data          0x0000000000000000        0x0 bin/blib.a(job.o)
 .bss           0x0000000000000000        0x0 bin/blib.a(job.o)
 .comment       0x0000000000000000       0x2b bin/blib.a(job.o)
 .note.GNU-stack
                0x0000000000000000        0x0 bin/blib.a(job.o)
 .text          0x0000000000000000        0x0 bin/blib.a(linebuf.o)
 .data          0x0000000000000000        0x0 bin/blib.a(linebuf.o)
 .bss           0x0000000000000000        0x0 bin/blib.a(linebuf.o)
 .einfo         0x0000000000000000       0x38 bin/blib.a(linebuf.o)
 .comment       0x0000000000000000       0x2b bin/blib.a(linebuf.o)
 .note.GNU-stack
                0x0000000000000000        0x0 bin/blib.a(linebuf.o)
 .text          0x0000000000000000        0x0 bin/blib.a(menu.o)
 .data          0x0000000000000000        0x0 bin/blib.a(menu.o)
 .bss           0x0000000000000000        0x0 bin/blib.a(menu.o)
 .comment       0x0000000000000000       0x2b bin/blib.a(menu.o)
 .note.GNU-stack
                0x0000000000000000        0x0 bin/blib.a(menu.o)
 .text          0x0000000000000000        0x0 bin/blib.a(monojob.o)
 .data          0x0000000000000000        0x0 bin/blib.a(monojob.o)
 .bss           0x0000000000000000        0x0 bin/blib.a(monojob.o)
 .einfo         0x0000000000000000       0xf0 bin/blib.a(monojob.o)
 .comment       0x0000000000000000       0x2b bin/blib.a(monojob.o)
 .note.GNU-stack
                0x0000000000000000        0x0 bin/blib.a(monojob.o)
 .text          0x0000000000000000        0x0 bin/blib.a(params.o)
 .data          0x0000000000000000        0x0 bin/blib.a(params.o)
 .bss           0x0000000000000000        0x0 bin/blib.a(params.o)
 .text.free_parameters
                0x0000000000000000       0x30 bin/blib.a(params.o)
 .text.create_parameters
                0x0000000000000000       0x70 bin/blib.a(params.o)
 .text.add_parameter
                0x0000000000000000       0x66 bin/blib.a(params.o)
 .comment       0x0000000000000000       0x2b bin/blib.a(params.o)
 .note.GNU-stack
                0x0000000000000000        0x0 bin/blib.a(params.o)
 .text          0x0000000000000000        0x0 bin/blib.a(pending.o)
 .data          0x0000000000000000        0x0 bin/blib.a(pending.o)
 .bss           0x0000000000000000        0x0 bin/blib.a(pending.o)
 .comment       0x0000000000000000       0x2b bin/blib.a(pending.o)
 .note.GNU-stack
                0x0000000000000000        0x0 bin/blib.a(pending.o)
 .text          0x0000000000000000        0x0 bin/blib.a(random.o)
 .data          0x0000000000000000        0x0 bin/blib.a(random.o)
 .bss           0x0000000000000000        0x0 bin/blib.a(random.o)
 .comment       0x0000000000000000       0x2b bin/blib.a(random.o)
 .note.GNU-stack
                0x0000000000000000        0x0 bin/blib.a(random.o)
 .text          0x0000000000000000        0x0 bin/blib.a(resolv.o)
 .data          0x0000000000000000        0x0 bin/blib.a(resolv.o)
 .bss           0x0000000000000000        0x0 bin/blib.a(resolv.o)
 .einfo         0x0000000000000000       0xa8 bin/blib.a(resolv.o)
 .comment       0x0000000000000000       0x2b bin/blib.a(resolv.o)
 .note.GNU-stack
                0x0000000000000000        0x0 bin/blib.a(resolv.o)
 .text          0x0000000000000000        0x0 bin/blib.a(aoe.o)
 .data          0x0000000000000000        0x0 bin/blib.a(aoe.o)
 .bss           0x0000000000000000        0x0 bin/blib.a(aoe.o)
 .einfo         0x0000000000000000      0x508 bin/blib.a(aoe.o)
 .comment       0x0000000000000000       0x2b bin/blib.a(aoe.o)
 .note.GNU-stack
                0x0000000000000000        0x0 bin/blib.a(aoe.o)
 .text          0x0000000000000000        0x0 bin/blib.a(dhcppkt.o)
 .data          0x0000000000000000        0x0 bin/blib.a(dhcppkt.o)
 .bss           0x0000000000000000        0x0 bin/blib.a(dhcppkt.o)
 .einfo         0x0000000000000000       0x40 bin/blib.a(dhcppkt.o)
 .comment       0x0000000000000000       0x2b bin/blib.a(dhcppkt.o)
 .note.GNU-stack
                0x0000000000000000        0x0 bin/blib.a(dhcppkt.o)
 .text          0x0000000000000000        0x0 bin/blib.a(fragment.o)
 .data          0x0000000000000000        0x0 bin/blib.a(fragment.o)
 .bss           0x0000000000000000        0x0 bin/blib.a(fragment.o)
 .comment       0x0000000000000000       0x2b bin/blib.a(fragment.o)
 .note.GNU-stack
                0x0000000000000000        0x0 bin/blib.a(fragment.o)
 .text          0x0000000000000000        0x0 bin/blib.a(icmpv4.o)
 .data          0x0000000000000000        0x0 bin/blib.a(icmpv4.o)
 .bss           0x0000000000000000        0x0 bin/blib.a(icmpv4.o)
 .einfo         0x0000000000000000       0x70 bin/blib.a(icmpv4.o)
 .comment       0x0000000000000000       0x2b bin/blib.a(icmpv4.o)
 .note.GNU-stack
                0x0000000000000000        0x0 bin/blib.a(icmpv4.o)
 .text          0x0000000000000000        0x0 bin/blib.a(socket.o)
 .data          0x0000000000000000        0x0 bin/blib.a(socket.o)
 .bss           0x0000000000000000        0x0 bin/blib.a(socket.o)
 .text.sock_ntoa
                0x0000000000000000       0x21 bin/blib.a(socket.o)
 .einfo         0x0000000000000000       0x38 bin/blib.a(socket.o)
 .comment       0x0000000000000000       0x2b bin/blib.a(socket.o)
 .note.GNU-stack
                0x0000000000000000        0x0 bin/blib.a(socket.o)
 .text          0x0000000000000000        0x0 bin/blib.a(tcp.o)
 .data          0x0000000000000000        0x0 bin/blib.a(tcp.o)
 .bss           0x0000000000000000        0x0 bin/blib.a(tcp.o)
 .einfo         0x0000000000000000      0x300 bin/blib.a(tcp.o)
 .comment       0x0000000000000000       0x2b bin/blib.a(tcp.o)
 .note.GNU-stack
                0x0000000000000000        0x0 bin/blib.a(tcp.o)
 .text          0x0000000000000000        0x0 bin/blib.a(ata.o)
 .data          0x0000000000000000        0x0 bin/blib.a(ata.o)
 .bss           0x0000000000000000        0x0 bin/blib.a(ata.o)
 .einfo         0x0000000000000000      0x110 bin/blib.a(ata.o)
 .comment       0x0000000000000000       0x2b bin/blib.a(ata.o)
 .note.GNU-stack
                0x0000000000000000        0x0 bin/blib.a(ata.o)
 .text          0x0000000000000000        0x0 bin/blib.a(smbios.o)
 .data          0x0000000000000000        0x0 bin/blib.a(smbios.o)
 .bss           0x0000000000000000        0x0 bin/blib.a(smbios.o)
 .einfo         0x0000000000000000      0x1a8 bin/blib.a(smbios.o)
 .comment       0x0000000000000000       0x2b bin/blib.a(smbios.o)
 .note.GNU-stack
                0x0000000000000000        0x0 bin/blib.a(smbios.o)
 .text          0x0000000000000000        0x0 bin/blib.a(editstring.o)
 .data          0x0000000000000000        0x0 bin/blib.a(editstring.o)
 .bss           0x0000000000000000        0x0 bin/blib.a(editstring.o)
 .comment       0x0000000000000000       0x2b bin/blib.a(editstring.o)
 .note.GNU-stack
                0x0000000000000000        0x0 bin/blib.a(editstring.o)
 .text          0x0000000000000000        0x0 bin/blib.a(readline.o)
 .data          0x0000000000000000        0x0 bin/blib.a(readline.o)
 .bss           0x0000000000000000        0x0 bin/blib.a(readline.o)
 .einfo         0x0000000000000000       0x70 bin/blib.a(readline.o)
 .text.readline
                0x0000000000000000       0x13 bin/blib.a(readline.o)
 .comment       0x0000000000000000       0x2b bin/blib.a(readline.o)
 .note.GNU-stack
                0x0000000000000000        0x0 bin/blib.a(readline.o)
 .text          0x0000000000000000        0x0 bin/blib.a(shell.o)
 .data          0x0000000000000000        0x0 bin/blib.a(shell.o)
 .bss           0x0000000000000000        0x0 bin/blib.a(shell.o)
 .comment       0x0000000000000000       0x2b bin/blib.a(shell.o)
 .note.GNU-stack
                0x0000000000000000        0x0 bin/blib.a(shell.o)
 .text          0x0000000000000000        0x0 bin/blib.a(ansi_screen.o)
 .data          0x0000000000000000        0x0 bin/blib.a(ansi_screen.o)
 .bss           0x0000000000000000        0x0 bin/blib.a(ansi_screen.o)
 .comment       0x0000000000000000       0x2b bin/blib.a(ansi_screen.o)
 .note.GNU-stack
                0x0000000000000000        0x0 bin/blib.a(ansi_screen.o)
 .text          0x0000000000000000        0x0 bin/blib.a(route_ipv4.o)
 .data          0x0000000000000000        0x0 bin/blib.a(route_ipv4.o)
 .bss           0x0000000000000000        0x0 bin/blib.a(route_ipv4.o)
 .comment       0x0000000000000000       0x2b bin/blib.a(route_ipv4.o)
 .note.GNU-stack
                0x0000000000000000        0x0 bin/blib.a(route_ipv4.o)
 .text          0x0000000000000000        0x0 bin/blib.a(hidemem.o)
 .data          0x0000000000000000        0x0 bin/blib.a(hidemem.o)
 .bss           0x0000000000000000        0x0 bin/blib.a(hidemem.o)
 .comment       0x0000000000000000       0x2b bin/blib.a(hidemem.o)
 .note.GNU-stack
                0x0000000000000000        0x0 bin/blib.a(hidemem.o)
 .text          0x0000000000000000        0x0 bin/blib.a(bootsector.o)
 .data          0x0000000000000000        0x0 bin/blib.a(bootsector.o)
 .bss           0x0000000000000000        0x0 bin/blib.a(bootsector.o)
 .einfo         0x0000000000000000       0x48 bin/blib.a(bootsector.o)
 .comment       0x0000000000000000       0x2b bin/blib.a(bootsector.o)
 .note.GNU-stack
                0x0000000000000000        0x0 bin/blib.a(bootsector.o)
 .text          0x0000000000000000        0x0 bin/blib.a(bios_smbios.o)
 .data          0x0000000000000000        0x0 bin/blib.a(bios_smbios.o)
 .bss           0x0000000000000000        0x0 bin/blib.a(bios_smbios.o)
 .comment       0x0000000000000000       0x2b bin/blib.a(bios_smbios.o)
 .note.GNU-stack
                0x0000000000000000        0x0 bin/blib.a(bios_smbios.o)
 .text          0x0000000000000000        0x0 bin/blib.a(e820mangler.o)
 .data          0x0000000000000000        0x0 bin/blib.a(e820mangler.o)
 .bss           0x0000000000000000        0x0 bin/blib.a(e820mangler.o)
 .note          0x0000000000000000       0x14 bin/blib.a(e820mangler.o)
 .text          0x0000000000000000        0x0 bin/blib.a(ansicol.o)
 .data          0x0000000000000000        0x0 bin/blib.a(ansicol.o)
 .bss           0x0000000000000000        0x0 bin/blib.a(ansicol.o)
 .text.ansicol_define_pair
                0x0000000000000000       0x1c bin/blib.a(ansicol.o)
 .einfo         0x0000000000000000       0x38 bin/blib.a(ansicol.o)
 .comment       0x0000000000000000       0x2b bin/blib.a(ansicol.o)
 .note.GNU-stack
                0x0000000000000000        0x0 bin/blib.a(ansicol.o)
 .text          0x0000000000000000        0x0 bin/blib.a(dhcpopts.o)
 .data          0x0000000000000000        0x0 bin/blib.a(dhcpopts.o)
 .bss           0x0000000000000000        0x0 bin/blib.a(dhcpopts.o)
 .einfo         0x0000000000000000      0x188 bin/blib.a(dhcpopts.o)
 .comment       0x0000000000000000       0x2b bin/blib.a(dhcpopts.o)
 .note.GNU-stack
                0x0000000000000000        0x0 bin/blib.a(dhcpopts.o)
 .text          0x0000000000000000        0x0 bin/blib.a(icmp.o)
 .data          0x0000000000000000        0x0 bin/blib.a(icmp.o)
 .bss           0x0000000000000000        0x0 bin/blib.a(icmp.o)
 .text.icmp_tx_echo_request
                0x0000000000000000       0x41 bin/blib.a(icmp.o)
 .einfo         0x0000000000000000       0x98 bin/blib.a(icmp.o)
 .comment       0x0000000000000000       0x2b bin/blib.a(icmp.o)
 .note.GNU-stack
                0x0000000000000000        0x0 bin/blib.a(icmp.o)
 .text          0x0000000000000000        0x0 bin/blib.a(patch_cf.o)
 .data          0x0000000000000000        0x0 bin/blib.a(patch_cf.o)
 .bss           0x0000000000000000        0x0 bin/blib.a(patch_cf.o)
 .note          0x0000000000000000       0x14 bin/blib.a(patch_cf.o)

Memory Configuration

Name             Origin             Length             Attributes
*default*        0x0000000000000000 0xffffffffffffffff

Linker script and memory map

                0x0000000000000010                PROVIDE (_max_align, 0x10)

.prefix         0x0000000000000000      0x84b
                0x0000000000000000                _prefix = .
 *(.prefix)
 .prefix        0x0000000000000000      0x496 bin/blib.a(mromprefix.o)
                0x0000000000000000                _mrom_start
                0x0000000000000083                undiheader
                0x000000000000036d                image_source
                0x0000000000000373                decompress_to
 *(.prefix.*)
 .prefix.lib    0x0000000000000496      0x2c4 bin/blib.a(libprefix.o)
                0x0000000000000496                print_character
                0x00000000000004b5                print_message
                0x00000000000004c2                print_hex_dword
                0x00000000000004cd                print_hex_word
                0x00000000000004d4                print_hex_byte
                0x00000000000004dd                print_hex_nibble
                0x00000000000004ea                print_pci_busdevfn
                0x000000000000050b                print_kill_line
                0x00000000000005f4                alloc_basemem
                0x0000000000000617                install
                0x0000000000000634                install_prealloc
 .prefix.data   0x000000000000075a       0x56 bin/blib.a(libprefix.o)
 .prefix.lib    0x00000000000007b0       0x9b bin/blib.a(unnrv2b16.o)
                0x00000000000007b0                decompress16
                0x000000000000084b                _mprefix = .

.bss.prefix     0x000000000000084b        0x0 load address 0x000000000001ad30
                0x000000000000084b                _eprefix = .
                0x000000000000084b                _prefix_filesz = (ABSOLUTE (_mprefix) - ABSOLUTE (_prefix))
                0x000000000000084b                _prefix_memsz = (ABSOLUTE (_eprefix) - ABSOLUTE (_prefix))

.text16.early   0x0000000000000000      0x2ac load address 0x0000000000000850
                0x0000000000000000                _text16 = .
 *(.text16.null)
 .text16.null   0x0000000000000000        0x3 bin/blib.a(pxe_entry.o)
 *(.text16.null.*)
                0x0000000000000004                . = (. + 0x1)
 *fill*         0x0000000000000003        0x1 00
 *(.text16.early)
 .text16.early  0x0000000000000004      0x1b0 bin/blib.a(mromprefix.o)
                0x0000000000000004                open_payload
                0x0000000000000109                close_payload
 .text16.early  0x00000000000001b4       0xe5 bin/blib.a(liba20.o)
                0x000000000000024b                enable_a20
                0x0000000000000295                access_highmem
 *(.text16.early.*)
 .text16.early.data
                0x0000000000000299       0x10 bin/blib.a(mromprefix.o)
 *fill*         0x00000000000002a9        0x1 00
 .text16.early.data
                0x00000000000002aa        0x2 bin/blib.a(liba20.o)
                0x00000000000002ac                _etext16_early = .

.text16.late    0x00000000000002b0      0x6ac load address 0x0000000000000c40
                0x00000000000002b0                _text16_late = .
 *(.text16)
 .text16        0x00000000000002b0       0x3a bin/blib.a(bios_console.o)
 .text16        0x00000000000002ea       0x11 bin/blib.a(bzimage.o)
 .text16        0x00000000000002fb       0x11 bin/blib.a(pxe_call.o)
 .text16        0x000000000000030c      0x17f bin/blib.a(librm.o)
                0x000000000000030c                init_librm
                0x00000000000003fa                rm_cs
                0x000000000000040f                prot_call
                0x0000000000000469                flatten_real_mode
 .text16        0x000000000000048b       0x34 bin/blib.a(libprefix.o)
                0x000000000000048b                free_basemem
                0x00000000000004bb                uninstall
 .text16        0x00000000000004bf       0x2b bin/blib.a(mromprefix.o)
 .text16        0x00000000000004ea       0x65 bin/blib.a(pxe_entry.o)
                0x0000000000000521                pxe_int_1a
 .text16        0x000000000000054f        0x7 bin/blib.a(librm_mgmt.o)
 .text16        0x0000000000000556       0x13 bin/blib.a(memmap.o)
 .text16        0x0000000000000569        0x6 bin/blib.a(bios_reboot.o)
 .text16        0x000000000000056f       0x6a bin/blib.a(int13.o)
 .text16        0x00000000000005d9       0x1e bin/blib.a(pcibios.o)
 .text16        0x00000000000005f7       0x55 bin/blib.a(bootsector.o)
 .text16        0x000000000000064c      0x25d bin/blib.a(e820mangler.o)
                0x0000000000000881                int15
 .text16        0x00000000000008a9        0x9 bin/blib.a(patch_cf.o)
                0x00000000000008a9                patch_cf
 *(.text16.*)
 .text16.data   0x00000000000008b2        0x8 bin/blib.a(librm.o)
                0x00000000000008b2                rm_ds
 .text16.data   0x00000000000008ba        0x2 bin/blib.a(libprefix.o)
                0x00000000000008ba                hooked_bios_interrupts
 *fill*         0x00000000000008bc        0x4 00
 .text16.data   0x00000000000008c0       0x90 bin/blib.a(pxe_entry.o)
                0x00000000000008c0                ppxe
                0x0000000000000920                pxenv
                0x000000000000094c                pxe_int_1a_vector
 .text16.data   0x0000000000000950        0x8 bin/blib.a(int13.o)
 .text16.data   0x0000000000000958        0x4 bin/blib.a(e820mangler.o)
                0x0000000000000958                int15_vector
                0x000000000000095c                _mtext16 = .

.bss.text16     0x000000000000095c        0x0 load address 0x000000000001ad30
                0x000000000000095c                _etext16 = .
                0x00000000000002ac                _text16_early_filesz = (ABSOLUTE (_etext16_early) - ABSOLUTE (_text16))
                0x00000000000002ac                _text16_early_memsz = (ABSOLUTE (_etext16_early) - ABSOLUTE (_text16))
                0x00000000000006ac                _text16_late_filesz = (ABSOLUTE (_mtext16) - ABSOLUTE (_text16_late))
                0x00000000000006ac                _text16_late_memsz = (ABSOLUTE (_etext16) - ABSOLUTE (_text16_late))
                0x000000000000095c                _text16_memsz = (ABSOLUTE (_etext16) - ABSOLUTE (_text16))

.data16         0x0000000000000000       0xc2 load address 0x00000000000012f0
                0x0000000000000000                _data16 = .
                0x0000000000000001                . = (. + 0x1)
 *fill*         0x0000000000000000        0x1 00
 *(.rodata16)
 *(.rodata16.*)
 *(.data16)
 *fill*         0x0000000000000001        0xf 00
 .data16        0x0000000000000010       0x48 bin/blib.a(librm.o)
 .data16        0x0000000000000058        0xc bin/blib.a(libprefix.o)
 .data16        0x0000000000000064       0x14 bin/blib.a(int13.o)
 *fill*         0x0000000000000078        0x8 00
 .data16        0x0000000000000080       0x42 bin/blib.a(e820mangler.o)
                0x0000000000000088                hidemem_base
                0x0000000000000098                hidemem_umalloc
                0x00000000000000a8                hidemem_textdata
 *(.data16.*)
                0x00000000000000c2                _mdata16 = .

.bss.data16     0x00000000000000d0     0x2bf8 load address 0x000000000001ad30
 *(.bss16)
 .bss16         0x00000000000000d0      0x3b8 bin/blib.a(multiboot.o)
 .bss16         0x0000000000000488      0xec4 bin/blib.a(pxe_preboot.o)
 .bss16         0x000000000000134c      0x5ea bin/blib.a(basemem_packet.o)
                0x000000000000134c                basemem_packet
 .bss16         0x0000000000001936        0x2 bin/blib.a(pci_autoboot.o)
                0x0000000000001936                autoboot_busdevfn
 .bss16         0x0000000000001938       0x1c bin/blib.a(memmap.o)
                0x0000000000001938                memmap_post
 *fill*         0x0000000000001954        0xc 00
 .bss16         0x0000000000001960      0x320 bin/blib.a(int13.o)
 .bss16         0x0000000000001c80       0x48 bin/blib.a(e820mangler.o)
 *(.bss16.*)
 *(.stack16)
 .stack16       0x0000000000001cc8     0x1000 bin/blib.a(stack16.o)
                0x0000000000001cc8                _stack16
                0x0000000000002cc8                _estack16
 *(.stack16.*)
                0x0000000000002cc8                _edata16 = .
                0x00000000000000c2                _data16_filesz = (ABSOLUTE (_mdata16) - ABSOLUTE (_data16))
                0x0000000000002cc8                _data16_memsz = (ABSOLUTE (_edata16) - ABSOLUTE (_data16))

.textdata       0x0000000000000000    0x19874 load address 0x00000000000013c0
                0x0000000000000000                _textdata = .
 *(.text.null_trap)
 *(.text.null_trap.*)
                0x0000000000000001                . = (. + 0x1)
 *fill*         0x0000000000000000        0x1 00
 *(.text)
 *fill*         0x0000000000000001        0x3 00
 .text          0x0000000000000004       0x45 bin/blib.a(setjmp.o)
                0x0000000000000004                setjmp
                0x0000000000000022                longjmp
 *fill*         0x0000000000000049        0x3 00
 .text          0x000000000000004c       0x7d bin/blib.a(virtaddr.o)
                0x000000000000004c                _virt_to_phys
                0x0000000000000079                _phys_to_virt
                0x00000000000000a3                _intr_to_virt
 *fill*         0x00000000000000c9        0x3 00
 .text          0x00000000000000cc       0xe9 bin/blib.a(librm.o)
                0x000000000000017a                real_call
                0x0000000000000193                interrupt_wrapper
 *(.text.*)
 .text.intel_write_eeprom
                0x00000000000001b5        0x8 bin/blib.a(intel.o)
 .text.intel_irq
                0x00000000000001bd       0x22 bin/blib.a(intel.o)
 .text.intel_check_link
                0x00000000000001df       0x1c bin/blib.a(intel.o)
 .text.intel_transmit
                0x00000000000001fb       0x69 bin/blib.a(intel.o)
                0x00000000000001fb                intel_transmit
 .text.intel_reset.isra.11
                0x0000000000000264       0x88 bin/blib.a(intel.o)
 .text.intel_remove
                0x00000000000002ec       0x29 bin/blib.a(intel.o)
 .text.intel_probe
                0x0000000000000315      0x18b bin/blib.a(intel.o)
 .text.intel_read_eeprom
                0x00000000000004a0       0x49 bin/blib.a(intel.o)
 .text.intel_create_ring
                0x00000000000004e9       0x83 bin/blib.a(intel.o)
                0x00000000000004e9                intel_create_ring
 .text.intel_destroy_ring
                0x000000000000056c       0x4a bin/blib.a(intel.o)
                0x000000000000056c                intel_destroy_ring
 .text.intel_refill_rx
                0x00000000000005b6       0x78 bin/blib.a(intel.o)
                0x00000000000005b6                intel_refill_rx
 .text.intel_open
                0x000000000000062e       0xb8 bin/blib.a(intel.o)
 .text.intel_empty_rx
                0x00000000000006e6       0x24 bin/blib.a(intel.o)
                0x00000000000006e6                intel_empty_rx
 .text.intel_close
                0x000000000000070a       0x40 bin/blib.a(intel.o)
 .text.intel_poll_tx
                0x000000000000074a       0x32 bin/blib.a(intel.o)
                0x000000000000074a                intel_poll_tx
 .text.intel_poll_rx
                0x000000000000077c       0x5e bin/blib.a(intel.o)
                0x000000000000077c                intel_poll_rx
 .text.intel_poll
                0x00000000000007da       0x5f bin/blib.a(intel.o)
 .text.nvs_read
                0x0000000000000839       0x59 bin/blib.a(nvs.o)
                0x0000000000000839                nvs_read
 .text.bios_handle_cup
                0x0000000000000892       0x38 bin/blib.a(bios_console.o)
 .text.bios_handle_ed
                0x00000000000008ca       0x32 bin/blib.a(bios_console.o)
 .text.bios_handle_sgr
                0x00000000000008fc       0x68 bin/blib.a(bios_console.o)
 .text.bios_putchar
                0x0000000000000964       0x26 bin/blib.a(bios_console.o)
 .text.bios_iskey
                0x000000000000098a       0x2a bin/blib.a(bios_console.o)
 .text.bios_getchar
                0x00000000000009b4       0x8f bin/blib.a(bios_console.o)
 .text.bzimage_load_initrd
                0x0000000000000a43      0x154 bin/blib.a(bzimage.o)
 .text.bzimage_parse_header.isra.0
                0x0000000000000b97      0x13b bin/blib.a(bzimage.o)
 .text.bzimage_probe
                0x0000000000000cd2       0x1a bin/blib.a(bzimage.o)
                0x0000000000000cd2                bzimage_probe
 .text.bzimage_exec
                0x0000000000000cec      0x444 bin/blib.a(bzimage.o)
 .text.elfboot_exec
                0x0000000000001130       0x39 bin/blib.a(elfboot.o)
 .text.elfboot_probe
                0x0000000000001169       0x34 bin/blib.a(elfboot.o)
 .text.initrd_startup
                0x000000000000119d       0x16 bin/blib.a(initrd.o)
 .text.initrd_reshuffle
                0x00000000000011b3      0x175 bin/blib.a(initrd.o)
                0x00000000000011b3                initrd_reshuffle
 .text.initrd_reshuffle_check
                0x0000000000001328       0x30 bin/blib.a(initrd.o)
                0x0000000000001328                initrd_reshuffle_check
 .text.multiboot_add_cmdline
                0x0000000000001358       0x84 bin/blib.a(multiboot.o)
 .text.multiboot_find_header
                0x00000000000013dc       0x79 bin/blib.a(multiboot.o)
 .text.multiboot_probe
                0x0000000000001455        0xe bin/blib.a(multiboot.o)
 .text.multiboot_exec
                0x0000000000001463      0x325 bin/blib.a(multiboot.o)
 .text.pxe_exec
                0x0000000000001788       0x86 bin/blib.a(pxe_image.o)
 .text.pxe_probe
                0x000000000000180e       0x1d bin/blib.a(pxe_image.o)
                0x000000000000180e                pxe_probe
 .text.pxenv_unknown
                0x000000000000182b        0xb bin/blib.a(pxe_call.o)
 .text.pxe_init_structures
                0x0000000000001836       0xe1 bin/blib.a(pxe_call.o)
 .text.pxe_api_call
                0x0000000000001917       0x87 bin/blib.a(pxe_call.o)
                0x0000000000001917                pxe_api_call
 .text.pxe_activate
                0x000000000000199e       0x3f bin/blib.a(pxe_call.o)
                0x000000000000199e                pxe_activate
 .text.pxe_deactivate
                0x00000000000019dd       0x3f bin/blib.a(pxe_call.o)
                0x00000000000019dd                pxe_deactivate
 .text.pxe_start_nbp
                0x0000000000001a1c       0x75 bin/blib.a(pxe_call.o)
                0x0000000000001a1c                pxe_start_nbp
 .text.pxenv_file_cmdline
                0x0000000000001a91       0x5c bin/blib.a(pxe_file.o)
 .text.pxenv_file_exec
                0x0000000000001aed       0x72 bin/blib.a(pxe_file.o)
 .text.pxenv_get_file_size
                0x0000000000001b5f       0x2c bin/blib.a(pxe_file.o)
 .text.pxenv_file_read
                0x0000000000001b8b       0x47 bin/blib.a(pxe_file.o)
 .text.pxenv_file_select
                0x0000000000001bd2       0x44 bin/blib.a(pxe_file.o)
 .text.pxenv_file_close
                0x0000000000001c16       0x15 bin/blib.a(pxe_file.o)
 .text.pxenv_file_open
                0x0000000000001c2b       0x72 bin/blib.a(pxe_file.o)
 .text.pxenv_file_api_check
                0x0000000000001c9d       0x7d bin/blib.a(pxe_file.o)
 .text.pxenv_unload_stack
                0x0000000000001d1a        0x8 bin/blib.a(pxe_preboot.o)
 .text.pxenv_start_base
                0x0000000000001d22        0xb bin/blib.a(pxe_preboot.o)
 .text.pxenv_stop_base
                0x0000000000001d2d        0x8 bin/blib.a(pxe_preboot.o)
 .text.pxenv_stop_undi
                0x0000000000001d35       0x36 bin/blib.a(pxe_preboot.o)
 .text.pxenv_start_undi
                0x0000000000001d6b       0x69 bin/blib.a(pxe_preboot.o)
 .text.pxenv_get_cached_info
                0x0000000000001dd4       0xbf bin/blib.a(pxe_preboot.o)
 .text.pxenv_restart_tftp
                0x0000000000001e93       0x42 bin/blib.a(pxe_preboot.o)
 .text.pxe_tftp_xfer_window
                0x0000000000001ed5        0x4 bin/blib.a(pxe_tftp.o)
 .text.pxenv_tftp_read
                0x0000000000001ed9       0x9d bin/blib.a(pxe_tftp.o)
 .text.pxe_tftp_open
                0x0000000000001f76       0xca bin/blib.a(pxe_tftp.o)
 .text.pxe_tftp_close
                0x0000000000002040       0x11 bin/blib.a(pxe_tftp.o)
 .text.pxe_tftp_xfer_deliver
                0x0000000000002051       0x8d bin/blib.a(pxe_tftp.o)
 .text.pxenv_tftp_close
                0x00000000000020de       0x18 bin/blib.a(pxe_tftp.o)
 .text.pxenv_tftp_get_fsize
                0x00000000000020f6       0x82 bin/blib.a(pxe_tftp.o)
 .text.pxenv_tftp_open
                0x0000000000002178       0x98 bin/blib.a(pxe_tftp.o)
 .text.pxenv_tftp_read_file
                0x0000000000002210       0x93 bin/blib.a(pxe_tftp.o)
                0x0000000000002210                pxenv_tftp_read_file
 .text.pxenv_udp_read
                0x00000000000022a3       0x5b bin/blib.a(pxe_udp.o)
 .text.pxe_udp_deliver
                0x00000000000022fe       0x87 bin/blib.a(pxe_udp.o)
 .text.pxenv_udp_write
                0x0000000000002385       0xd5 bin/blib.a(pxe_udp.o)
 .text.pxenv_udp_close
                0x000000000000245a       0x18 bin/blib.a(pxe_udp.o)
 .text.pxenv_udp_open
                0x0000000000002472       0x3e bin/blib.a(pxe_udp.o)
 .text.pxenv_undi_startup
                0x00000000000024b0       0x1c bin/blib.a(pxe_undi.o)
 .text.pxenv_undi_initialize
                0x00000000000024cc       0x1c bin/blib.a(pxe_undi.o)
 .text.pxenv_undi_set_mcast_address
                0x00000000000024e8       0x1c bin/blib.a(pxe_undi.o)
 .text.pxenv_undi_set_packet_filter
                0x0000000000002504       0x1c bin/blib.a(pxe_undi.o)
 .text.pxenv_undi_get_statistics
                0x0000000000002520       0x38 bin/blib.a(pxe_undi.o)
 .text.pxenv_undi_clear_statistics
                0x0000000000002558       0x40 bin/blib.a(pxe_undi.o)
 .text.pxenv_undi_initiate_diags
                0x0000000000002598       0x1b bin/blib.a(pxe_undi.o)
 .text.pxenv_undi_force_interrupt
                0x00000000000025b3       0x1b bin/blib.a(pxe_undi.o)
 .text.pxenv_undi_get_mcast_address
                0x00000000000025ce       0x4c bin/blib.a(pxe_undi.o)
 .text.pxenv_undi_get_nic_type
                0x000000000000261a       0x95 bin/blib.a(pxe_undi.o)
 .text.pxenv_undi_get_information
                0x00000000000026af       0x86 bin/blib.a(pxe_undi.o)
 .text.pxenv_undi_set_station_address
                0x0000000000002735       0x42 bin/blib.a(pxe_undi.o)
 .text.pxenv_undi_isr
                0x0000000000002777      0x1bc bin/blib.a(pxe_undi.o)
 .text.pxenv_undi_get_iface_info
                0x0000000000002933       0x63 bin/blib.a(pxe_undi.o)
 .text.pxenv_undi_transmit
                0x0000000000002996      0x1f0 bin/blib.a(pxe_undi.o)
 .text.pxe_netdev_close
                0x0000000000002b86       0x2b bin/blib.a(pxe_undi.o)
 .text.pxenv_undi_close
                0x0000000000002bb1       0x26 bin/blib.a(pxe_undi.o)
 .text.pxenv_undi_shutdown
                0x0000000000002bd7       0x26 bin/blib.a(pxe_undi.o)
 .text.pxenv_undi_cleanup
                0x0000000000002bfd       0x26 bin/blib.a(pxe_undi.o)
 .text.pxe_netdev_open
                0x0000000000002c23       0x2e bin/blib.a(pxe_undi.o)
 .text.pxenv_undi_open
                0x0000000000002c51       0x35 bin/blib.a(pxe_undi.o)
 .text.pxenv_undi_reset_adapter
                0x0000000000002c86       0x3a bin/blib.a(pxe_undi.o)
 .text.pxe_set_netdev
                0x0000000000002cc0       0x38 bin/blib.a(pxe_undi.o)
                0x0000000000002cc0                pxe_set_netdev
 .text.__memcpy
                0x0000000000002cf8       0x1d bin/blib.a(x86_string.o)
                0x0000000000002cf8                __memcpy
 .text.__memcpy_reverse
                0x0000000000002d15       0x11 bin/blib.a(x86_string.o)
                0x0000000000002d15                __memcpy_reverse
 .text.__memmove
                0x0000000000002d26        0xe bin/blib.a(x86_string.o)
                0x0000000000002d26                __memmove
 .text.memswap  0x0000000000002d34       0x11 bin/blib.a(x86_string.o)
                0x0000000000002d34                memswap
 .text.strlen   0x0000000000002d45       0x11 bin/blib.a(x86_string.o)
                0x0000000000002d45                strlen
 .text.strncmp  0x0000000000002d56       0x1c bin/blib.a(x86_string.o)
                0x0000000000002d56                strncmp
 .text.cpuid_exec
                0x0000000000002d72       0x6d bin/blib.a(cpuid_cmd.o)
 .text.ansiesc_process
                0x0000000000002ddf       0xc9 bin/blib.a(ansiesc.o)
                0x0000000000002ddf                ansiesc_process
 .text.has_input
                0x0000000000002ea8       0x2b bin/blib.a(console.o)
 .text.putchar  0x0000000000002ed3       0x43 bin/blib.a(console.o)
                0x0000000000002ed3                putchar
 .text.getchar  0x0000000000002f16       0x2b bin/blib.a(console.o)
                0x0000000000002f16                getchar
 .text.iskey    0x0000000000002f41        0xe bin/blib.a(console.o)
                0x0000000000002f41                iskey
 .text.console_configure
                0x0000000000002f4f       0x51 bin/blib.a(console.o)
                0x0000000000002f4f                console_configure
 .text.cpio_set_field
                0x0000000000002fa0       0x2a bin/blib.a(cpio.o)
                0x0000000000002fa0                cpio_set_field
 .text.probe_devices
                0x0000000000002fca       0x52 bin/blib.a(device.o)
 .text.identify_device
                0x000000000000301c       0x31 bin/blib.a(device.o)
                0x000000000000301c                identify_device
 .text.remove_devices
                0x000000000000304d       0x40 bin/blib.a(device.o)
 .text.process_on_success
                0x000000000000308d        0x9 bin/blib.a(exec.o)
 .text.process_on_failure
                0x0000000000003096        0x9 bin/blib.a(exec.o)
 .text.process_always
                0x000000000000309f        0x6 bin/blib.a(exec.o)
 .text.exit_exec
                0x00000000000030a5       0x4f bin/blib.a(exec.o)
 .text.split_command
                0x00000000000030f4       0x49 bin/blib.a(exec.o)
 .text.isset_exec
                0x000000000000313d       0x2f bin/blib.a(exec.o)
 .text.sleep_exec
                0x000000000000316c       0x79 bin/blib.a(exec.o)
 .text.iseq_exec
                0x00000000000031e5       0x3c bin/blib.a(exec.o)
 .text.execv    0x0000000000003221       0x8f bin/blib.a(exec.o)
                0x0000000000003221                execv
 .text.shell_stop
                0x00000000000032b0        0x6 bin/blib.a(exec.o)
                0x00000000000032b0                shell_stop
 .text.shell_stopped
                0x00000000000032b6       0x1c bin/blib.a(exec.o)
                0x00000000000032b6                shell_stopped
 .text.system   0x00000000000032d2      0x192 bin/blib.a(exec.o)
                0x00000000000032d2                system
 .text.concat_args
                0x0000000000003464       0x66 bin/blib.a(exec.o)
                0x0000000000003464                concat_args
 .text.echo_exec
                0x00000000000034ca       0x61 bin/blib.a(exec.o)
 .text.get_argv_argument
                0x000000000000352b       0x24 bin/blib.a(getopt.o)
 .text.getopt_long
                0x000000000000354f      0x223 bin/blib.a(getopt.o)
                0x000000000000354f                getopt_long
 .text.free_image
                0x0000000000003772       0x35 bin/blib.a(image.o)
 .text.image_set_name
                0x00000000000037a7       0x28 bin/blib.a(image.o)
                0x00000000000037a7                image_set_name
 .text.alloc_image
                0x00000000000037cf       0x50 bin/blib.a(image.o)
                0x00000000000037cf                alloc_image
 .text.image_set_cmdline
                0x000000000000381f       0x35 bin/blib.a(image.o)
                0x000000000000381f                image_set_cmdline
 .text.unregister_image
                0x0000000000003854       0x22 bin/blib.a(image.o)
                0x0000000000003854                unregister_image
 .text.find_image
                0x0000000000003876       0x2f bin/blib.a(image.o)
                0x0000000000003876                find_image
 .text.image_probe
                0x00000000000038a5       0x34 bin/blib.a(image.o)
                0x00000000000038a5                image_probe
 .text.image_replace
                0x00000000000038d9       0x39 bin/blib.a(image.o)
                0x00000000000038d9                image_replace
 .text.image_select
                0x0000000000003912       0x3c bin/blib.a(image.o)
                0x0000000000003912                image_select
 .text.image_exec
                0x000000000000394e       0xa1 bin/blib.a(image.o)
                0x000000000000394e                image_exec
 .text.image_find_selected
                0x00000000000039ef       0x1d bin/blib.a(image.o)
                0x00000000000039ef                image_find_selected
 .text.register_image
                0x0000000000003a0c       0x6a bin/blib.a(image.o)
                0x0000000000003a0c                register_image
 .text.initialise
                0x0000000000003a76       0x17 bin/blib.a(init.o)
                0x0000000000003a76                initialise
 .text.startup  0x0000000000003a8d       0x30 bin/blib.a(init.o)
                0x0000000000003a8d                startup
 .text.shutdown
                0x0000000000003abd       0x3e bin/blib.a(init.o)
                0x0000000000003abd                shutdown
 .text.null_intf_close
                0x0000000000003afb        0x1 bin/blib.a(interface.o)
 .text.intf_plug
                0x0000000000003afc       0x1d bin/blib.a(interface.o)
                0x0000000000003afc                intf_plug
 .text.intf_plug_plug
                0x0000000000003b19       0x16 bin/blib.a(interface.o)
                0x0000000000003b19                intf_plug_plug
 .text.intf_unplug
                0x0000000000003b2f        0xa bin/blib.a(interface.o)
                0x0000000000003b2f                intf_unplug
 .text.intf_nullify
                0x0000000000003b39        0x8 bin/blib.a(interface.o)
                0x0000000000003b39                intf_nullify
 .text.intf_put
                0x0000000000003b41        0x8 bin/blib.a(interface.o)
                0x0000000000003b41                intf_put
 .text.intf_object
                0x0000000000003b49        0x6 bin/blib.a(interface.o)
                0x0000000000003b49                intf_object
 .text.intf_get_dest_op_no_passthru_untyped
                0x0000000000003b4f       0x35 bin/blib.a(interface.o)
                0x0000000000003b4f                intf_get_dest_op_no_passthru_untyped
 .text.intf_get_dest_op_untyped
                0x0000000000003b84       0x34 bin/blib.a(interface.o)
                0x0000000000003b84                intf_get_dest_op_untyped
 .text.intf_restart
                0x0000000000003bb8       0x12 bin/blib.a(interface.o)
                0x0000000000003bb8                intf_restart
 .text.intf_close
                0x0000000000003bca       0x3b bin/blib.a(interface.o)
                0x0000000000003bca                intf_close
 .text.intf_shutdown
                0x0000000000003c05       0x17 bin/blib.a(interface.o)
                0x0000000000003c05                intf_shutdown
 .text.alloc_iob_raw
                0x0000000000003c1c       0x78 bin/blib.a(iobuf.o)
                0x0000000000003c1c                alloc_iob_raw
 .text.alloc_iob
                0x0000000000003c94       0x13 bin/blib.a(iobuf.o)
                0x0000000000003c94                alloc_iob
 .text.free_iob
                0x0000000000003ca7       0x2d bin/blib.a(iobuf.o)
                0x0000000000003ca7                free_iob
 .text.iob_ensure_headroom
                0x0000000000003cd4       0x12 bin/blib.a(iobuf.o)
                0x0000000000003cd4                iob_ensure_headroom
 .text.extern_list_add
                0x0000000000003ce6        0xd bin/blib.a(list.o)
                0x0000000000003ce6                extern_list_add
 .text.extern_list_add_tail
                0x0000000000003cf3        0xe bin/blib.a(list.o)
                0x0000000000003cf3                extern_list_add_tail
 .text.startup.main
                0x0000000000003d01       0x37 bin/blib.a(main.o)
                0x0000000000003d01                main
 .text.discard_cache
                0x0000000000003d38       0x1d bin/blib.a(malloc.o)
 .text.shutdown_cache
                0x0000000000003d55        0xa bin/blib.a(malloc.o)
 .text.alloc_memblock
                0x0000000000003d5f       0x8b bin/blib.a(malloc.o)
                0x0000000000003d5f                alloc_memblock
 .text.free_memblock
                0x0000000000003dea       0x98 bin/blib.a(malloc.o)
                0x0000000000003dea                free_memblock
 .text.realloc  0x0000000000003e82       0x5b bin/blib.a(malloc.o)
                0x0000000000003e82                realloc
 .text.malloc   0x0000000000003edd        0x9 bin/blib.a(malloc.o)
                0x0000000000003edd                malloc
 .text.free     0x0000000000003ee6        0x7 bin/blib.a(malloc.o)
                0x0000000000003ee6                free
 .text.zalloc   0x0000000000003eed       0x1c bin/blib.a(malloc.o)
                0x0000000000003eed                zalloc
 .text.mpopulate
                0x0000000000003f09        0x8 bin/blib.a(malloc.o)
                0x0000000000003f09                mpopulate
 .text.init_heap
                0x0000000000003f11        0xf bin/blib.a(malloc.o)
 .text.largest_memblock
                0x0000000000003f20       0x6e bin/blib.a(memblock.o)
                0x0000000000003f20                largest_memblock
 .text.strtoul_charval
                0x0000000000003f8e       0x1b bin/blib.a(misc.o)
                0x0000000000003f8e                strtoul_charval
 .text.strtoul  0x0000000000003fa9       0x7a bin/blib.a(misc.o)
                0x0000000000003fa9                strtoul
 .text.inet_aton
                0x0000000000004023       0x63 bin/blib.a(misc.o)
                0x0000000000004023                inet_aton
 .text.xfer_uri_opener
                0x0000000000004086       0x2a bin/blib.a(open.o)
                0x0000000000004086                xfer_uri_opener
 .text.xfer_open_uri
                0x00000000000040b0       0x45 bin/blib.a(open.o)
                0x00000000000040b0                xfer_open_uri
 .text.xfer_open_uri_string
                0x00000000000040f5       0x2f bin/blib.a(open.o)
                0x00000000000040f5                xfer_open_uri_string
 .text.xfer_open_socket
                0x0000000000004124       0x37 bin/blib.a(open.o)
                0x0000000000004124                xfer_open_socket
 .text.xfer_vopen
                0x000000000000415b       0x38 bin/blib.a(open.o)
                0x000000000000415b                xfer_vopen
 .text.xfer_vreopen
                0x0000000000004193       0x20 bin/blib.a(open.o)
                0x0000000000004193                xfer_vreopen
 .text.parse_string
                0x00000000000041b3        0x5 bin/blib.a(parseopt.o)
                0x00000000000041b3                parse_string
 .text.parse_integer
                0x00000000000041b8       0x32 bin/blib.a(parseopt.o)
                0x00000000000041b8                parse_integer
 .text.parse_timeout
                0x00000000000041ea       0x27 bin/blib.a(parseopt.o)
                0x00000000000041ea                parse_timeout
 .text.parse_netdev
                0x0000000000004211       0x2a bin/blib.a(parseopt.o)
                0x0000000000004211                parse_netdev
 .text.parse_netdev_configurator
                0x000000000000423b       0x2a bin/blib.a(parseopt.o)
                0x000000000000423b                parse_netdev_configurator
 .text.parse_menu
                0x0000000000004265       0x3b bin/blib.a(parseopt.o)
                0x0000000000004265                parse_menu
 .text.parse_flag
                0x00000000000042a0        0x9 bin/blib.a(parseopt.o)
                0x00000000000042a0                parse_flag
 .text.parse_key
                0x00000000000042a9       0x19 bin/blib.a(parseopt.o)
                0x00000000000042a9                parse_key
 .text.parse_settings
                0x00000000000042c2       0x2a bin/blib.a(parseopt.o)
                0x00000000000042c2                parse_settings
 .text.parse_setting
                0x00000000000042ec       0x2d bin/blib.a(parseopt.o)
                0x00000000000042ec                parse_setting
 .text.parse_existing_setting
                0x0000000000004319        0xa bin/blib.a(parseopt.o)
                0x0000000000004319                parse_existing_setting
 .text.parse_autovivified_setting
                0x0000000000004323        0xa bin/blib.a(parseopt.o)
                0x0000000000004323                parse_autovivified_setting
 .text.print_usage
                0x000000000000432d       0xab bin/blib.a(parseopt.o)
                0x000000000000432d                print_usage
 .text.reparse_options
                0x00000000000043d8      0x19f bin/blib.a(parseopt.o)
                0x00000000000043d8                reparse_options
 .text.parse_options
                0x0000000000004577       0x2b bin/blib.a(parseopt.o)
                0x0000000000004577                parse_options
 .text.posix_fd_to_file
                0x00000000000045a2       0x20 bin/blib.a(posix_io.o)
 .text.posix_file_finished
                0x00000000000045c2       0x14 bin/blib.a(posix_io.o)
 .text.posix_file_xfer_deliver
                0x00000000000045d6       0x3d bin/blib.a(posix_io.o)
 .text.posix_file_free
                0x0000000000004613       0x30 bin/blib.a(posix_io.o)
 .text.open     0x0000000000004643       0xb9 bin/blib.a(posix_io.o)
                0x0000000000004643                open
 .text.select   0x00000000000046fc       0x66 bin/blib.a(posix_io.o)
                0x00000000000046fc                select
 .text.read_user
                0x0000000000004762       0x8a bin/blib.a(posix_io.o)
                0x0000000000004762                read_user
 .text.fsize    0x00000000000047ec       0x13 bin/blib.a(posix_io.o)
                0x00000000000047ec                fsize
 .text.close    0x00000000000047ff       0x30 bin/blib.a(posix_io.o)
                0x00000000000047ff                close
 .text.process_add
                0x000000000000482f       0x1e bin/blib.a(process.o)
                0x000000000000482f                process_add
 .text.init_processes
                0x000000000000484d       0x1c bin/blib.a(process.o)
 .text.process_del
                0x0000000000004869       0x1c bin/blib.a(process.o)
                0x0000000000004869                process_del
 .text.step     0x0000000000004885       0x5d bin/blib.a(process.o)
                0x0000000000004885                step
 .text.ref_increment
                0x00000000000048e2        0x7 bin/blib.a(refcnt.o)
                0x00000000000048e2                ref_increment
 .text.ref_decrement
                0x00000000000048e9       0x1c bin/blib.a(refcnt.o)
                0x00000000000048e9                ref_decrement
 .text.ref_no_free
                0x0000000000004905        0x1 bin/blib.a(refcnt.o)
                0x0000000000004905                ref_no_free
 .text.apply_settings
                0x0000000000004906       0x1d bin/blib.a(settings.o)
 .text.parse_ipv6_setting
                0x0000000000004923        0x8 bin/blib.a(settings.o)
                0x0000000000004923                parse_ipv6_setting
 .text.format_ipv6_setting
                0x000000000000492b        0x8 bin/blib.a(settings.o)
                0x000000000000492b                format_ipv6_setting
 .text.builtin_applies
                0x0000000000004933        0xd bin/blib.a(settings.o)
 .text.platform_fetch
                0x0000000000004940       0x12 bin/blib.a(settings.o)
 .text.buildarch_fetch
                0x0000000000004952       0x12 bin/blib.a(settings.o)
 .text.version_fetch
                0x0000000000004964       0x16 bin/blib.a(settings.o)
 .text.format_string_setting
                0x000000000000497a       0x2e bin/blib.a(settings.o)
 .text.parse_string_setting
                0x00000000000049a8       0x31 bin/blib.a(settings.o)
 .text.errno_fetch
                0x00000000000049d9       0x28 bin/blib.a(settings.o)
 .text.denumerate_int_setting
                0x0000000000004a01       0x3f bin/blib.a(settings.o)
 .text.format_uint_setting
                0x0000000000004a40       0x2e bin/blib.a(settings.o)
 .text.format_int_setting
                0x0000000000004a6e       0x2e bin/blib.a(settings.o)
 .text.format_hex_setting
                0x0000000000004a9c       0x68 bin/blib.a(settings.o)
 .text.format_hex_raw_setting
                0x0000000000004b04        0xa bin/blib.a(settings.o)
 .text.format_hex_hyphen_setting
                0x0000000000004b0e        0xa bin/blib.a(settings.o)
 .text.format_hex_colon_setting
                0x0000000000004b18        0xa bin/blib.a(settings.o)
 .text.parse_hex_raw_setting
                0x0000000000004b22        0x9 bin/blib.a(settings.o)
 .text.parse_hex_hyphen_setting
                0x0000000000004b2b        0xc bin/blib.a(settings.o)
 .text.parse_hex_setting
                0x0000000000004b37        0xc bin/blib.a(settings.o)
 .text.generic_settings_clear
                0x0000000000004b43       0x28 bin/blib.a(settings.o)
                0x0000000000004b43                generic_settings_clear
 .text.autovivified_settings_free
                0x0000000000004b6b       0x13 bin/blib.a(settings.o)
 .text.parse_settings_name
                0x0000000000004b7e       0x66 bin/blib.a(settings.o)
 .text.fetch_string_setting_copy_alloc
                0x0000000000004be4        0x6 bin/blib.a(settings.o)
 .text.numeric_setting_value
                0x0000000000004bea       0x68 bin/blib.a(settings.o)
 .text.numerate_int_setting
                0x0000000000004c52       0x21 bin/blib.a(settings.o)
 .text.format_busdevfn_setting
                0x0000000000004c73       0x3f bin/blib.a(settings.o)
 .text.format_uuid_setting
                0x0000000000004cb2       0x2d bin/blib.a(settings.o)
 .text.parse_int_setting
                0x0000000000004cdf       0x34 bin/blib.a(settings.o)
 .text.find_settings
                0x0000000000004d13        0xa bin/blib.a(settings.o)
                0x0000000000004d13                find_settings
 .text.unregister_settings
                0x0000000000004d1d       0x54 bin/blib.a(settings.o)
                0x0000000000004d1d                unregister_settings
 .text.settings_target
                0x0000000000004d71       0x15 bin/blib.a(settings.o)
                0x0000000000004d71                settings_target
 .text.settings_name
                0x0000000000004d86       0x5b bin/blib.a(settings.o)
                0x0000000000004d86                settings_name
 .text.find_child_settings
                0x0000000000004de1       0x45 bin/blib.a(settings.o)
                0x0000000000004de1                find_child_settings
 .text.setting_applies
                0x0000000000004e26       0x25 bin/blib.a(settings.o)
                0x0000000000004e26                setting_applies
 .text.clear_settings
                0x0000000000004e4b       0x12 bin/blib.a(settings.o)
                0x0000000000004e4b                clear_settings
 .text.setting_cmp
                0x0000000000004e5d       0x39 bin/blib.a(settings.o)
                0x0000000000004e5d                setting_cmp
 .text.builtin_fetch
                0x0000000000004e96       0x3c bin/blib.a(settings.o)
 .text.fetch_setting
                0x0000000000004ed2      0x139 bin/blib.a(settings.o)
                0x0000000000004ed2                fetch_setting
 .text.fetch_setting_alloc
                0x000000000000500b       0x65 bin/blib.a(settings.o)
 .text.fetch_string_setting_copy
                0x0000000000005070       0x10 bin/blib.a(settings.o)
                0x0000000000005070                fetch_string_setting_copy
 .text.fetch_setting_copy
                0x0000000000005080       0x15 bin/blib.a(settings.o)
                0x0000000000005080                fetch_setting_copy
 .text.fetch_raw_setting_copy
                0x0000000000005095        0xb bin/blib.a(settings.o)
                0x0000000000005095                fetch_raw_setting_copy
 .text.fetch_raw_setting
                0x00000000000050a0       0x11 bin/blib.a(settings.o)
                0x00000000000050a0                fetch_raw_setting
 .text.fetch_uuid_setting
                0x00000000000050b1       0x16 bin/blib.a(settings.o)
                0x00000000000050b1                fetch_uuid_setting
 .text.fetch_numeric_setting
                0x00000000000050c7       0x2e bin/blib.a(settings.o)
                0x00000000000050c7                fetch_numeric_setting
 .text.fetch_uintz_setting
                0x00000000000050f5       0x11 bin/blib.a(settings.o)
                0x00000000000050f5                fetch_uintz_setting
 .text.fetch_intz_setting
                0x0000000000005106       0x11 bin/blib.a(settings.o)
                0x0000000000005106                fetch_intz_setting
 .text.reprioritise_settings
                0x0000000000005117       0x6f bin/blib.a(settings.o)
 .text.register_settings
                0x0000000000005186       0x51 bin/blib.a(settings.o)
                0x0000000000005186                register_settings
 .text.builtin_init
                0x00000000000051d7       0x11 bin/blib.a(settings.o)
 .text.autovivify_child_settings
                0x00000000000051e8       0x9b bin/blib.a(settings.o)
                0x00000000000051e8                autovivify_child_settings
 .text.fetch_ipv6_array_setting
                0x0000000000005283       0x1f bin/blib.a(settings.o)
                0x0000000000005283                fetch_ipv6_array_setting
 .text.fetch_ipv6_setting
                0x00000000000052a2        0x8 bin/blib.a(settings.o)
                0x00000000000052a2                fetch_ipv6_setting
 .text.fetch_ipv4_array_setting
                0x00000000000052aa       0x1f bin/blib.a(settings.o)
                0x00000000000052aa                fetch_ipv4_array_setting
 .text.fetch_ipv4_setting
                0x00000000000052c9        0x8 bin/blib.a(settings.o)
                0x00000000000052c9                fetch_ipv4_setting
 .text.fetch_string_setting
                0x00000000000052d1       0x30 bin/blib.a(settings.o)
                0x00000000000052d1                fetch_string_setting
 .text.store_setting
                0x0000000000005301       0x80 bin/blib.a(settings.o)
                0x0000000000005301                store_setting
 .text.generic_settings_fetch
                0x0000000000005381       0x62 bin/blib.a(settings.o)
                0x0000000000005381                generic_settings_fetch
 .text.generic_settings_store
                0x00000000000053e3       0xdb bin/blib.a(settings.o)
                0x00000000000053e3                generic_settings_store
 .text.setting_format
                0x00000000000054be       0x1d bin/blib.a(settings.o)
                0x00000000000054be                setting_format
 .text.setting_parse
                0x00000000000054db       0x19 bin/blib.a(settings.o)
                0x00000000000054db                setting_parse
 .text.setting_numerate
                0x00000000000054f4       0x19 bin/blib.a(settings.o)
                0x00000000000054f4                setting_numerate
 .text.setting_denumerate
                0x000000000000550d       0x19 bin/blib.a(settings.o)
                0x000000000000550d                setting_denumerate
 .text.fetchf_setting
                0x0000000000005526       0x4d bin/blib.a(settings.o)
                0x0000000000005526                fetchf_setting
 .text.fetchf_setting_copy
                0x0000000000005573       0x73 bin/blib.a(settings.o)
                0x0000000000005573                fetchf_setting_copy
 .text.storef_setting
                0x00000000000055e6       0x7a bin/blib.a(settings.o)
                0x00000000000055e6                storef_setting
 .text.fetchn_setting
                0x0000000000005660       0x49 bin/blib.a(settings.o)
                0x0000000000005660                fetchn_setting
 .text.storen_setting
                0x00000000000056a9       0x5e bin/blib.a(settings.o)
                0x00000000000056a9                storen_setting
 .text.parse_setting_name
                0x0000000000005707      0x153 bin/blib.a(settings.o)
                0x0000000000005707                parse_setting_name
 .text.setting_name
                0x000000000000585a       0x43 bin/blib.a(settings.o)
                0x000000000000585a                setting_name
 .text.expand_settings
                0x000000000000589d       0xd8 bin/blib.a(settings.o)
                0x000000000000589d                expand_settings
 .text.strcpy   0x0000000000005975       0x10 bin/blib.a(string.o)
                0x0000000000005975                strcpy
 .text.strncpy  0x0000000000005985       0x18 bin/blib.a(string.o)
                0x0000000000005985                strncpy
 .text.strcmp   0x000000000000599d       0x24 bin/blib.a(string.o)
                0x000000000000599d                strcmp
 .text.strcasecmp
                0x00000000000059c1       0x2a bin/blib.a(string.o)
                0x00000000000059c1                strcasecmp
 .text.strchr   0x00000000000059eb       0x11 bin/blib.a(string.o)
                0x00000000000059eb                strchr
 .text.strrchr  0x00000000000059fc       0x1f bin/blib.a(string.o)
                0x00000000000059fc                strrchr
 .text.strnlen  0x0000000000005a1b       0x14 bin/blib.a(string.o)
                0x0000000000005a1b                strnlen
 .text.memcmp   0x0000000000005a2f       0x21 bin/blib.a(string.o)
                0x0000000000005a2f                memcmp
 .text.strstr   0x0000000000005a50       0x3e bin/blib.a(string.o)
                0x0000000000005a50                strstr
 .text.memchr   0x0000000000005a8e       0x15 bin/blib.a(string.o)
                0x0000000000005a8e                memchr
 .text.strndup  0x0000000000005aa3       0x2d bin/blib.a(string.o)
                0x0000000000005aa3                strndup
 .text.strdup   0x0000000000005ad0        0x8 bin/blib.a(string.o)
                0x0000000000005ad0                strdup
 .text.mdelay   0x0000000000005ad8       0x16 bin/blib.a(timer.o)
                0x0000000000005ad8                mdelay
 .text.sleep    0x0000000000005aee       0x18 bin/blib.a(timer.o)
                0x0000000000005aee                sleep
 .text.uri_copy_fields
                0x0000000000005b06       0x5e bin/blib.a(uri.o)
 .text.uri_free
                0x0000000000005b64       0x13 bin/blib.a(uri.o)
 .text.uri_encode
                0x0000000000005b77       0x74 bin/blib.a(uri.o)
                0x0000000000005b77                uri_encode
 .text.parse_uri
                0x0000000000005beb      0x208 bin/blib.a(uri.o)
                0x0000000000005beb                parse_uri
 .text.uri_port
                0x0000000000005df3       0x17 bin/blib.a(uri.o)
                0x0000000000005df3                uri_port
 .text.format_uri
                0x0000000000005e0a       0xe6 bin/blib.a(uri.o)
                0x0000000000005e0a                format_uri
 .text.format_uri_alloc
                0x0000000000005ef0       0x2f bin/blib.a(uri.o)
                0x0000000000005ef0                format_uri_alloc
 .text.uri_dup  0x0000000000005f1f       0x38 bin/blib.a(uri.o)
                0x0000000000005f1f                uri_dup
 .text.resolve_path
                0x0000000000005f57       0xc2 bin/blib.a(uri.o)
                0x0000000000005f57                resolve_path
 .text.resolve_uri
                0x0000000000006019       0xa0 bin/blib.a(uri.o)
                0x0000000000006019                resolve_uri
 .text.tftp_uri
                0x00000000000060b9       0x3b bin/blib.a(uri.o)
                0x00000000000060b9                tftp_uri
 .text.uuid_ntoa
                0x00000000000060f4       0x63 bin/blib.a(uuid.o)
                0x00000000000060f4                uuid_ntoa
 .text.format_hex
                0x0000000000006157       0x6e bin/blib.a(vsprintf.o)
 .text.printf_sputc
                0x00000000000061c5        0xf bin/blib.a(vsprintf.o)
 .text.printf_putchar
                0x00000000000061d4        0x7 bin/blib.a(vsprintf.o)
 .text.vcprintf
                0x00000000000061db      0x268 bin/blib.a(vsprintf.o)
                0x00000000000061db                vcprintf
 .text.vsnprintf
                0x0000000000006443       0x3e bin/blib.a(vsprintf.o)
                0x0000000000006443                vsnprintf
 .text.snprintf
                0x0000000000006481       0x17 bin/blib.a(vsprintf.o)
                0x0000000000006481                snprintf
 .text.vssnprintf
                0x0000000000006498       0x12 bin/blib.a(vsprintf.o)
                0x0000000000006498                vssnprintf
 .text.ssnprintf
                0x00000000000064aa       0x17 bin/blib.a(vsprintf.o)
                0x00000000000064aa                ssnprintf
 .text.vprintf  0x00000000000064c1       0x19 bin/blib.a(vsprintf.o)
                0x00000000000064c1                vprintf
 .text.printf   0x00000000000064da        0xe bin/blib.a(vsprintf.o)
                0x00000000000064da                printf
 .text.xfer_deliver
                0x00000000000064e8       0x47 bin/blib.a(xfer.o)
                0x00000000000064e8                xfer_deliver
 .text.xfer_window_changed
                0x000000000000652f       0x29 bin/blib.a(xfer.o)
                0x000000000000652f                xfer_window_changed
 .text.xfer_window
                0x0000000000006558       0x32 bin/blib.a(xfer.o)
                0x0000000000006558                xfer_window
 .text.xfer_alloc_iob
                0x000000000000658a       0x3c bin/blib.a(xfer.o)
                0x000000000000658a                xfer_alloc_iob
 .text.xfer_vredirect
                0x00000000000065c6       0x88 bin/blib.a(xfer.o)
                0x00000000000065c6                xfer_vredirect
 .text.xfer_redirect
                0x000000000000664e       0x12 bin/blib.a(xfer.o)
                0x000000000000664e                xfer_redirect
 .text.xfer_deliver_iob
                0x0000000000006660        0xa bin/blib.a(xfer.o)
                0x0000000000006660                xfer_deliver_iob
 .text.xfer_deliver_raw_meta
                0x000000000000666a       0x46 bin/blib.a(xfer.o)
                0x000000000000666a                xfer_deliver_raw_meta
 .text.xfer_deliver_raw
                0x00000000000066b0        0xb bin/blib.a(xfer.o)
                0x00000000000066b0                xfer_deliver_raw
 .text.xfer_vprintf
                0x00000000000066bb       0x2e bin/blib.a(xfer.o)
                0x00000000000066bb                xfer_vprintf
 .text.xfer_printf
                0x00000000000066e9       0x12 bin/blib.a(xfer.o)
                0x00000000000066e9                xfer_printf
 .text.xfer_seek
                0x00000000000066fb       0x42 bin/blib.a(xfer.o)
                0x00000000000066fb                xfer_seek
 .text.arp_ntoa
                0x000000000000673d        0x6 bin/blib.a(arp.o)
 .text.arp_rx   0x0000000000006743      0x10a bin/blib.a(arp.o)
 .text.arp_tx_request
                0x000000000000684d       0xda bin/blib.a(arp.o)
 .text.eth_push
                0x0000000000006927       0x38 bin/blib.a(ethernet.o)
                0x0000000000006927                eth_push
 .text.eth_init_addr
                0x000000000000695f        0xc bin/blib.a(ethernet.o)
                0x000000000000695f                eth_init_addr
 .text.eth_eth_addr
                0x000000000000696b        0xe bin/blib.a(ethernet.o)
                0x000000000000696b                eth_eth_addr
 .text.eth_eui64
                0x0000000000006979       0x21 bin/blib.a(ethernet.o)
                0x0000000000006979                eth_eui64
 .text.eth_ntoa
                0x000000000000699a       0x37 bin/blib.a(ethernet.o)
                0x000000000000699a                eth_ntoa
 .text.eth_pull
                0x00000000000069d1       0x5e bin/blib.a(ethernet.o)
                0x00000000000069d1                eth_pull
 .text.eth_mc_hash
                0x0000000000006a2f       0x44 bin/blib.a(ethernet.o)
                0x0000000000006a2f                eth_mc_hash
 .text.alloc_etherdev
                0x0000000000006a73       0x1f bin/blib.a(ethernet.o)
                0x0000000000006a73                alloc_etherdev
 .text.eth_slow_rx
                0x0000000000006a92      0x111 bin/blib.a(eth_slow.o)
 .text.copy_encap_settings
                0x0000000000006ba3       0x9d bin/blib.a(fakedhcp.o)
 .text.create_fakedhcpdiscover
                0x0000000000006c40       0x21 bin/blib.a(fakedhcp.o)
                0x0000000000006c40                create_fakedhcpdiscover
 .text.create_fakedhcpack
                0x0000000000006c61       0x49 bin/blib.a(fakedhcp.o)
                0x0000000000006c61                create_fakedhcpack
 .text.create_fakepxebsack
                0x0000000000006caa       0x92 bin/blib.a(fakedhcp.o)
                0x0000000000006caa                create_fakepxebsack
 .text.ipv4_route
                0x0000000000006d3c       0x42 bin/blib.a(ipv4.o)
 .text.ipv4_netdev
                0x0000000000006d7e       0x1b bin/blib.a(ipv4.o)
 .text.ipv4_is_fragment
                0x0000000000006d99       0x24 bin/blib.a(ipv4.o)
 .text.ipv4_more_fragments
                0x0000000000006dbd        0xb bin/blib.a(ipv4.o)
 .text.ipv4_fragment_offset
                0x0000000000006dc8       0x12 bin/blib.a(ipv4.o)
 .text.ipv4_create_routes
                0x0000000000006dda      0x15c bin/blib.a(ipv4.o)
 .text.ipv4_pshdr_chksum
                0x0000000000006f36       0x53 bin/blib.a(ipv4.o)
 .text.ipv4_tx  0x0000000000006f89      0x1be bin/blib.a(ipv4.o)
 .text.ipv4_arp_check
                0x0000000000007147       0x29 bin/blib.a(ipv4.o)
 .text.ipv4_sock_aton
                0x0000000000007170       0x21 bin/blib.a(ipv4.o)
 .text.ipv4_has_any_addr
                0x0000000000007191       0x20 bin/blib.a(ipv4.o)
                0x0000000000007191                ipv4_has_any_addr
 .text.ipv4_rx  0x00000000000071b1      0x1a2 bin/blib.a(ipv4.o)
 .text.inet_ntoa
                0x0000000000007353       0x31 bin/blib.a(ipv4.o)
                0x0000000000007353                inet_ntoa
 .text.ipv4_sock_ntoa
                0x0000000000007384        0x8 bin/blib.a(ipv4.o)
 .text.ipv4_ntoa
                0x000000000000738c        0x7 bin/blib.a(ipv4.o)
 .text.parse_ipv4_setting
                0x0000000000007393       0x39 bin/blib.a(ipv4.o)
                0x0000000000007393                parse_ipv4_setting
 .text.format_ipv4_setting
                0x00000000000073cc       0x2d bin/blib.a(ipv4.o)
                0x00000000000073cc                format_ipv4_setting
 .text.neighbour_destroy
                0x00000000000073f9       0x48 bin/blib.a(neighbour.o)
 .text.neighbour_discard
                0x0000000000007441       0x2b bin/blib.a(neighbour.o)
 .text.neighbour_find
                0x000000000000746c       0x65 bin/blib.a(neighbour.o)
 .text.neighbour_create
                0x00000000000074d1       0x71 bin/blib.a(neighbour.o)
 .text.neighbour_expired
                0x0000000000007542       0x3c bin/blib.a(neighbour.o)
 .text.neighbour_free
                0x000000000000757e       0x13 bin/blib.a(neighbour.o)
 .text.neighbour_discovered
                0x0000000000007591       0x70 bin/blib.a(neighbour.o)
 .text.neighbour_flush
                0x0000000000007601       0x32 bin/blib.a(neighbour.o)
 .text.neighbour_tx
                0x0000000000007633       0x8c bin/blib.a(neighbour.o)
                0x0000000000007633                neighbour_tx
 .text.neighbour_update
                0x00000000000076bf       0x1f bin/blib.a(neighbour.o)
                0x00000000000076bf                neighbour_update
 .text.netdev_notify
                0x00000000000076de       0x24 bin/blib.a(netdevice.o)
 .text.net_discard
                0x0000000000007702       0x40 bin/blib.a(netdevice.o)
 .text.netdev_config_close
                0x0000000000007742       0x14 bin/blib.a(netdevice.o)
 .text.netdev_record_stat
                0x0000000000007756       0x40 bin/blib.a(netdevice.o)
 .text.netdev_rx_freeze
                0x0000000000007796        0x9 bin/blib.a(netdevice.o)
                0x0000000000007796                netdev_rx_freeze
 .text.netdev_rx_unfreeze
                0x000000000000779f        0x9 bin/blib.a(netdevice.o)
                0x000000000000779f                netdev_rx_unfreeze
 .text.netdev_link_err
                0x00000000000077a8        0x8 bin/blib.a(netdevice.o)
                0x00000000000077a8                netdev_link_err
 .text.netdev_link_down
                0x00000000000077b0       0x1c bin/blib.a(netdevice.o)
                0x00000000000077b0                netdev_link_down
 .text.netdev_tx_err
                0x00000000000077cc       0x15 bin/blib.a(netdevice.o)
                0x00000000000077cc                netdev_tx_err
 .text.netdev_tx_complete_err
                0x00000000000077e1       0x39 bin/blib.a(netdevice.o)
                0x00000000000077e1                netdev_tx_complete_err
 .text.netdev_tx
                0x000000000000781a       0x3f bin/blib.a(netdevice.o)
                0x000000000000781a                netdev_tx
 .text.netdev_tx_complete_next_err
                0x0000000000007859       0x1b bin/blib.a(netdevice.o)
                0x0000000000007859                netdev_tx_complete_next_err
 .text.netdev_tx_flush
                0x0000000000007874       0x1d bin/blib.a(netdevice.o)
 .text.netdev_rx
                0x0000000000007891       0x1b bin/blib.a(netdevice.o)
                0x0000000000007891                netdev_rx
 .text.netdev_rx_err
                0x00000000000078ac       0x1c bin/blib.a(netdevice.o)
                0x00000000000078ac                netdev_rx_err
 .text.netdev_poll
                0x00000000000078c8        0xd bin/blib.a(netdevice.o)
                0x00000000000078c8                netdev_poll
 .text.netdev_rx_dequeue
                0x00000000000078d5       0x1f bin/blib.a(netdevice.o)
                0x00000000000078d5                netdev_rx_dequeue
 .text.netdev_rx_flush
                0x00000000000078f4       0x20 bin/blib.a(netdevice.o)
 .text.free_netdev
                0x0000000000007914       0x22 bin/blib.a(netdevice.o)
 .text.alloc_netdev
                0x0000000000007936       0xf4 bin/blib.a(netdevice.o)
                0x0000000000007936                alloc_netdev
 .text.register_netdev
                0x0000000000007a2a       0xfa bin/blib.a(netdevice.o)
                0x0000000000007a2a                register_netdev
 .text.netdev_open
                0x0000000000007b24       0x3f bin/blib.a(netdevice.o)
                0x0000000000007b24                netdev_open
 .text.netdev_close
                0x0000000000007b63       0x6f bin/blib.a(netdevice.o)
                0x0000000000007b63                netdev_close
 .text.unregister_netdev
                0x0000000000007bd2       0x4e bin/blib.a(netdevice.o)
                0x0000000000007bd2                unregister_netdev
 .text.netdev_irq
                0x0000000000007c20       0x2a bin/blib.a(netdevice.o)
                0x0000000000007c20                netdev_irq
 .text.find_netdev_by_location
                0x0000000000007c4a       0x28 bin/blib.a(netdevice.o)
                0x0000000000007c4a                find_netdev_by_location
 .text.last_opened_netdev
                0x0000000000007c72       0x14 bin/blib.a(netdevice.o)
                0x0000000000007c72                last_opened_netdev
 .text.find_netdev
                0x0000000000007c86       0x42 bin/blib.a(netdevice.o)
                0x0000000000007c86                find_netdev
 .text.net_tx   0x0000000000007cc8       0x44 bin/blib.a(netdevice.o)
                0x0000000000007cc8                net_tx
 .text.net_rx   0x0000000000007d0c       0x38 bin/blib.a(netdevice.o)
                0x0000000000007d0c                net_rx
 .text.net_poll
                0x0000000000007d44       0x97 bin/blib.a(netdevice.o)
                0x0000000000007d44                net_poll
 .text.net_step
                0x0000000000007ddb        0x5 bin/blib.a(netdevice.o)
 .text.vlan_tag
                0x0000000000007de0        0x3 bin/blib.a(netdevice.o)
                0x0000000000007de0                vlan_tag
 .text.find_netdev_configurator
                0x0000000000007de3       0x2a bin/blib.a(netdevice.o)
                0x0000000000007de3                find_netdev_configurator
 .text.netdev_configure
                0x0000000000007e0d       0x59 bin/blib.a(netdevice.o)
                0x0000000000007e0d                netdev_configure
 .text.netdev_configure_all
                0x0000000000007e66       0x37 bin/blib.a(netdevice.o)
                0x0000000000007e66                netdev_configure_all
 .text.netdev_configuration_in_progress
                0x0000000000007e9d       0x35 bin/blib.a(netdevice.o)
                0x0000000000007e9d                netdev_configuration_in_progress
 .text.netdev_configuration_ok
                0x0000000000007ed2       0x32 bin/blib.a(netdevice.o)
                0x0000000000007ed2                netdev_configuration_ok
 .text.netdev_redirect_settings_init
                0x0000000000007f04       0x11 bin/blib.a(netdev_settings.o)
 .text.netdev_redirect
                0x0000000000007f15       0x16 bin/blib.a(netdev_settings.o)
 .text.netdev_clear
                0x0000000000007f2b        0x5 bin/blib.a(netdev_settings.o)
 .text.netdev_fetch
                0x0000000000007f30       0x6c bin/blib.a(netdev_settings.o)
 .text.netdev_fetch_chip
                0x0000000000007f9c       0x1c bin/blib.a(netdev_settings.o)
 .text.netdev_fetch_bustype
                0x0000000000007fb8       0x23 bin/blib.a(netdev_settings.o)
 .text.netdev_store_mac
                0x0000000000007fdb       0x2e bin/blib.a(netdev_settings.o)
 .text.netdev_fetch_mac
                0x0000000000008009       0x23 bin/blib.a(netdev_settings.o)
 .text.netdev_fetch_busid
                0x000000000000802c       0x43 bin/blib.a(netdev_settings.o)
 .text.netdev_fetch_busloc
                0x000000000000806f       0x2a bin/blib.a(netdev_settings.o)
 .text.netdev_store
                0x0000000000008099       0x7b bin/blib.a(netdev_settings.o)
 .text.null_open
                0x0000000000008114        0x6 bin/blib.a(nullnet.o)
 .text.null_close
                0x000000000000811a        0x1 bin/blib.a(nullnet.o)
 .text.null_transmit
                0x000000000000811b        0x6 bin/blib.a(nullnet.o)
 .text.null_poll
                0x0000000000008121        0x1 bin/blib.a(nullnet.o)
 .text.null_irq
                0x0000000000008122        0x1 bin/blib.a(nullnet.o)
 .text.rarp_ntoa
                0x0000000000008123        0x6 bin/blib.a(rarp.o)
 .text.rarp_rx  0x0000000000008129        0xa bin/blib.a(rarp.o)
 .text.start_timer
                0x0000000000008133       0x51 bin/blib.a(retry.o)
                0x0000000000008133                start_timer
 .text.start_timer_fixed
                0x0000000000008184       0x11 bin/blib.a(retry.o)
                0x0000000000008184                start_timer_fixed
 .text.stop_timer
                0x0000000000008195       0x50 bin/blib.a(retry.o)
                0x0000000000008195                stop_timer
 .text.retry_poll
                0x00000000000081e5       0x6f bin/blib.a(retry.o)
                0x00000000000081e5                retry_poll
 .text.retry_step
                0x0000000000008254        0x5 bin/blib.a(retry.o)
 .text.tcpip_rx
                0x0000000000008259       0x49 bin/blib.a(tcpip.o)
                0x0000000000008259                tcpip_rx
 .text.tcpip_tx
                0x00000000000082a2       0x46 bin/blib.a(tcpip.o)
                0x00000000000082a2                tcpip_tx
 .text.tcpip_mtu
                0x00000000000082e8       0x42 bin/blib.a(tcpip.o)
                0x00000000000082e8                tcpip_mtu
 .text.tcpip_chksum
                0x000000000000832a        0xe bin/blib.a(tcpip.o)
                0x000000000000832a                tcpip_chksum
 .text.tcpip_bind
                0x0000000000008338       0x6e bin/blib.a(tcpip.o)
                0x0000000000008338                tcpip_bind
 .text.udp_rx   0x00000000000083a6      0x13e bin/blib.a(udp.o)
 .text.udp_close
                0x00000000000084e4       0x1e bin/blib.a(udp.o)
 .text.udp_xfer_alloc_iob
                0x0000000000008502       0x15 bin/blib.a(udp.o)
 .text.udp_xfer_deliver
                0x0000000000008517       0x9f bin/blib.a(udp.o)
 .text.udp_open_common
                0x00000000000085b6       0xa4 bin/blib.a(udp.o)
 .text.udp_open
                0x000000000000865a        0x8 bin/blib.a(udp.o)
                0x000000000000865a                udp_open
 .text.udp_open_uri
                0x0000000000008662       0x50 bin/blib.a(udp.o)
 .text.udp_port_available
                0x00000000000086b2       0x2a bin/blib.a(udp.o)
 .text.udp_open_promisc
                0x00000000000086dc        0xc bin/blib.a(udp.o)
                0x00000000000086dc                udp_open_promisc
 .text.http_open
                0x00000000000086e8        0xd bin/blib.a(http.o)
 .text.http_socket_window
                0x00000000000086f5        0x4 bin/blib.a(httpcore.o)
 .text.http_xfer_window
                0x00000000000086f9        0xb bin/blib.a(httpcore.o)
 .text.http_acpi_describe
                0x0000000000008704        0x3 bin/blib.a(httpcore.o)
 .text.http_rx_connection
                0x0000000000008707       0x1b bin/blib.a(httpcore.o)
 .text.http_rx_transfer_encoding
                0x0000000000008722       0x1e bin/blib.a(httpcore.o)
 .text.http_free
                0x0000000000008740       0x39 bin/blib.a(httpcore.o)
 .text.http_digest_param
                0x0000000000008779       0x3a bin/blib.a(httpcore.o)
 .text.http_rx_content_length
                0x00000000000087b3       0xa8 bin/blib.a(httpcore.o)
 .text.http_rx_location
                0x000000000000885b       0x10 bin/blib.a(httpcore.o)
 .text.http_rx_response
                0x000000000000886b       0x5c bin/blib.a(httpcore.o)
 .text.http_digest_auth
                0x00000000000088c7      0x255 bin/blib.a(httpcore.o)
 .text.http_socket_open
                0x0000000000008b1c       0x62 bin/blib.a(httpcore.o)
 .text.http_close
                0x0000000000008b7e       0x39 bin/blib.a(httpcore.o)
 .text.http_rx_basic_auth
                0x0000000000008bb7       0x23 bin/blib.a(httpcore.o)
 .text.http_rx_retry_after
                0x0000000000008bda       0x3a bin/blib.a(httpcore.o)
 .text.http_rx_chunk_len
                0x0000000000008c14       0x6e bin/blib.a(httpcore.o)
 .text.http_rx_www_authenticate
                0x0000000000008c82       0x50 bin/blib.a(httpcore.o)
 .text.http_rx_digest_auth
                0x0000000000008cd2       0x8d bin/blib.a(httpcore.o)
 .text.http_partial_read.part.13
                0x0000000000008d5f        0x6 bin/blib.a(httpcore.o)
 .text.http_block_read_capacity
                0x0000000000008d65       0x4f bin/blib.a(httpcore.o)
 .text.http_block_read
                0x0000000000008db4       0x60 bin/blib.a(httpcore.o)
 .text.http_basic_auth.isra.16
                0x0000000000008e14       0xaa bin/blib.a(httpcore.o)
 .text.http_post_params.isra.17
                0x0000000000008ebe       0x89 bin/blib.a(httpcore.o)
 .text.http_done
                0x0000000000008f47       0x88 bin/blib.a(httpcore.o)
 .text.http_socket_close
                0x0000000000008fcf        0xe bin/blib.a(httpcore.o)
 .text.http_rx_header
                0x0000000000008fdd       0xf4 bin/blib.a(httpcore.o)
 .text.http_socket_deliver
                0x00000000000090d1      0x13a bin/blib.a(httpcore.o)
 .text.http_step
                0x000000000000920b      0x29b bin/blib.a(httpcore.o)
 .text.http_retry
                0x00000000000094a6       0x50 bin/blib.a(httpcore.o)
 .text.http_open_filter
                0x00000000000094f6       0xe3 bin/blib.a(httpcore.o)
                0x00000000000094f6                http_open_filter
 .text.iscsi_tx_nothing
                0x00000000000095d9        0x3 bin/blib.a(iscsi.o)
 .text.iscsi_rx_discard
                0x00000000000095dc        0x5 bin/blib.a(iscsi.o)
 .text.iscsi_scsi_window
                0x00000000000095e1       0x1c bin/blib.a(iscsi.o)
 .text.iscsi_rx_bhs
                0x00000000000095fd       0x19 bin/blib.a(iscsi.o)
 .text.iscsi_vredirect
                0x0000000000009616       0x30 bin/blib.a(iscsi.o)
 .text.iscsi_tx_resume
                0x0000000000009646        0xa bin/blib.a(iscsi.o)
 .text.iscsi_start_data_out
                0x0000000000009650       0xcb bin/blib.a(iscsi.o)
 .text.iscsi_rx_buffered_data
                0x000000000000971b       0x51 bin/blib.a(iscsi.o)
 .text.iscsi_handle_authmethod_value
                0x000000000000976c       0x1e bin/blib.a(iscsi.o)
 .text.iscsi_large_binary_decode
                0x000000000000978a       0x38 bin/blib.a(iscsi.o)
 .text.iscsi_handle_chap_r_value
                0x00000000000097c2       0xd7 bin/blib.a(iscsi.o)
 .text.iscsi_handle_chap_c_value
                0x0000000000009899       0x76 bin/blib.a(iscsi.o)
 .text.iscsi_handle_chap_i_value
                0x000000000000990f       0x7a bin/blib.a(iscsi.o)
 .text.iscsi_free
                0x0000000000009989       0x6b bin/blib.a(iscsi.o)
 .text.iscsi_build_login_request_strings
                0x00000000000099f4      0x150 bin/blib.a(iscsi.o)
 .text.iscsi_start_login
                0x0000000000009b44       0x92 bin/blib.a(iscsi.o)
 .text.iscsi_scsi_command
                0x0000000000009bd6      0x117 bin/blib.a(iscsi.o)
 .text.iscsi_tx_data
                0x0000000000009ced       0xed bin/blib.a(iscsi.o)
 .text.iscsi_tx_bhs
                0x0000000000009dda       0x13 bin/blib.a(iscsi.o)
 .text.iscsi_parse_root_path
                0x0000000000009ded       0xb3 bin/blib.a(iscsi.o)
 .text.iscsi_close
                0x0000000000009ea0       0x3a bin/blib.a(iscsi.o)
 .text.iscsi_socket_deliver
                0x0000000000009eda      0x10b bin/blib.a(iscsi.o)
 .text.iscsi_command_close
                0x0000000000009fe5       0x2e bin/blib.a(iscsi.o)
 .text.iscsi_tx_step
                0x000000000000a013       0xee bin/blib.a(iscsi.o)
 .text.iscsi_handle_chap_n_value
                0x000000000000a101       0x1c bin/blib.a(iscsi.o)
 .text.iscsi_handle_chap_a_value
                0x000000000000a11d       0x1a bin/blib.a(iscsi.o)
 .text.iscsi_handle_targetaddress_value
                0x000000000000a137       0x4f bin/blib.a(iscsi.o)
 .text.iscsi_open_connection
                0x000000000000a186       0x7e bin/blib.a(iscsi.o)
 .text.iscsi_open
                0x000000000000a204      0x1f6 bin/blib.a(iscsi.o)
 .text.iscsi_scsi_done.constprop.11
                0x000000000000a3fa       0x45 bin/blib.a(iscsi.o)
 .text.iscsi_rx_data
                0x000000000000a43f      0x3d4 bin/blib.a(iscsi.o)
 .text.dhcp_discovery_tx
                0x000000000000a813       0x10 bin/blib.a(dhcp.o)
 .text.dhcp_deliver
                0x000000000000a823       0xca bin/blib.a(dhcp.o)
 .text.dhcp_pxebs_tx
                0x000000000000a8ed       0x42 bin/blib.a(dhcp.o)
 .text.dhcp_proxy_tx
                0x000000000000a92f       0x2a bin/blib.a(dhcp.o)
 .text.dhcp_set_state
                0x000000000000a959       0x46 bin/blib.a(dhcp.o)
 .text.dhcp_finished
                0x000000000000a99f       0x24 bin/blib.a(dhcp.o)
 .text.dhcp_pxebs_rx
                0x000000000000a9c3       0x9f bin/blib.a(dhcp.o)
 .text.dhcp_timer_expired
                0x000000000000aa62       0x1a bin/blib.a(dhcp.o)
 .text.dhcp_proxy_rx
                0x000000000000aa7c       0x4e bin/blib.a(dhcp.o)
 .text.dhcp_free
                0x000000000000aaca       0x1b bin/blib.a(dhcp.o)
 .text.start_dhcp
                0x000000000000aae5       0xc8 bin/blib.a(dhcp.o)
                0x000000000000aae5                start_dhcp
 .text.dhcp_discovery_rx
                0x000000000000abad      0x12d bin/blib.a(dhcp.o)
 .text.dhcp_request_tx
                0x000000000000acda       0x44 bin/blib.a(dhcp.o)
 .text.dhcp_request_rx
                0x000000000000ad1e       0xc9 bin/blib.a(dhcp.o)
 .text.dhcp_create_packet
                0x000000000000ade7       0xdb bin/blib.a(dhcp.o)
                0x000000000000ade7                dhcp_create_packet
 .text.dhcp_create_request
                0x000000000000aec2      0x14b bin/blib.a(dhcp.o)
                0x000000000000aec2                dhcp_create_request
 .text.dhcp_tx  0x000000000000b00d       0xf3 bin/blib.a(dhcp.o)
 .text.dhcp_pxebs_expired
                0x000000000000b100       0x44 bin/blib.a(dhcp.o)
 .text.dhcp_discovery_expired
                0x000000000000b144       0x30 bin/blib.a(dhcp.o)
 .text.dhcp_request_expired
                0x000000000000b174        0x5 bin/blib.a(dhcp.o)
 .text.dhcp_proxy_expired
                0x000000000000b179       0x25 bin/blib.a(dhcp.o)
 .text.start_pxebs
                0x000000000000b19e      0x21e bin/blib.a(dhcp.o)
                0x000000000000b19e                start_pxebs
 .text.dns_label
                0x000000000000b3bc       0x4d bin/blib.a(dns.o)
 .text.dns_send_packet
                0x000000000000b409       0x26 bin/blib.a(dns.o)
 .text.dns_done
                0x000000000000b42f       0x24 bin/blib.a(dns.o)
 .text.dns_xfer_close
                0x000000000000b453        0xe bin/blib.a(dns.o)
 .text.dns_timer_expired
                0x000000000000b461       0x16 bin/blib.a(dns.o)
 .text.dns_encode
                0x000000000000b477       0x79 bin/blib.a(dns.o)
                0x000000000000b477                dns_encode
 .text.apply_dns_settings
                0x000000000000b4f0       0xd2 bin/blib.a(dns.o)
 .text.dns_decode
                0x000000000000b5c2       0xae bin/blib.a(dns.o)
                0x000000000000b5c2                dns_decode
 .text.dns_compare
                0x000000000000b670       0xdd bin/blib.a(dns.o)
                0x000000000000b670                dns_compare
 .text.dns_copy
                0x000000000000b74d       0x84 bin/blib.a(dns.o)
                0x000000000000b74d                dns_copy
 .text.dns_question
                0x000000000000b7d1       0x79 bin/blib.a(dns.o)
 .text.dns_resolv
                0x000000000000b84a      0x16b bin/blib.a(dns.o)
 .text.dns_skip
                0x000000000000b9b5       0x43 bin/blib.a(dns.o)
                0x000000000000b9b5                dns_skip
 .text.dns_skip_search
                0x000000000000b9f8       0x20 bin/blib.a(dns.o)
 .text.format_dnssl_setting
                0x000000000000ba18       0x6b bin/blib.a(dns.o)
 .text.dns_xfer_deliver
                0x000000000000ba83      0x286 bin/blib.a(dns.o)
 .text.tftp_xfer_window
                0x000000000000bd09        0x4 bin/blib.a(tftp.o)
 .text.tftp_reopen
                0x000000000000bd0d       0x57 bin/blib.a(tftp.o)
 .text.tftp_reopen_mc
                0x000000000000bd64       0x23 bin/blib.a(tftp.o)
 .text.tftp_process_multicast
                0x000000000000bd87       0xec bin/blib.a(tftp.o)
 .text.tftp_send_packet
                0x000000000000be73      0x158 bin/blib.a(tftp.o)
 .text.tftp_done
                0x000000000000bfcb       0x2e bin/blib.a(tftp.o)
 .text.tftp_core_open
                0x000000000000bff9      0x101 bin/blib.a(tftp.o)
 .text.mtftp_open
                0x000000000000c0fa       0x12 bin/blib.a(tftp.o)
 .text.tftm_open
                0x000000000000c10c        0xf bin/blib.a(tftp.o)
 .text.tftpsize_open
                0x000000000000c11b        0xf bin/blib.a(tftp.o)
 .text.tftp_open
                0x000000000000c12a        0xf bin/blib.a(tftp.o)
 .text.tftp_timer_expired
                0x000000000000c139       0x84 bin/blib.a(tftp.o)
 .text.tftp_free
                0x000000000000c1bd       0x1b bin/blib.a(tftp.o)
 .text.tftp_apply_settings
                0x000000000000c1d8       0x71 bin/blib.a(tftp.o)
 .text.tftp_process_tsize
                0x000000000000c249       0x27 bin/blib.a(tftp.o)
 .text.tftp_process_blksize
                0x000000000000c270       0x27 bin/blib.a(tftp.o)
 .text.tftp_presize.part.7
                0x000000000000c297       0x32 bin/blib.a(tftp.o)
 .text.tftp_send_error.constprop.9
                0x000000000000c2c9       0x72 bin/blib.a(tftp.o)
 .text.tftp_rx  0x000000000000c33b      0x293 bin/blib.a(tftp.o)
 .text.tftp_socket_deliver
                0x000000000000c5ce        0x9 bin/blib.a(tftp.o)
 .text.elf_load
                0x000000000000c5d7      0x141 bin/blib.a(elf.o)
                0x000000000000c5d7                elf_load
 .text.embedded_init
                0x000000000000c718       0x19 bin/blib.a(embedded.o)
 .text.terminate_on_label_found
                0x000000000000c731        0x9 bin/blib.a(script.o)
 .text.prompt_exec
                0x000000000000c73a       0x54 bin/blib.a(script.o)
 .text.process_script
                0x000000000000c78e      0x15d bin/blib.a(script.o)
 .text.script_exec
                0x000000000000c8eb       0x3c bin/blib.a(script.o)
 .text.terminate_on_exit_or_failure
                0x000000000000c927       0x21 bin/blib.a(script.o)
 .text.script_exec_line
                0x000000000000c948        0xc bin/blib.a(script.o)
 .text.script_probe
                0x000000000000c954       0x63 bin/blib.a(script.o)
 .text.goto_exec
                0x000000000000c9b7       0x85 bin/blib.a(script.o)
 .text.goto_find_label
                0x000000000000ca3c       0x2c bin/blib.a(script.o)
 .text.prep_segment
                0x000000000000ca68       0x81 bin/blib.a(segment.o)
                0x000000000000ca68                prep_segment
 .text.pci_bar  0x000000000000cae9       0x4a bin/blib.a(pci.o)
 .text.adjust_pci_device
                0x000000000000cb33       0x54 bin/blib.a(pci.o)
                0x000000000000cb33                adjust_pci_device
 .text.pci_read_config
                0x000000000000cb87      0x140 bin/blib.a(pci.o)
                0x000000000000cb87                pci_read_config
 .text.pci_find_next
                0x000000000000ccc7       0x55 bin/blib.a(pci.o)
                0x000000000000ccc7                pci_find_next
 .text.pci_find_driver
                0x000000000000cd1c       0x5d bin/blib.a(pci.o)
                0x000000000000cd1c                pci_find_driver
 .text.pci_probe
                0x000000000000cd79        0x7 bin/blib.a(pci.o)
                0x000000000000cd79                pci_probe
 .text.pci_remove
                0x000000000000cd80        0x7 bin/blib.a(pci.o)
                0x000000000000cd80                pci_remove
 .text.pcibus_remove
                0x000000000000cd87       0x3f bin/blib.a(pci.o)
 .text.pcibus_probe
                0x000000000000cdc6       0x86 bin/blib.a(pci.o)
 .text.pci_settings_applies
                0x000000000000ce4c        0xd bin/blib.a(pci_settings.o)
 .text.pci_settings_init
                0x000000000000ce59       0x11 bin/blib.a(pci_settings.o)
 .text.pci_settings_fetch
                0x000000000000ce6a       0x7e bin/blib.a(pci_settings.o)
 .text.ibft_set_ipaddr_setting
                0x000000000000cee8       0x64 bin/blib.a(ibft.o)
 .text.ibft_set_string
                0x000000000000cf4c       0x49 bin/blib.a(ibft.o)
 .text.ibft_describe
                0x000000000000cf95      0x30e bin/blib.a(ibft.o)
                0x000000000000cf95                ibft_describe
 .text.scsicmd_read_capacity_cmd
                0x000000000000d2a3       0x32 bin/blib.a(scsi.o)
 .text.scsicmd_test_unit_ready_cmd
                0x000000000000d2d5        0x5 bin/blib.a(scsi.o)
 .text.scsicmd_close
                0x000000000000d2da       0x1a bin/blib.a(scsi.o)
 .text.scsidev_close
                0x000000000000d2f4       0x69 bin/blib.a(scsi.o)
 .text.scsicmd_write_cmd
                0x000000000000d35d       0x54 bin/blib.a(scsi.o)
 .text.scsicmd_read_cmd
                0x000000000000d3b1       0x54 bin/blib.a(scsi.o)
 .text.scsicmd_free
                0x000000000000d405       0x1e bin/blib.a(scsi.o)
 .text.scsi_response
                0x000000000000d423       0x2f bin/blib.a(scsi.o)
                0x000000000000d423                scsi_response
 .text.scsi_command
                0x000000000000d452       0x40 bin/blib.a(scsi.o)
                0x000000000000d452                scsi_command
 .text.scsicmd_command
                0x000000000000d492       0x4b bin/blib.a(scsi.o)
 .text.scsicmd_read_capacity_done
                0x000000000000d4dd       0x91 bin/blib.a(scsi.o)
 .text.scsidev_command
                0x000000000000d56e       0xbb bin/blib.a(scsi.o)
 .text.scsidev_read_capacity
                0x000000000000d629       0x15 bin/blib.a(scsi.o)
 .text.scsidev_write
                0x000000000000d63e        0xc bin/blib.a(scsi.o)
 .text.scsidev_read
                0x000000000000d64a        0xc bin/blib.a(scsi.o)
 .text.scsicmd_done
                0x000000000000d656       0x3a bin/blib.a(scsi.o)
 .text.scsidev_window
                0x000000000000d690       0x11 bin/blib.a(scsi.o)
 .text.scsidev_ready
                0x000000000000d6a1       0x2b bin/blib.a(scsi.o)
 .text.scsidev_step
                0x000000000000d6cc       0x42 bin/blib.a(scsi.o)
 .text.scsicmd_response
                0x000000000000d70e       0x20 bin/blib.a(scsi.o)
 .text.scsi_parse_lun
                0x000000000000d72e       0x5f bin/blib.a(scsi.o)
                0x000000000000d72e                scsi_parse_lun
 .text.scsi_parse_sense
                0x000000000000d78d       0x39 bin/blib.a(scsi.o)
                0x000000000000d78d                scsi_parse_sense
 .text.scsi_open
                0x000000000000d7c6       0xa3 bin/blib.a(scsi.o)
                0x000000000000d7c6                scsi_open
 .text.smbios_applies
                0x000000000000d869        0xd bin/blib.a(smbios_settings.o)
 .text.smbios_init
                0x000000000000d876       0x11 bin/blib.a(smbios_settings.o)
 .text.smbios_fetch
                0x000000000000d887      0x102 bin/blib.a(smbios_settings.o)
 .text.chap_init
                0x000000000000d989       0x37 bin/blib.a(chap.o)
                0x000000000000d989                chap_init
 .text.chap_update
                0x000000000000d9c0        0xf bin/blib.a(chap.o)
                0x000000000000d9c0                chap_update
 .text.chap_respond
                0x000000000000d9cf       0x10 bin/blib.a(chap.o)
                0x000000000000d9cf                chap_respond
 .text.chap_finish
                0x000000000000d9df       0x16 bin/blib.a(chap.o)
                0x000000000000d9df                chap_finish
 .text.md5_f_0_15
                0x000000000000d9f5       0x10 bin/blib.a(md5.o)
 .text.md5_f_16_31
                0x000000000000da05       0x10 bin/blib.a(md5.o)
 .text.md5_f_32_47
                0x000000000000da15        0xc bin/blib.a(md5.o)
 .text.md5_f_48_63
                0x000000000000da21        0xe bin/blib.a(md5.o)
 .text.md5_init
                0x000000000000da2f       0x23 bin/blib.a(md5.o)
 .text.md5_update
                0x000000000000da52       0xc6 bin/blib.a(md5.o)
 .text.md5_final
                0x000000000000db18       0x5a bin/blib.a(md5.o)
 .text.strerror
                0x000000000000db72       0x6c bin/blib.a(strerror.o)
                0x000000000000db72                strerror
 .text.autoboot_exec
                0x000000000000dbde        0xa bin/blib.a(autoboot_cmd.o)
 .text.autoboot_payload
                0x000000000000dbe8        0x5 bin/blib.a(autoboot_cmd.o)
 .text.config_exec
                0x000000000000dbed       0x69 bin/blib.a(config_cmd.o)
 .text.pxebs_exec
                0x000000000000dc56       0x80 bin/blib.a(dhcp_cmd.o)
 .text.ifstat_payload
                0x000000000000dcd6        0x8 bin/blib.a(ifmgmt_cmd.o)
 .text.ifclose_payload
                0x000000000000dcde        0x8 bin/blib.a(ifmgmt_cmd.o)
 .text.ifopen_payload
                0x000000000000dce6        0x5 bin/blib.a(ifmgmt_cmd.o)
 .text.ifconf_payload
                0x000000000000dceb       0x1d bin/blib.a(ifmgmt_cmd.o)
 .text.ifcommon_exec
                0x000000000000dd08       0xae bin/blib.a(ifmgmt_cmd.o)
                0x000000000000dd08                ifcommon_exec
 .text.ifstat_exec
                0x000000000000ddb6        0xa bin/blib.a(ifmgmt_cmd.o)
 .text.ifclose_exec
                0x000000000000ddc0        0xa bin/blib.a(ifmgmt_cmd.o)
 .text.ifopen_exec
                0x000000000000ddca        0xa bin/blib.a(ifmgmt_cmd.o)
 .text.ifconf_exec
                0x000000000000ddd4        0xa bin/blib.a(ifmgmt_cmd.o)
                0x000000000000ddd4                ifconf_exec
 .text.image_clear_cmdline
                0x000000000000ddde        0x7 bin/blib.a(image_cmd.o)
 .text.imgsingle_exec
                0x000000000000dde5      0x141 bin/blib.a(image_cmd.o)
 .text.imgargs_exec
                0x000000000000df26        0xa bin/blib.a(image_cmd.o)
 .text.imgexec_exec
                0x000000000000df30        0xa bin/blib.a(image_cmd.o)
 .text.imgselect_exec
                0x000000000000df3a        0xa bin/blib.a(image_cmd.o)
 .text.imgfetch_exec
                0x000000000000df44        0xa bin/blib.a(image_cmd.o)
 .text.imgselect
                0x000000000000df4e        0x5 bin/blib.a(image_cmd.o)
 .text.imgmulti_exec
                0x000000000000df53       0x94 bin/blib.a(image_cmd.o)
 .text.imgfree_exec
                0x000000000000dfe7        0xa bin/blib.a(image_cmd.o)
 .text.imgstat_exec
                0x000000000000dff1        0xa bin/blib.a(image_cmd.o)
 .text.imgexec  0x000000000000dffb       0x28 bin/blib.a(image_cmd.o)
 .text.login_exec
                0x000000000000e023       0x39 bin/blib.a(login_cmd.o)
 .text.choose_exec
                0x000000000000e05c       0xbd bin/blib.a(menu_cmd.o)
 .text.item_exec
                0x000000000000e119       0xb4 bin/blib.a(menu_cmd.o)
 .text.menu_exec
                0x000000000000e1cd       0x67 bin/blib.a(menu_cmd.o)
 .text.clear_value
                0x000000000000e234        0x9 bin/blib.a(nvo_cmd.o)
 .text.inc_exec
                0x000000000000e23d       0xd0 bin/blib.a(nvo_cmd.o)
 .text.read_value
                0x000000000000e30d       0x32 bin/blib.a(nvo_cmd.o)
 .text.set_core_exec
                0x000000000000e33f       0x96 bin/blib.a(nvo_cmd.o)
 .text.read_exec
                0x000000000000e3d5       0x10 bin/blib.a(nvo_cmd.o)
 .text.clear_exec
                0x000000000000e3e5       0x10 bin/blib.a(nvo_cmd.o)
 .text.set_exec
                0x000000000000e3f5       0x10 bin/blib.a(nvo_cmd.o)
 .text.set_value
                0x000000000000e405       0x1b bin/blib.a(nvo_cmd.o)
 .text.show_exec
                0x000000000000e420       0xa7 bin/blib.a(nvo_cmd.o)
 .text.reboot_exec
                0x000000000000e4c7       0x23 bin/blib.a(reboot_cmd.o)
 .text.route_exec
                0x000000000000e4ea       0x25 bin/blib.a(route_cmd.o)
 .text.sanboot_core_exec
                0x000000000000e50f       0x9a bin/blib.a(sanboot_cmd.o)
 .text.sanunhook_exec
                0x000000000000e5a9        0xf bin/blib.a(sanboot_cmd.o)
 .text.sanboot_exec
                0x000000000000e5b8        0xf bin/blib.a(sanboot_cmd.o)
 .text.sanhook_exec
                0x000000000000e5c7        0xf bin/blib.a(sanboot_cmd.o)
 .text.sync_exec
                0x000000000000e5d6       0x3b bin/blib.a(sync_cmd.o)
 .text.login_ui
                0x000000000000e611      0x239 bin/blib.a(login_ui.o)
                0x000000000000e611                login_ui
 .text.draw_menu_item
                0x000000000000e84a      0x190 bin/blib.a(menu_ui.o)
 .text.draw_menu_items
                0x000000000000e9da       0xee bin/blib.a(menu_ui.o)
 .text.show_menu
                0x000000000000eac8      0x377 bin/blib.a(menu_ui.o)
                0x000000000000eac8                show_menu
 .text.clearmsg
                0x000000000000ee3f       0x18 bin/blib.a(settings_ui.o)
 .text.vmsg     0x000000000000ee57       0x5b bin/blib.a(settings_ui.o)
 .text.msg      0x000000000000eeb2       0x12 bin/blib.a(settings_ui.o)
 .text.string_copy
                0x000000000000eec4       0x2d bin/blib.a(settings_ui.o)
 .text.draw_setting_row
                0x000000000000eef1      0x107 bin/blib.a(settings_ui.o)
 .text.select_setting_row
                0x000000000000eff8      0x138 bin/blib.a(settings_ui.o)
 .text.reveal_setting_row.part.1
                0x000000000000f130       0xde bin/blib.a(settings_ui.o)
 .text.init_widget
                0x000000000000f20e       0x9b bin/blib.a(settings_ui.o)
 .text.colour_set.constprop.2
                0x000000000000f2a9        0xe bin/blib.a(settings_ui.o)
 .text.alert    0x000000000000f2b7       0x4e bin/blib.a(settings_ui.o)
 .text.main_loop
                0x000000000000f305      0x355 bin/blib.a(settings_ui.o)
 .text.settings_ui
                0x000000000000f65a       0x30 bin/blib.a(settings_ui.o)
                0x000000000000f65a                settings_ui
 .text.wclrtoeol
                0x000000000000f68a       0x31 bin/blib.a(clear.o)
                0x000000000000f68a                wclrtoeol
 .text.erase    0x000000000000f6bb       0x14 bin/blib.a(clear.o)
                0x000000000000f6bb                erase
 .text._wupdcurs
                0x000000000000f6cf       0x16 bin/blib.a(mucurses.o)
 .text._wputch  0x000000000000f6e5       0x4e bin/blib.a(mucurses.o)
                0x000000000000f6e5                _wputch
 .text._wputc   0x000000000000f733        0xb bin/blib.a(mucurses.o)
                0x000000000000f733                _wputc
 .text._wputstr
                0x000000000000f73e       0x2f bin/blib.a(mucurses.o)
                0x000000000000f73e                _wputstr
 .text.wmove    0x000000000000f76d       0x1f bin/blib.a(mucurses.o)
                0x000000000000f76d                wmove
 .text.curs_set
                0x000000000000f78c       0x10 bin/blib.a(mucurses.o)
                0x000000000000f78c                curs_set
 .text._printw_handler
                0x000000000000f79c        0xd bin/blib.a(print.o)
 .text.waddnstr
                0x000000000000f7a9        0xb bin/blib.a(print.o)
                0x000000000000f7a9                waddnstr
 .text.vw_printw
                0x000000000000f7b4       0x1b bin/blib.a(print.o)
                0x000000000000f7b4                vw_printw
 .text.wprintw  0x000000000000f7cf       0x12 bin/blib.a(print.o)
                0x000000000000f7cf                wprintw
 .text.wattroff
                0x000000000000f7e1        0x8 bin/blib.a(winattrs.o)
                0x000000000000f7e1                wattroff
 .text.wattron  0x000000000000f7e9        0x6 bin/blib.a(winattrs.o)
                0x000000000000f7e9                wattron
 .text.wattrset
                0x000000000000f7ef       0x11 bin/blib.a(winattrs.o)
                0x000000000000f7ef                wattrset
 .text.wcolour_set
                0x000000000000f800       0x1f bin/blib.a(winattrs.o)
                0x000000000000f800                wcolour_set
 .text.initscr  0x000000000000f81f       0x33 bin/blib.a(wininit.o)
                0x000000000000f81f                initscr
 .text.endwin   0x000000000000f852       0x5a bin/blib.a(wininit.o)
                0x000000000000f852                endwin
 .text.init_editbox
                0x000000000000f8ac       0x55 bin/blib.a(editbox.o)
                0x000000000000f8ac                init_editbox
 .text.draw_editbox
                0x000000000000f901       0xef bin/blib.a(editbox.o)
                0x000000000000f901                draw_editbox
 .text.shell_banner
                0x000000000000f9f0       0x28 bin/blib.a(autoboot.o)
 .text.uriboot  0x000000000000fa18      0x155 bin/blib.a(autoboot.o)
                0x000000000000fa18                uriboot
 .text.fetch_next_server_and_filename
                0x000000000000fb6d       0xe5 bin/blib.a(autoboot.o)
                0x000000000000fb6d                fetch_next_server_and_filename
 .text.netboot  0x000000000000fc52      0x22a bin/blib.a(autoboot.o)
                0x000000000000fc52                netboot
 .text.ipxe     0x000000000000fe7c       0xd5 bin/blib.a(autoboot.o)
                0x000000000000fe7c                ipxe
 .text.pxebs    0x000000000000ff51       0x3b bin/blib.a(dhcpmgmt.o)
                0x000000000000ff51                pxebs
 .text.ifpoller_progress
                0x000000000000ff8c        0x6 bin/blib.a(ifmgmt.o)
 .text.ifstat_errors
                0x000000000000ff92       0x36 bin/blib.a(ifmgmt.o)
 .text.ifconf_progress
                0x000000000000ffc8       0x4f bin/blib.a(ifmgmt.o)
 .text.iflinkwait_progress
                0x0000000000010017       0x16 bin/blib.a(ifmgmt.o)
 .text.ifopen   0x000000000001002d       0x2b bin/blib.a(ifmgmt.o)
                0x000000000001002d                ifopen
 .text.ifclose  0x0000000000010058        0x5 bin/blib.a(ifmgmt.o)
                0x0000000000010058                ifclose
 .text.ifstat   0x000000000001005d       0xc3 bin/blib.a(ifmgmt.o)
                0x000000000001005d                ifstat
 .text.iflinkwait
                0x0000000000010120       0x6d bin/blib.a(ifmgmt.o)
                0x0000000000010120                iflinkwait
 .text.ifconf   0x000000000001018d       0xe8 bin/blib.a(ifmgmt.o)
                0x000000000001018d                ifconf
 .text.imgdownload
                0x0000000000010275       0xec bin/blib.a(imgmgmt.o)
                0x0000000000010275                imgdownload
 .text.imgdownload_string
                0x0000000000010361       0x3b bin/blib.a(imgmgmt.o)
                0x0000000000010361                imgdownload_string
 .text.imgacquire
                0x000000000001039c       0x31 bin/blib.a(imgmgmt.o)
                0x000000000001039c                imgacquire
 .text.imgstat  0x00000000000103cd       0x7f bin/blib.a(imgmgmt.o)
                0x00000000000103cd                imgstat
 .text.prompt   0x000000000001044c       0x53 bin/blib.a(prompt.o)
                0x000000000001044c                prompt
 .text.pxe_menu_parse
                0x000000000001049f      0x160 bin/blib.a(pxemenu.o)
 .text.pxe_menu_draw_item
                0x00000000000105ff       0xb2 bin/blib.a(pxemenu.o)
 .text.pxe_menu_select
                0x00000000000106b1       0xf2 bin/blib.a(pxemenu.o)
 .text.pxe_menu_boot
                0x00000000000107a3      0x161 bin/blib.a(pxemenu.o)
                0x00000000000107a3                pxe_menu_boot
 .text.route    0x0000000000010904       0x31 bin/blib.a(route.o)
                0x0000000000010904                route
 .text.sync_progress
                0x0000000000010935       0x13 bin/blib.a(sync.o)
 .text.sync     0x0000000000010948       0x1c bin/blib.a(sync.o)
                0x0000000000010948                sync
 .text.pci_autoboot_init
                0x0000000000010964       0x24 bin/blib.a(pci_autoboot.o)
 .text.relocate
                0x0000000000010988       0xd0 bin/blib.a(relocate.o)
                0x0000000000010988                relocate
 .text.timer2_udelay
                0x0000000000010a58       0x33 bin/blib.a(timer2.o)
                0x0000000000010a58                timer2_udelay
 .text.set_interrupt_vector
                0x0000000000010a8b       0x2c bin/blib.a(librm_mgmt.o)
                0x0000000000010a8b                set_interrupt_vector
 .text.init_idt
                0x0000000000010ab7       0x4f bin/blib.a(librm_mgmt.o)
                0x0000000000010ab7                init_idt
 .text.interrupt
                0x0000000000010b06        0xe bin/blib.a(librm_mgmt.o)
                0x0000000000010b06                interrupt
 .text.extmemsize
                0x0000000000010b14       0x70 bin/blib.a(memmap.o)
                0x0000000000010b14                extmemsize
 .text.x86_get_memmap
                0x0000000000010b84      0x1d6 bin/blib.a(memmap.o)
                0x0000000000010b84                get_memmap
                0x0000000000010b84                x86_get_memmap
 .text.hook_bios_interrupt
                0x0000000000010d5a       0x48 bin/blib.a(biosint.o)
                0x0000000000010d5a                hook_bios_interrupt
 .text.unhook_bios_interrupt
                0x0000000000010da2       0x51 bin/blib.a(biosint.o)
                0x0000000000010da2                unhook_bios_interrupt
 .text.bios_cpu_nap
                0x0000000000010df3        0x4 bin/blib.a(bios_nap.o)
                0x0000000000010df3                cpu_nap
 .text.bios_reboot
                0x0000000000010df7       0x27 bin/blib.a(bios_reboot.o)
                0x0000000000010df7                reboot
 .text.bios_currticks
                0x0000000000010e1e       0x3e bin/blib.a(bios_timer.o)
                0x0000000000010e1e                currticks
 .text.int13_command_capacity
                0x0000000000010e5c       0x11 bin/blib.a(int13.o)
 .text.int13_sync_num_drives
                0x0000000000010e6d       0xf1 bin/blib.a(int13.o)
 .text.int13_block_window
                0x0000000000010f5e        0x3 bin/blib.a(int13.o)
 .text.int13_find
                0x0000000000010f61       0x20 bin/blib.a(int13.o)
 .text.int13_block_close
                0x0000000000010f81       0x14 bin/blib.a(int13.o)
 .text.int13_reopen_block
                0x0000000000010f95       0x23 bin/blib.a(int13.o)
 .text.int13_free
                0x0000000000010fb8       0x13 bin/blib.a(int13.o)
 .text.int13_command_close
                0x0000000000010fcb       0x1b bin/blib.a(int13.o)
 .text.int13_command_expired
                0x0000000000010fe6        0xd bin/blib.a(int13.o)
 .text.int13_command_wait.isra.6.constprop.10
                0x0000000000010ff3       0x14 bin/blib.a(int13.o)
 .text.int13_command_start.constprop.11
                0x0000000000011007       0x65 bin/blib.a(int13.o)
 .text.int13_rw
                0x000000000001106c       0xd7 bin/blib.a(int13.o)
 .text.int13_rw_sectors
                0x0000000000011143       0xb6 bin/blib.a(int13.o)
 .text.int13_extended_rw
                0x00000000000111f9      0x103 bin/blib.a(int13.o)
 .text.int13_read_capacity
                0x00000000000112fc       0x42 bin/blib.a(int13.o)
 .text.int13    0x000000000001133e      0x4d4 bin/blib.a(int13.o)
 .text.int13_hook
                0x0000000000011812      0x2f9 bin/blib.a(int13.o)
                0x0000000000011812                san_hook
 .text.int13_unhook
                0x0000000000011b0b       0x58 bin/blib.a(int13.o)
                0x0000000000011b0b                san_unhook
 .text.int13_boot
                0x0000000000011b63      0x15c bin/blib.a(int13.o)
                0x0000000000011b63                san_boot
 .text.int13_describe
                0x0000000000011cbf       0x9e bin/blib.a(int13.o)
                0x0000000000011cbf                san_describe
 .text.memtop_urealloc
                0x0000000000011d5d      0x12b bin/blib.a(memtop_umalloc.o)
                0x0000000000011d5d                urealloc
 .text.pcibios_num_bus
                0x0000000000011e88       0x1d bin/blib.a(pcibios.o)
                0x0000000000011e88                pci_num_bus
 .text.pcibios_read
                0x0000000000011ea5       0x2d bin/blib.a(pcibios.o)
                0x0000000000011ea5                pcibios_read
 .text.pcibios_write
                0x0000000000011ed2       0x24 bin/blib.a(pcibios.o)
                0x0000000000011ed2                pcibios_write
 .text.cpuid_is_supported
                0x0000000000011ef6       0x18 bin/blib.a(cpuid.o)
                0x0000000000011ef6                cpuid_is_supported
 .text.x86_features
                0x0000000000011f0e       0x5b bin/blib.a(cpuid.o)
                0x0000000000011f0e                x86_features
 .text.x86_tcpip_continue_chksum
                0x0000000000011f69       0xca bin/blib.a(x86_tcpip.o)
                0x0000000000011f69                x86_tcpip_continue_chksum
 .text.acpi_describe
                0x0000000000012033       0x40 bin/blib.a(acpi.o)
                0x0000000000012033                acpi_describe
 .text.acpi_fix_checksum
                0x0000000000012073       0x17 bin/blib.a(acpi.o)
                0x0000000000012073                acpi_fix_checksum
 .text.vasprintf
                0x000000000001208a       0x3c bin/blib.a(asprintf.o)
                0x000000000001208a                vasprintf
 .text.asprintf
                0x00000000000120c6       0x12 bin/blib.a(asprintf.o)
                0x00000000000120c6                asprintf
 .text.base16_encode
                0x00000000000120d8       0x40 bin/blib.a(base16.o)
                0x00000000000120d8                base16_encode
 .text.hex_decode
                0x0000000000012118       0x70 bin/blib.a(base16.o)
                0x0000000000012118                hex_decode
 .text.base16_decode
                0x0000000000012188        0xc bin/blib.a(base16.o)
                0x0000000000012188                base16_decode
 .text.base64_encode
                0x0000000000012194       0x7e bin/blib.a(base64.o)
                0x0000000000012194                base64_encode
 .text.base64_decode
                0x0000000000012212       0xc6 bin/blib.a(base64.o)
                0x0000000000012212                base64_decode
 .text.basename
                0x00000000000122d8       0x18 bin/blib.a(basename.o)
                0x00000000000122d8                basename
 .text.dirname  0x00000000000122f0       0x2a bin/blib.a(basename.o)
                0x00000000000122f0                dirname
 .text.bitmap_resize
                0x000000000001231a       0x5a bin/blib.a(bitmap.o)
                0x000000000001231a                bitmap_resize
 .text.bitmap_test
                0x0000000000012374       0x24 bin/blib.a(bitmap.o)
                0x0000000000012374                bitmap_test
 .text.bitmap_set
                0x0000000000012398       0x32 bin/blib.a(bitmap.o)
                0x0000000000012398                bitmap_set
 .text.block_capacity
                0x00000000000123ca       0x2f bin/blib.a(blockdev.o)
                0x00000000000123ca                block_capacity
 .text.block_read_capacity
                0x00000000000123f9       0x3a bin/blib.a(blockdev.o)
                0x00000000000123f9                block_read_capacity
 .text.block_write
                0x0000000000012433       0x50 bin/blib.a(blockdev.o)
                0x0000000000012433                block_write
 .text.block_read
                0x0000000000012483       0x50 bin/blib.a(blockdev.o)
                0x0000000000012483                block_read
 .text.isspace  0x00000000000124d3       0x1f bin/blib.a(ctype.o)
                0x00000000000124d3                isspace
 .text.churi    0x00000000000124f2       0x27 bin/blib.a(cwuri.o)
                0x00000000000124f2                churi
 .text.downloader_progress
                0x0000000000012519       0x11 bin/blib.a(downloader.o)
 .text.downloader_finished
                0x000000000001252a       0x1a bin/blib.a(downloader.o)
 .text.downloader_xfer_deliver
                0x0000000000012544       0x7e bin/blib.a(downloader.o)
 .text.downloader_free
                0x00000000000125c2       0x13 bin/blib.a(downloader.o)
 .text.create_downloader
                0x00000000000125d5       0x84 bin/blib.a(downloader.o)
                0x00000000000125d5                create_downloader
 .text.edd_describe
                0x0000000000012659       0x40 bin/blib.a(edd.o)
                0x0000000000012659                edd_describe
 .text.getchar_timeout
                0x0000000000012699       0x3c bin/blib.a(getkey.o)
 .text.getkey   0x00000000000126d5       0x4a bin/blib.a(getkey.o)
                0x00000000000126d5                getkey
 .text.job_progress
                0x000000000001271f       0x48 bin/blib.a(job.o)
                0x000000000001271f                job_progress
 .text.buffered_line
                0x0000000000012767        0xd bin/blib.a(linebuf.o)
                0x0000000000012767                buffered_line
 .text.empty_line_buffer
                0x0000000000012774       0x20 bin/blib.a(linebuf.o)
                0x0000000000012774                empty_line_buffer
 .text.line_buffer
                0x0000000000012794       0xaa bin/blib.a(linebuf.o)
                0x0000000000012794                line_buffer
 .text.add_menu_item
                0x000000000001283e       0x9a bin/blib.a(menu.o)
                0x000000000001283e                add_menu_item
 .text.destroy_menu
                0x00000000000128d8       0x3a bin/blib.a(menu.o)
                0x00000000000128d8                destroy_menu
 .text.find_menu
                0x0000000000012912       0x2f bin/blib.a(menu.o)
                0x0000000000012912                find_menu
 .text.create_menu
                0x0000000000012941       0x97 bin/blib.a(menu.o)
                0x0000000000012941                create_menu
 .text.monojob_close
                0x00000000000129d8        0xb bin/blib.a(monojob.o)
 .text.monojob_wait
                0x00000000000129e3      0x182 bin/blib.a(monojob.o)
                0x00000000000129e3                monojob_wait
 .text.find_parameters
                0x0000000000012b65       0x33 bin/blib.a(params.o)
                0x0000000000012b65                find_parameters
 .text.pending_get
                0x0000000000012b98        0x9 bin/blib.a(pending.o)
                0x0000000000012b98                pending_get
 .text.pending_put
                0x0000000000012ba1        0xe bin/blib.a(pending.o)
                0x0000000000012ba1                pending_put
 .text.srandom  0x0000000000012baf        0x6 bin/blib.a(random.o)
                0x0000000000012baf                srandom
 .text.random   0x0000000000012bb5       0x54 bin/blib.a(random.o)
                0x0000000000012bb5                random
 .text.named_window
                0x0000000000012c09        0x3 bin/blib.a(resolv.o)
 .text.named_close
                0x0000000000012c0c       0x1a bin/blib.a(resolv.o)
 .text.numeric_resolv
                0x0000000000012c26       0x83 bin/blib.a(resolv.o)
 .text.named_resolv_done
                0x0000000000012ca9       0x45 bin/blib.a(resolv.o)
 .text.resmux_child_close
                0x0000000000012cee       0x4a bin/blib.a(resolv.o)
 .text.resolv_done
                0x0000000000012d38       0x2f bin/blib.a(resolv.o)
                0x0000000000012d38                resolv_done
 .text.numeric_step
                0x0000000000012d67       0x20 bin/blib.a(resolv.o)
 .text.resmux_child_resolv_done
                0x0000000000012d87        0x8 bin/blib.a(resolv.o)
 .text.resolv   0x0000000000012d8f       0xab bin/blib.a(resolv.o)
                0x0000000000012d8f                resolv
 .text.xfer_open_named_socket
                0x0000000000012e3a       0x96 bin/blib.a(resolv.o)
                0x0000000000012e3a                xfer_open_named_socket
 .text.aoecmd_ata_cmd_len
                0x0000000000012ed0        0x7 bin/blib.a(aoe.o)
 .text.aoecmd_cfg_cmd_len
                0x0000000000012ed7        0x6 bin/blib.a(aoe.o)
 .text.aoecmd_cfg_cmd
                0x0000000000012edd       0x13 bin/blib.a(aoe.o)
 .text.aoecmd_find_tag
                0x0000000000012ef0       0x20 bin/blib.a(aoe.o)
 .text.aoedev_window
                0x0000000000012f10        0x9 bin/blib.a(aoe.o)
 .text.aoedev_identify_device
                0x0000000000012f19        0x7 bin/blib.a(aoe.o)
 .text.aoecmd_close
                0x0000000000012f20       0x44 bin/blib.a(aoe.o)
 .text.aoecmd_create
                0x0000000000012f64       0x92 bin/blib.a(aoe.o)
 .text.aoedev_close
                0x0000000000012ff6       0x5a bin/blib.a(aoe.o)
 .text.aoecmd_free
                0x0000000000013050       0x13 bin/blib.a(aoe.o)
 .text.aoedev_free
                0x0000000000013063       0x13 bin/blib.a(aoe.o)
 .text.aoecmd_tx
                0x0000000000013076       0xaa bin/blib.a(aoe.o)
 .text.aoecmd_expired
                0x0000000000013120       0x16 bin/blib.a(aoe.o)
 .text.aoecmd_ata_cmd
                0x0000000000013136       0x74 bin/blib.a(aoe.o)
 .text.aoecmd_ata_rsp
                0x00000000000131aa       0x3e bin/blib.a(aoe.o)
 .text.aoecmd_cfg_rsp
                0x00000000000131e8       0x2b bin/blib.a(aoe.o)
 .text.aoedev_ata_command
                0x0000000000013213       0x55 bin/blib.a(aoe.o)
 .text.aoe_rx   0x0000000000013268       0xdc bin/blib.a(aoe.o)
 .text.aoedev_describe
                0x0000000000013344       0x3c bin/blib.a(aoe.o)
 .text.aoedev_config_done
                0x0000000000013380       0x2e bin/blib.a(aoe.o)
 .text.aoe_open
                0x00000000000133ae      0x145 bin/blib.a(aoe.o)
 .text.used_len_ipv4
                0x00000000000134f3        0xb bin/blib.a(dhcppkt.o)
 .text.dhcppkt_settings_applies
                0x00000000000134fe       0x19 bin/blib.a(dhcppkt.o)
 .text.used_len_string
                0x0000000000013517        0x5 bin/blib.a(dhcppkt.o)
 .text.dhcppkt_store
                0x000000000001351c       0x8e bin/blib.a(dhcppkt.o)
                0x000000000001351c                dhcppkt_store
 .text.dhcppkt_settings_store
                0x00000000000135aa        0xb bin/blib.a(dhcppkt.o)
 .text.dhcppkt_fetch
                0x00000000000135b5       0x83 bin/blib.a(dhcppkt.o)
                0x00000000000135b5                dhcppkt_fetch
 .text.dhcppkt_settings_fetch
                0x0000000000013638        0xb bin/blib.a(dhcppkt.o)
 .text.dhcppkt_init
                0x0000000000013643       0x44 bin/blib.a(dhcppkt.o)
                0x0000000000013643                dhcppkt_init
 .text.fragment_expired
                0x0000000000013687       0x28 bin/blib.a(fragment.o)
 .text.fragment_reassemble
                0x00000000000136af      0x17e bin/blib.a(fragment.o)
                0x00000000000136af                fragment_reassemble
 .text.icmpv4_rx
                0x000000000001382d       0x61 bin/blib.a(icmpv4.o)
 .text.sock_aton
                0x000000000001388e       0x36 bin/blib.a(socket.o)
                0x000000000001388e                sock_aton
 .text.tcp_demux
                0x00000000000138c4       0x20 bin/blib.a(tcp.o)
 .text.tcp_rx_seq
                0x00000000000138e4       0x23 bin/blib.a(tcp.o)
 .text.tcp_discard
                0x0000000000013907       0x4f bin/blib.a(tcp.o)
 .text.tcp_process_tx_queue
                0x0000000000013956       0x9e bin/blib.a(tcp.o)
 .text.tcp_rx_ack
                0x00000000000139f4       0xaf bin/blib.a(tcp.o)
 .text.tcp_close
                0x0000000000013aa3      0x106 bin/blib.a(tcp.o)
 .text.tcp_wait_expired
                0x0000000000013ba9       0x1a bin/blib.a(tcp.o)
 .text.tcp_shutdown
                0x0000000000013bc3       0x30 bin/blib.a(tcp.o)
 .text.tcp_open
                0x0000000000013bf3      0x12c bin/blib.a(tcp.o)
 .text.tcp_xfer_window
                0x0000000000013d1f       0x2e bin/blib.a(tcp.o)
 .text.tcp_port_available
                0x0000000000013d4d       0x15 bin/blib.a(tcp.o)
 .text.tcp_open_uri
                0x0000000000013d62       0x50 bin/blib.a(tcp.o)
 .text.tcp_xmit
                0x0000000000013db2      0x1f0 bin/blib.a(tcp.o)
 .text.tcp_xfer_close
                0x0000000000013fa2       0x10 bin/blib.a(tcp.o)
 .text.tcp_xfer_deliver
                0x0000000000013fb2       0x23 bin/blib.a(tcp.o)
 .text.tcp_expired
                0x0000000000013fd5       0x29 bin/blib.a(tcp.o)
 .text.tcp_rx   0x0000000000013ffe      0x460 bin/blib.a(tcp.o)
 .text.atacmd_done
                0x000000000001445e        0x7 bin/blib.a(ata.o)
 .text.atacmd_data_buffer
                0x0000000000014465        0xf bin/blib.a(ata.o)
 .text.atacmd_data_none
                0x0000000000014474        0x3 bin/blib.a(ata.o)
 .text.atacmd_data_priv
                0x0000000000014477       0x18 bin/blib.a(ata.o)
 .text.atadev_edd_describe
                0x000000000001448f       0x17 bin/blib.a(ata.o)
 .text.atacmd_close
                0x00000000000144a6       0x1a bin/blib.a(ata.o)
 .text.atadev_close
                0x00000000000144c0       0x5a bin/blib.a(ata.o)
 .text.atacmd_identify_done
                0x000000000001451a       0x6e bin/blib.a(ata.o)
 .text.atacmd_free
                0x0000000000014588       0x1e bin/blib.a(ata.o)
 .text.ata_command
                0x00000000000145a6       0x40 bin/blib.a(ata.o)
                0x00000000000145a6                ata_command
 .text.atadev_command
                0x00000000000145e6      0x14a bin/blib.a(ata.o)
 .text.atadev_read_capacity
                0x0000000000014730       0x18 bin/blib.a(ata.o)
 .text.atadev_write
                0x0000000000014748        0xc bin/blib.a(ata.o)
 .text.atadev_read
                0x0000000000014754        0xc bin/blib.a(ata.o)
 .text.ata_open
                0x0000000000014760       0x73 bin/blib.a(ata.o)
                0x0000000000014760                ata_open
 .text.find_smbios_entry
                0x00000000000147d3       0x74 bin/blib.a(smbios.o)
                0x00000000000147d3                find_smbios_entry
 .text.find_smbios_structure
                0x0000000000014847       0xc8 bin/blib.a(smbios.o)
                0x0000000000014847                find_smbios_structure
 .text.read_smbios_structure
                0x000000000001490f       0x21 bin/blib.a(smbios.o)
                0x000000000001490f                read_smbios_structure
 .text.read_smbios_string
                0x0000000000014930       0x6d bin/blib.a(smbios.o)
                0x0000000000014930                read_smbios_string
 .text.smbios_version
                0x000000000001499d       0x1f bin/blib.a(smbios.o)
                0x000000000001499d                smbios_version
 .text.insert_delete
                0x00000000000149bc       0xa5 bin/blib.a(editstring.o)
 .text.replace_string
                0x0000000000014a61       0x11 bin/blib.a(editstring.o)
                0x0000000000014a61                replace_string
 .text.edit_string
                0x0000000000014a72      0x117 bin/blib.a(editstring.o)
                0x0000000000014a72                edit_string
 .text.sync_console
                0x0000000000014b89       0x7c bin/blib.a(readline.o)
 .text.history_free
                0x0000000000014c05       0x17 bin/blib.a(readline.o)
                0x0000000000014c05                history_free
 .text.readline_history
                0x0000000000014c1c      0x1d5 bin/blib.a(readline.o)
                0x0000000000014c1c                readline_history
 .text.help_exec
                0x0000000000014df1       0x66 bin/blib.a(shell.o)
 .text.shell    0x0000000000014e57       0x5e bin/blib.a(shell.o)
                0x0000000000014e57                shell
 .text.shell_exec
                0x0000000000014eb5       0x1b bin/blib.a(shell.o)
 .text.ansiscr_cursor
                0x0000000000014ed0       0x19 bin/blib.a(ansi_screen.o)
 .text.ansiscr_movetoyx
                0x0000000000014ee9       0x30 bin/blib.a(ansi_screen.o)
 .text.ansiscr_peek
                0x0000000000014f19        0x5 bin/blib.a(ansi_screen.o)
 .text.ansiscr_getc
                0x0000000000014f1e        0x5 bin/blib.a(ansi_screen.o)
 .text.ansiscr_exit
                0x0000000000014f23       0x3c bin/blib.a(ansi_screen.o)
 .text.ansiscr_init
                0x0000000000014f5f       0x48 bin/blib.a(ansi_screen.o)
 .text.ansiscr_attrs.isra.0
                0x0000000000014fa7       0x31 bin/blib.a(ansi_screen.o)
 .text.ansiscr_erase
                0x0000000000014fd8       0x14 bin/blib.a(ansi_screen.o)
 .text.ansiscr_putc
                0x0000000000014fec       0x35 bin/blib.a(ansi_screen.o)
 .text.route_ipv4_print
                0x0000000000015021       0x87 bin/blib.a(route_ipv4.o)
 .text.unhide_etherboot
                0x00000000000150a8       0x39 bin/blib.a(hidemem.o)
 .text.hide_basemem
                0x00000000000150e1       0x28 bin/blib.a(hidemem.o)
                0x00000000000150e1                hide_basemem
 .text.hide_umalloc
                0x0000000000015109       0x3a bin/blib.a(hidemem.o)
                0x0000000000015109                hide_umalloc
 .text.hide_textdata
                0x0000000000015143       0x47 bin/blib.a(hidemem.o)
                0x0000000000015143                hide_textdata
 .text.hide_etherboot
                0x000000000001518a       0x8b bin/blib.a(hidemem.o)
 .text.call_bootsector
                0x0000000000015215       0x7a bin/blib.a(bootsector.o)
                0x0000000000015215                call_bootsector
 .text.bios_find_smbios
                0x000000000001528f       0x57 bin/blib.a(bios_smbios.o)
                0x000000000001528f                find_smbios
 .text.ansicol_set
                0x00000000000152e6       0x10 bin/blib.a(ansicol.o)
                0x00000000000152e6                ansicol_set
 .text.ansicol_set_pair
                0x00000000000152f6       0x29 bin/blib.a(ansicol.o)
                0x00000000000152f6                ansicol_set_pair
 .text.find_dhcp_option_with_encap
                0x000000000001531f       0x8b bin/blib.a(dhcpopts.o)
 .text.set_dhcp_option
                0x00000000000153aa      0x1d6 bin/blib.a(dhcpopts.o)
 .text.dhcpopt_no_realloc
                0x0000000000015580        0xf bin/blib.a(dhcpopts.o)
                0x0000000000015580                dhcpopt_no_realloc
 .text.dhcpopt_applies
                0x000000000001558f        0xd bin/blib.a(dhcpopts.o)
                0x000000000001558f                dhcpopt_applies
 .text.dhcpopt_store
                0x000000000001559c       0x17 bin/blib.a(dhcpopts.o)
                0x000000000001559c                dhcpopt_store
 .text.dhcpopt_fetch
                0x00000000000155b3       0x36 bin/blib.a(dhcpopts.o)
                0x00000000000155b3                dhcpopt_fetch
 .text.dhcpopt_update_used_len
                0x00000000000155e9       0x50 bin/blib.a(dhcpopts.o)
                0x00000000000155e9                dhcpopt_update_used_len
 .text.dhcpopt_init
                0x0000000000015639       0x14 bin/blib.a(dhcpopts.o)
                0x0000000000015639                dhcpopt_init
 .text.icmp_tx_echo
                0x000000000001564d       0x43 bin/blib.a(icmp.o)
 .text.icmp_rx_echo_request
                0x0000000000015690       0x28 bin/blib.a(icmp.o)
                0x0000000000015690                icmp_rx_echo_request
 .text.ping_rx  0x00000000000156b8        0x8 bin/blib.a(icmp.o)
                0x00000000000156b8                ping_rx
 .text.icmp_rx_echo_reply
                0x00000000000156c0       0x1b bin/blib.a(icmp.o)
                0x00000000000156c0                icmp_rx_echo_reply
 *(.rodata)
 *fill*         0x00000000000156db        0x1 00
 .rodata        0x00000000000156dc        0xc bin/blib.a(xfer.o)
 .rodata        0x00000000000156e8       0xc4 bin/blib.a(embedded.o)
 *(.rodata.*)
 .rodata.product_short_name
                0x00000000000157ac        0x5 bin/version.8086100f.mrom.o
                0x00000000000157ac                product_short_name
 *fill*         0x00000000000157b1        0x3 00
 .rodata.product_version
                0x00000000000157b4        0xe bin/version.8086100f.mrom.o
                0x00000000000157b4                product_version
 .rodata.str1.1
                0x00000000000157c2      0x359 bin/blib.a(intel.o)
 .rodata.str1.1
                0x0000000000000000      0x359 bin/blib.a(bios_console.o)
                                          0x1 (size before relaxing)
 *fill*         0x0000000000015b1b        0x1 00
 .rodata.ansi_sequences
                0x0000000000015b1c       0x58 bin/blib.a(bios_console.o)
 .rodata.bios_attr_fcols.1592
                0x0000000000015b74        0xa bin/blib.a(bios_console.o)
 *fill*         0x0000000000015b7e        0x2 00
 .rodata.bios_attr_bcols.1593
                0x0000000000015b80        0xa bin/blib.a(bios_console.o)
 .rodata.str1.1
                0x0000000000015b8a       0x2a bin/blib.a(bzimage.o)
                                         0x2f (size before relaxing)
 .rodata.str1.1
                0x0000000000015bb4        0x4 bin/blib.a(elfboot.o)
 .rodata.e_ident.2531
                0x0000000000015bb8        0x7 bin/blib.a(elfboot.o)
 .rodata.str1.1
                0x0000000000015bbf       0x18 bin/blib.a(multiboot.o)
                                         0x1c (size before relaxing)
 .rodata.str1.1
                0x0000000000000000       0x18 bin/blib.a(pxe_image.o)
                                          0x4 (size before relaxing)
 .rodata.str1.1
                0x0000000000015bd7        0x6 bin/blib.a(pxe_file.o)
 .rodata.str1.1
                0x0000000000015bdd       0x13 bin/blib.a(pxe_tftp.o)
                                         0x1b (size before relaxing)
 .rodata.str1.1
                0x0000000000015bf0        0xa bin/blib.a(pxe_undi.o)
 .rodata.str1.1
                0x0000000000015bfa       0x14 bin/blib.a(cpuid_cmd.o)
                                         0x18 (size before relaxing)
 .rodata.str1.1
                0x0000000000015c0e        0x6 bin/blib.a(cpio.o)
 .rodata.str1.1
                0x0000000000015c14       0x67 bin/blib.a(exec.o)
                                         0x7b (size before relaxing)
 .rodata.str1.1
                0x0000000000015c7b       0x9a bin/blib.a(getopt.o)
 .rodata.str1.1
                0x0000000000015d15        0x6 bin/blib.a(image.o)
 .rodata.str1.1
                0x0000000000015d1b       0x1b bin/blib.a(main.o)
                                         0x1f (size before relaxing)
 .rodata.str1.1
                0x0000000000015d36      0x140 bin/blib.a(parseopt.o)
                                        0x147 (size before relaxing)
 .rodata.str1.1
                0x0000000000015e76      0x161 bin/blib.a(settings.o)
                                        0x19b (size before relaxing)
 *fill*         0x0000000000015fd7        0x1 00
 .rodata.setting_type_int_name
                0x0000000000015fd8       0x18 bin/blib.a(settings.o)
 .rodata.buildarch.4102
                0x0000000000015ff0        0x5 bin/blib.a(settings.o)
 *fill*         0x0000000000015ff5        0x3 00
 .rodata.platform.4109
                0x0000000000015ff8        0x7 bin/blib.a(settings.o)
 .rodata.str1.1
                0x0000000000015fff       0x22 bin/blib.a(uri.o)
                                         0x3f (size before relaxing)
 *fill*         0x0000000000016021        0x3 00
 .rodata.escaped.1416
                0x0000000000016024       0x24 bin/blib.a(uri.o)
 .rodata.prefixes.1510
                0x0000000000016048        0x9 bin/blib.a(uri.o)
 .rodata.str1.1
                0x0000000000016051       0x2d bin/blib.a(uuid.o)
 .rodata.str1.1
                0x000000000001607e       0x18 bin/blib.a(vsprintf.o)
 .rodata.str1.1
                0x0000000000016096        0x6 bin/blib.a(arp.o)
                                          0xa (size before relaxing)
 .rodata.str1.1
                0x000000000001609c       0x27 bin/blib.a(ethernet.o)
 .rodata.str1.1
                0x00000000000160c3        0x5 bin/blib.a(eth_slow.o)
 .rodata.eth_slow_address
                0x00000000000160c8        0x6 bin/blib.a(eth_slow.o)
 .rodata.str1.1
                0x00000000000160ce       0x10 bin/blib.a(fakedhcp.o)
                                         0x11 (size before relaxing)
 .rodata.str1.1
                0x00000000000160de       0x43 bin/blib.a(ipv4.o)
                                         0x51 (size before relaxing)
 .rodata.str1.1
                0x0000000000016121        0xa bin/blib.a(neighbour.o)
 .rodata.str1.1
                0x000000000001612b       0x2a bin/blib.a(netdevice.o)
 .rodata.str1.1
                0x0000000000016155       0x64 bin/blib.a(netdev_settings.o)
                                         0x6d (size before relaxing)
 *fill*         0x00000000000161b9        0x3 00
 .rodata.bustypes.2436
                0x00000000000161bc       0x1c bin/blib.a(netdev_settings.o)
 .rodata.str1.1
                0x00000000000161d8        0xc bin/blib.a(rarp.o)
 .rodata.str1.1
                0x00000000000161e4        0x8 bin/blib.a(udp.o)
 .rodata.empty_sockaddr.2296
                0x00000000000161ec       0x20 bin/blib.a(udp.o)
 .rodata.str1.1
                0x000000000001620c        0xa bin/blib.a(http.o)
 .rodata.str1.1
                0x0000000000016216      0x1ce bin/blib.a(httpcore.o)
                                        0x1d7 (size before relaxing)
 .rodata.http_socket_deliver
                0x00000000000163e4       0x1c bin/blib.a(httpcore.o)
 .rodata.colon.2922
                0x0000000000016400        0x1 bin/blib.a(httpcore.o)
 .rodata.str1.1
                0x0000000000016401      0x271 bin/blib.a(iscsi.o)
                                        0x278 (size before relaxing)
 .rodata.str1.1
                0x0000000000016672       0x44 bin/blib.a(dhcp.o)
                                         0x59 (size before relaxing)
 *fill*         0x00000000000166b6        0x2 00
 .rodata.dhcp_op
                0x00000000000166b8        0x9 bin/blib.a(dhcp.o)
 .rodata.str1.1
                0x00000000000166c1       0x2e bin/blib.a(dns.o)
                                         0x2f (size before relaxing)
 .rodata.str1.1
                0x00000000000166ef       0x76 bin/blib.a(tftp.o)
                                         0x7b (size before relaxing)
 *fill*         0x0000000000016765        0x3 00
 .rodata.e_ident.1713
                0x0000000000016768        0x5 bin/blib.a(elf.o)
 .rodata.str1.1
                0x000000000001676d        0xf bin/blib.a(embedded.o)
 .rodata.str1.1
                0x000000000001677c       0x45 bin/blib.a(script.o)
 *fill*         0x00000000000167c1        0x3 00
 .rodata.ipxe_magic.2167
                0x00000000000167c4        0x7 bin/blib.a(script.o)
 *fill*         0x00000000000167cb        0x1 00
 .rodata.gpxe_magic.2168
                0x00000000000167cc        0x7 bin/blib.a(script.o)
 .rodata.str1.1
                0x00000000000167d3       0x1f bin/blib.a(segment.o)
 .rodata.str1.1
                0x00000000000167f2       0x10 bin/blib.a(pci.o)
 .rodata.str1.1
                0x0000000000016802        0x4 bin/blib.a(pci_settings.o)
 .rodata.str1.1
                0x0000000000016806       0x29 bin/blib.a(scsi.o)
 .rodata.str1.1
                0x000000000001682f       0x78 bin/blib.a(smbios_settings.o)
                                         0x84 (size before relaxing)
 .rodata.str1.1
                0x00000000000168a7        0x4 bin/blib.a(md5.o)
 *fill*         0x00000000000168ab        0x1 00
 .rodata.r      0x00000000000168ac       0x40 bin/blib.a(md5.o)
 .rodata.k      0x00000000000168ec      0x100 bin/blib.a(md5.o)
 .rodata.str1.1
                0x00000000000169ec      0x1a2 bin/blib.a(strerror.o)
 .rodata.str1.1
                0x0000000000016b8e       0x1a bin/blib.a(autoboot_cmd.o)
 .rodata.str1.1
                0x0000000000016ba8       0x2e bin/blib.a(config_cmd.o)
                                         0x2f (size before relaxing)
 .rodata.str1.1
                0x0000000000016bd6       0x44 bin/blib.a(dhcp_cmd.o)
                                         0x4f (size before relaxing)
 .rodata.str1.1
                0x0000000000016c1a       0x2a bin/blib.a(ifmgmt_cmd.o)
                                         0x3b (size before relaxing)
 .rodata.str1.1
                0x0000000000016c44      0x138 bin/blib.a(image_cmd.o)
                                        0x151 (size before relaxing)
 .rodata.str1.1
                0x0000000000016d7c       0x25 bin/blib.a(login_cmd.o)
 .rodata.str1.1
                0x0000000000016da1       0x6f bin/blib.a(menu_cmd.o)
                                         0x81 (size before relaxing)
 .rodata.str1.1
                0x0000000000016e10       0x60 bin/blib.a(nvo_cmd.o)
                                         0x88 (size before relaxing)
 .rodata.str1.1
                0x0000000000016e70        0xc bin/blib.a(reboot_cmd.o)
 .rodata.str1.1
                0x0000000000016e7c        0x6 bin/blib.a(route_cmd.o)
 .rodata.str1.1
                0x0000000000016e82       0x46 bin/blib.a(sanboot_cmd.o)
                                         0x4b (size before relaxing)
 .rodata.str1.1
                0x0000000000016ec8       0x26 bin/blib.a(sync_cmd.o)
                                         0x2e (size before relaxing)
 .rodata.str1.1
                0x0000000000016eee       0x14 bin/blib.a(login_ui.o)
 .rodata.str1.1
                0x0000000000016f02        0x6 bin/blib.a(menu_ui.o)
                                         0x11 (size before relaxing)
 .rodata.str1.1
                0x0000000000016f08       0xd3 bin/blib.a(settings_ui.o)
                                         0xe3 (size before relaxing)
 .rodata.str1.1
                0x0000000000000000        0x2 bin/blib.a(wininit.o)
 .rodata.str1.1
                0x0000000000000000        0x3 bin/blib.a(editbox.o)
 .rodata.str1.1
                0x0000000000016fdb      0x499 bin/blib.a(autoboot.o)
                                        0x4b0 (size before relaxing)
 .rodata.str1.1
                0x0000000000017474       0x13 bin/blib.a(dhcpmgmt.o)
                                         0x14 (size before relaxing)
 .rodata.str1.1
                0x0000000000017487      0x10f bin/blib.a(ifmgmt.o)
                                        0x117 (size before relaxing)
 .rodata.str1.1
                0x0000000000017596       0x7e bin/blib.a(imgmgmt.o)
                                         0x80 (size before relaxing)
 .rodata.str1.1
                0x0000000000017614        0x4 bin/blib.a(prompt.o)
                                          0x7 (size before relaxing)
 .rodata.str1.1
                0x0000000000017618        0xe bin/blib.a(pxemenu.o)
                                         0x21 (size before relaxing)
 .rodata.str1.1
                0x0000000000017626        0xc bin/blib.a(int13.o)
 *fill*         0x0000000000017632        0x2 00
 .rodata.primary_check.3015
                0x0000000000017634        0x6 bin/blib.a(int13.o)
 *fill*         0x000000000001763a        0x2 00
 .rodata.boot_check.3017
                0x000000000001763c       0x27 bin/blib.a(int13.o)
 *fill*         0x0000000000017663        0x1 00
 .rodata.int13_fdd_geometries
                0x0000000000017664       0x28 bin/blib.a(int13.o)
 .rodata.str1.1
                0x0000000000000000        0xc bin/blib.a(base16.o)
                                          0x5 (size before relaxing)
 .rodata.base64
                0x000000000001768c       0x40 bin/blib.a(base64.o)
 .rodata.str1.1
                0x0000000000000000        0xc bin/blib.a(basename.o)
                                          0x4 (size before relaxing)
 .rodata.str1.1
                0x0000000000000000        0x1 bin/blib.a(menu.o)
 .rodata.str1.1
                0x00000000000176cc       0x1e bin/blib.a(monojob.o)
                                         0x25 (size before relaxing)
 .rodata.str1.1
                0x00000000000176ea        0x8 bin/blib.a(resolv.o)
 .rodata.str1.1
                0x00000000000176f2        0x8 bin/blib.a(aoe.o)
 .rodata.str1.1
                0x00000000000176fa        0x7 bin/blib.a(icmpv4.o)
 .rodata.str1.1
                0x0000000000017701        0x8 bin/blib.a(tcp.o)
 .rodata.str1.1
                0x0000000000017709        0x9 bin/blib.a(ata.o)
                                         0x14 (size before relaxing)
 .rodata.str1.1
                0x0000000000000000        0x3 bin/blib.a(readline.o)
 .rodata.str1.1
                0x0000000000017712       0x51 bin/blib.a(shell.o)
                                         0x5f (size before relaxing)
 *fill*         0x0000000000017763        0x1 00
 .rodata.shell_prompt
                0x0000000000017764        0x7 bin/blib.a(shell.o)
 .rodata.str1.1
                0x000000000001776b       0x22 bin/blib.a(ansi_screen.o)
 .rodata.str1.1
                0x000000000001778d       0x1f bin/blib.a(route_ipv4.o)
                                         0x24 (size before relaxing)
 .rodata.str1.1
                0x00000000000177ac        0x8 bin/blib.a(ansicol.o)
 .rodata.empty_encap.2517
                0x00000000000177b4        0x1 bin/blib.a(dhcpopts.o)
 *(.data)
 *fill*         0x00000000000177b5        0x3 00
 .data          0x00000000000177b8       0x20 bin/blib.a(librm.o)
                0x00000000000177c4                rm_sp
                0x00000000000177c6                rm_ss
                0x00000000000177cc                virt_offset
                0x00000000000177d0                text16
                0x00000000000177d4                data16
 *(.data.*)
 .data.intel_operations
                0x00000000000177d8       0x14 bin/blib.a(intel.o)
 .data.intel_nics
                0x00000000000177ec      0x570 bin/blib.a(intel.o)
 .data.ansi_input
                0x0000000000017d5c        0x4 bin/blib.a(bios_console.o)
 .data.bios_ansiesc_ctx
                0x0000000000017d60       0x20 bin/blib.a(bios_console.o)
 .data.bios_attr
                0x0000000000017d80        0x4 bin/blib.a(bios_console.o)
 .data.bios_ansiesc_handlers
                0x0000000000017d84       0x20 bin/blib.a(bios_console.o)
 .data.pxe_dhcp_packet_creators
                0x0000000000017da4        0xc bin/blib.a(pxe_preboot.o)
 .data.pxe_tftp
                0x0000000000017db0       0x2c bin/blib.a(pxe_tftp.o)
 .data.pxe_tftp_xfer_desc
                0x0000000000017ddc       0x10 bin/blib.a(pxe_tftp.o)
 .data.pxe_tftp_xfer_ops
                0x0000000000017dec       0x18 bin/blib.a(pxe_tftp.o)
 .data.pxe_udp  0x0000000000017e04       0x30 bin/blib.a(pxe_udp.o)
 .data.pxe_udp_xfer_desc
                0x0000000000017e34       0x10 bin/blib.a(pxe_udp.o)
 .data.pxe_udp_xfer_operations
                0x0000000000017e44        0x8 bin/blib.a(pxe_udp.o)
 .data.cpuid_cmd
                0x0000000000017e4c        0xc bin/blib.a(cpuid_cmd.o)
 .data.cpuid_opts
                0x0000000000017e58       0x24 bin/blib.a(cpuid_cmd.o)
 .data.console_height
                0x0000000000017e7c        0x4 bin/blib.a(console.o)
                0x0000000000017e7c                console_height
 .data.console_width
                0x0000000000017e80        0x4 bin/blib.a(console.o)
                0x0000000000017e80                console_width
 .data.console_usage
                0x0000000000017e84        0x4 bin/blib.a(console.o)
                0x0000000000017e84                console_usage
 .data.devices  0x0000000000017e88        0x8 bin/blib.a(device.o)
 .data.echo_cmd
                0x0000000000017e90        0xc bin/blib.a(exec.o)
 .data.exit_cmd
                0x0000000000017e9c        0xc bin/blib.a(exec.o)
 .data.isset_cmd
                0x0000000000017ea8        0xc bin/blib.a(exec.o)
 .data.iseq_cmd
                0x0000000000017eb4        0xc bin/blib.a(exec.o)
 .data.sleep_cmd
                0x0000000000017ec0        0xc bin/blib.a(exec.o)
 .data.echo_opts
                0x0000000000017ecc        0xc bin/blib.a(exec.o)
 .data.images   0x0000000000017ed8        0x8 bin/blib.a(image.o)
                0x0000000000017ed8                images
 .data.null_intf
                0x0000000000017ee0        0xc bin/blib.a(interface.o)
                0x0000000000017ee0                null_intf
 .data.null_intf_desc
                0x0000000000017eec       0x10 bin/blib.a(interface.o)
                0x0000000000017eec                null_intf_desc
 .data.null_intf_op
                0x0000000000017efc        0x8 bin/blib.a(interface.o)
 .data.free_blocks
                0x0000000000017f04        0x8 bin/blib.a(malloc.o)
 .data.posix_file_xfer_desc
                0x0000000000017f0c       0x10 bin/blib.a(posix_io.o)
 .data.posix_files
                0x0000000000017f1c        0x8 bin/blib.a(posix_io.o)
 .data.posix_file_xfer_operations
                0x0000000000017f24       0x10 bin/blib.a(posix_io.o)
 .data.run_queue
                0x0000000000017f34        0x8 bin/blib.a(process.o)
 .data.generic_settings_root
                0x0000000000017f3c       0x2c bin/blib.a(settings.o)
                0x0000000000017f3c                generic_settings_root
 .data.generic_settings_operations
                0x0000000000017f68       0x14 bin/blib.a(settings.o)
                0x0000000000017f68                generic_settings_operations
 .data.builtin_settings
                0x0000000000017f7c       0x24 bin/blib.a(settings.o)
 .data.builtin_settings_operations
                0x0000000000017fa0       0x14 bin/blib.a(settings.o)
 .data.type_sizes
                0x0000000000017fb4        0x6 bin/blib.a(vsprintf.o)
 *fill*         0x0000000000017fba        0x2 00
 .data.arp_discovery
                0x0000000000017fbc        0x8 bin/blib.a(arp.o)
                0x0000000000017fbc                arp_discovery
 .data.eth_broadcast
                0x0000000000017fc4        0x6 bin/blib.a(ethernet.o)
                0x0000000000017fc4                eth_broadcast
 *fill*         0x0000000000017fca        0x2 00
 .data.ipv4_miniroutes
                0x0000000000017fcc        0x8 bin/blib.a(ipv4.o)
                0x0000000000017fcc                ipv4_miniroutes
 .data.ipv4_reassembler
                0x0000000000017fd4       0x18 bin/blib.a(ipv4.o)
 .data.neighbours
                0x0000000000017fec        0x8 bin/blib.a(neighbour.o)
                0x0000000000017fec                neighbours
 .data.net_devices
                0x0000000000017ff4        0x8 bin/blib.a(netdevice.o)
                0x0000000000017ff4                net_devices
 .data.netdev_config_desc
                0x0000000000017ffc       0x10 bin/blib.a(netdevice.o)
 .data.open_net_devices
                0x000000000001800c        0x8 bin/blib.a(netdevice.o)
 .data.net_process_desc
                0x0000000000018014        0xc bin/blib.a(netdevice.o)
 .data.netdev_config_ops
                0x0000000000018020        0x8 bin/blib.a(netdevice.o)
 .data.netdev_settings_operations
                0x0000000000018028       0x14 bin/blib.a(netdev_settings.o)
                0x0000000000018028                netdev_settings_operations
 .data.netdev_redirect_settings
                0x000000000001803c       0x24 bin/blib.a(netdev_settings.o)
 .data.netdev_setting_operations
                0x0000000000018060       0x3c bin/blib.a(netdev_settings.o)
 .data.netdev_redirect_settings_operations
                0x000000000001809c       0x14 bin/blib.a(netdev_settings.o)
 .data.null_netdev_operations
                0x00000000000180b0       0x14 bin/blib.a(nullnet.o)
                0x00000000000180b0                null_netdev_operations
 .data.timers   0x00000000000180c4        0x8 bin/blib.a(retry.o)
 .data.retry_process_desc
                0x00000000000180cc        0xc bin/blib.a(retry.o)
 .data.udp_sock_dgram
                0x00000000000180d8        0x4 bin/blib.a(udp.o)
                0x00000000000180d8                udp_sock_dgram
 .data.udp_xfer_desc
                0x00000000000180dc       0x10 bin/blib.a(udp.o)
 .data.udp_conns
                0x00000000000180ec        0x8 bin/blib.a(udp.o)
 .data.udp_xfer_operations
                0x00000000000180f4       0x18 bin/blib.a(udp.o)
 .data.http_xfer_desc
                0x000000000001810c       0x10 bin/blib.a(httpcore.o)
 .data.http_partial_desc
                0x000000000001811c       0x10 bin/blib.a(httpcore.o)
 .data.http_socket_desc
                0x000000000001812c       0x10 bin/blib.a(httpcore.o)
 .data.http_process_desc
                0x000000000001813c        0xc bin/blib.a(httpcore.o)
 .data.http_line_handlers
                0x0000000000018148       0x14 bin/blib.a(httpcore.o)
 .data.http_header_handlers
                0x000000000001815c       0x38 bin/blib.a(httpcore.o)
 .data.http_auth_header_handlers
                0x0000000000018194       0x18 bin/blib.a(httpcore.o)
 .data.http_xfer_operations
                0x00000000000181ac       0x28 bin/blib.a(httpcore.o)
 .data.http_partial_operations
                0x00000000000181d4        0x8 bin/blib.a(httpcore.o)
 .data.http_socket_operations
                0x00000000000181dc       0x20 bin/blib.a(httpcore.o)
 .data.iscsi_control_desc
                0x00000000000181fc       0x10 bin/blib.a(iscsi.o)
 .data.iscsi_data_desc
                0x000000000001820c       0x10 bin/blib.a(iscsi.o)
 .data.iscsi_socket_desc
                0x000000000001821c       0x10 bin/blib.a(iscsi.o)
 .data.iscsi_process_desc
                0x000000000001822c        0xc bin/blib.a(iscsi.o)
 .data.iscsi_string_types
                0x0000000000018238       0x40 bin/blib.a(iscsi.o)
 .data.iscsi_control_op
                0x0000000000018278       0x20 bin/blib.a(iscsi.o)
 .data.iscsi_data_op
                0x0000000000018298        0x8 bin/blib.a(iscsi.o)
 .data.iscsi_socket_operations
                0x00000000000182a0       0x20 bin/blib.a(iscsi.o)
 .data.dhcp_request_options_data
                0x00000000000182c0       0x51 bin/blib.a(dhcp.o)
 *fill*         0x0000000000018311        0x3 00
 .data.dhcp_job_desc
                0x0000000000018314       0x10 bin/blib.a(dhcp.o)
 .data.dhcp_xfer_desc
                0x0000000000018324       0x10 bin/blib.a(dhcp.o)
 .data.dhcp_peer
                0x0000000000018334       0x20 bin/blib.a(dhcp.o)
 .data.dhcp_state_discover
                0x0000000000018354       0x14 bin/blib.a(dhcp.o)
 .data.dhcp_state_request
                0x0000000000018368       0x14 bin/blib.a(dhcp.o)
 .data.dhcp_state_proxy
                0x000000000001837c       0x14 bin/blib.a(dhcp.o)
 .data.peer.3189
                0x0000000000018390       0x20 bin/blib.a(dhcp.o)
 .data.dhcp_state_pxebs
                0x00000000000183b0       0x14 bin/blib.a(dhcp.o)
 .data.dhcp_job_op
                0x00000000000183c4        0x8 bin/blib.a(dhcp.o)
 .data.dhcp_xfer_operations
                0x00000000000183cc        0x8 bin/blib.a(dhcp.o)
 .data.nameserver
                0x00000000000183d4       0x20 bin/blib.a(dns.o)
 .data.dns_resolv_desc
                0x00000000000183f4       0x10 bin/blib.a(dns.o)
 .data.dns_socket_desc
                0x0000000000018404       0x10 bin/blib.a(dns.o)
 .data.search_root.2952
                0x0000000000018414        0xc bin/blib.a(dns.o)
 .data.dns_resolv_op
                0x0000000000018420        0x8 bin/blib.a(dns.o)
 .data.dns_socket_operations
                0x0000000000018428       0x10 bin/blib.a(dns.o)
 .data.tftp_mtftp_socket
                0x0000000000018438       0x20 bin/blib.a(tftp.o)
 .data.tftp_xfer_desc
                0x0000000000018458       0x10 bin/blib.a(tftp.o)
 .data.tftp_socket_desc
                0x0000000000018468       0x10 bin/blib.a(tftp.o)
 .data.tftp_mc_socket_desc
                0x0000000000018478       0x10 bin/blib.a(tftp.o)
 .data.tftp_options
                0x0000000000018488       0x20 bin/blib.a(tftp.o)
 .data.tftp_xfer_operations
                0x00000000000184a8       0x10 bin/blib.a(tftp.o)
 .data.tftp_socket_operations
                0x00000000000184b8        0x8 bin/blib.a(tftp.o)
 .data.tftp_mc_socket_operations
                0x00000000000184c0        0x8 bin/blib.a(tftp.o)
 .data.embedded_images
                0x00000000000184c8       0x30 bin/blib.a(embedded.o)
 .data.goto_cmd
                0x00000000000184f8        0xc bin/blib.a(script.o)
 .data.prompt_cmd
                0x0000000000018504        0xc bin/blib.a(script.o)
 .data.prompt_opts
                0x0000000000018510       0x18 bin/blib.a(script.o)
 .data.pci_root_driver
                0x0000000000018528        0x8 bin/blib.a(pci.o)
 .data.pci_settings
                0x0000000000018530       0x24 bin/blib.a(pci_settings.o)
 .data.pci_settings_operations
                0x0000000000018554       0x14 bin/blib.a(pci_settings.o)
 .data.scsidev_block_desc
                0x0000000000018568       0x10 bin/blib.a(scsi.o)
 .data.scsidev_scsi_desc
                0x0000000000018578       0x10 bin/blib.a(scsi.o)
 .data.scsidev_ready_desc
                0x0000000000018588       0x10 bin/blib.a(scsi.o)
 .data.scsidev_process_desc
                0x0000000000018598        0xc bin/blib.a(scsi.o)
 .data.scsicmd_read_capacity
                0x00000000000185a4       0x10 bin/blib.a(scsi.o)
 .data.scsicmd_block_desc
                0x00000000000185b4       0x10 bin/blib.a(scsi.o)
 .data.scsicmd_scsi_desc
                0x00000000000185c4       0x10 bin/blib.a(scsi.o)
 .data.scsicmd_write
                0x00000000000185d4       0x10 bin/blib.a(scsi.o)
 .data.scsicmd_read
                0x00000000000185e4       0x10 bin/blib.a(scsi.o)
 .data.scsicmd_test_unit_ready
                0x00000000000185f4       0x10 bin/blib.a(scsi.o)
 .data.scsidev_block_op
                0x0000000000018604       0x28 bin/blib.a(scsi.o)
 .data.scsidev_scsi_op
                0x000000000001862c       0x10 bin/blib.a(scsi.o)
 .data.scsidev_ready_op
                0x000000000001863c        0x8 bin/blib.a(scsi.o)
 .data.scsicmd_block_op
                0x0000000000018644        0x8 bin/blib.a(scsi.o)
 .data.scsicmd_scsi_op
                0x000000000001864c       0x10 bin/blib.a(scsi.o)
 .data.smbios_settings
                0x000000000001865c       0x24 bin/blib.a(smbios_settings.o)
 .data.smbios_settings_operations
                0x0000000000018680       0x14 bin/blib.a(smbios_settings.o)
 .data.md5_algorithm
                0x0000000000018694       0x1c bin/blib.a(md5.o)
                0x0000000000018694                md5_algorithm
 .data.md5_steps
                0x00000000000186b0       0x20 bin/blib.a(md5.o)
 .data.oid_md5  0x00000000000186d0        0x8 bin/blib.a(md5.o)
 .data.autoboot_cmd
                0x00000000000186d8       0x14 bin/blib.a(autoboot_cmd.o)
 .data.config_cmd
                0x00000000000186ec        0xc bin/blib.a(config_cmd.o)
 .data.pxebs_cmd
                0x00000000000186f8        0xc bin/blib.a(dhcp_cmd.o)
 .data.ifstat_cmd
                0x0000000000018704       0x14 bin/blib.a(ifmgmt_cmd.o)
 .data.ifclose_cmd
                0x0000000000018718       0x14 bin/blib.a(ifmgmt_cmd.o)
 .data.ifopen_cmd
                0x000000000001872c       0x14 bin/blib.a(ifmgmt_cmd.o)
 .data.ifconf_cmd
                0x0000000000018740       0x14 bin/blib.a(ifmgmt_cmd.o)
 .data.ifconf_opts
                0x0000000000018754        0xc bin/blib.a(ifmgmt_cmd.o)
 .data.imgargs_desc
                0x0000000000018760       0x14 bin/blib.a(image_cmd.o)
                0x0000000000018760                imgargs_desc
 .data.imgexec_desc
                0x0000000000018774       0x14 bin/blib.a(image_cmd.o)
                0x0000000000018774                imgexec_desc
 .data.imgselect_desc
                0x0000000000018788       0x14 bin/blib.a(image_cmd.o)
                0x0000000000018788                imgselect_desc
 .data.imgfetch_desc
                0x000000000001879c       0x14 bin/blib.a(image_cmd.o)
                0x000000000001879c                imgfetch_desc
 .data.imgmulti_cmd
                0x00000000000187b0        0xc bin/blib.a(image_cmd.o)
 .data.imgargs_cmd
                0x00000000000187bc        0xc bin/blib.a(image_cmd.o)
 .data.imgexec_cmd
                0x00000000000187c8        0xc bin/blib.a(image_cmd.o)
 .data.imgselect_cmd
                0x00000000000187d4        0xc bin/blib.a(image_cmd.o)
 .data.imgfetch_cmd
                0x00000000000187e0        0xc bin/blib.a(image_cmd.o)
 .data.opts     0x00000000000187ec       0x30 bin/blib.a(image_cmd.o)
 .data.login_cmd
                0x000000000001881c        0xc bin/blib.a(login_cmd.o)
 .data.choose_cmd
                0x0000000000018828        0xc bin/blib.a(menu_cmd.o)
 .data.item_cmd
                0x0000000000018834        0xc bin/blib.a(menu_cmd.o)
 .data.menu_cmd
                0x0000000000018840        0xc bin/blib.a(menu_cmd.o)
 .data.choose_opts
                0x000000000001884c       0x30 bin/blib.a(menu_cmd.o)
 .data.item_opts
                0x000000000001887c       0x30 bin/blib.a(menu_cmd.o)
 .data.menu_opts
                0x00000000000188ac       0x18 bin/blib.a(menu_cmd.o)
 .data.inc_cmd  0x00000000000188c4        0xc bin/blib.a(nvo_cmd.o)
 .data.clear_read_cmd
                0x00000000000188d0        0xc bin/blib.a(nvo_cmd.o)
 .data.set_cmd  0x00000000000188dc        0xc bin/blib.a(nvo_cmd.o)
 .data.show_cmd
                0x00000000000188e8        0xc bin/blib.a(nvo_cmd.o)
 .data.reboot_cmd
                0x00000000000188f4        0xc bin/blib.a(reboot_cmd.o)
 .data.reboot_opts
                0x0000000000018900        0xc bin/blib.a(reboot_cmd.o)
 .data.route_cmd
                0x000000000001890c        0xc bin/blib.a(route_cmd.o)
 .data.sanunhook_cmd
                0x0000000000018918        0xc bin/blib.a(sanboot_cmd.o)
 .data.sanboot_cmd
                0x0000000000018924        0xc bin/blib.a(sanboot_cmd.o)
 .data.sanhook_cmd
                0x0000000000018930        0xc bin/blib.a(sanboot_cmd.o)
 .data.opts     0x000000000001893c       0x24 bin/blib.a(sanboot_cmd.o)
 .data.sync_cmd
                0x0000000000018960        0xc bin/blib.a(sync_cmd.o)
 .data.sync_opts
                0x000000000001896c        0xc bin/blib.a(sync_cmd.o)
 .data._stdscr  0x0000000000018978       0x24 bin/blib.a(mucurses.o)
                0x0000000000018978                _stdscr
 .data.ifpoller.1965
                0x000000000001899c       0x18 bin/blib.a(ifmgmt.o)
 .data.ifpoller_job_desc
                0x00000000000189b4       0x10 bin/blib.a(ifmgmt.o)
 .data.ifpoller_job_op
                0x00000000000189c4        0x8 bin/blib.a(ifmgmt.o)
 .data.sync_intf
                0x00000000000189cc        0xc bin/blib.a(sync.o)
 .data.sync_intf_desc
                0x00000000000189d8       0x10 bin/blib.a(sync.o)
 .data.sync_intf_op
                0x00000000000189e8        0x8 bin/blib.a(sync.o)
 .data.idtr     0x00000000000189f0        0x6 bin/blib.a(librm_mgmt.o)
                0x00000000000189f0                idtr
 *fill*         0x00000000000189f6        0x2 00
 .data.int13s   0x00000000000189f8        0x8 bin/blib.a(int13.o)
 .data.int13_block_desc
                0x0000000000018a00       0x10 bin/blib.a(int13.o)
 .data.int13_command
                0x0000000000018a10       0x3c bin/blib.a(int13.o)
 .data.int13_block_op
                0x0000000000018a4c       0x10 bin/blib.a(int13.o)
 .data.int13_command_desc
                0x0000000000018a5c       0x10 bin/blib.a(int13.o)
 .data.int13_command_op
                0x0000000000018a6c       0x10 bin/blib.a(int13.o)
 .data.downloader_job_desc
                0x0000000000018a7c       0x10 bin/blib.a(downloader.o)
 .data.downloader_xfer_desc
                0x0000000000018a8c       0x10 bin/blib.a(downloader.o)
 .data.downloader_job_op
                0x0000000000018a9c       0x10 bin/blib.a(downloader.o)
 .data.downloader_xfer_operations
                0x0000000000018aac       0x10 bin/blib.a(downloader.o)
 .data.menus    0x0000000000018abc        0x8 bin/blib.a(menu.o)
 .data.monojob  0x0000000000018ac4        0xc bin/blib.a(monojob.o)
                0x0000000000018ac4                monojob
 .data.monojob_intf_desc
                0x0000000000018ad0       0x10 bin/blib.a(monojob.o)
 .data.monojob_intf_op
                0x0000000000018ae0        0x8 bin/blib.a(monojob.o)
 .data.parameters
                0x0000000000018ae8        0x8 bin/blib.a(params.o)
 .data.numeric_process_desc
                0x0000000000018af0        0xc bin/blib.a(resolv.o)
 .data.resmux_child_desc
                0x0000000000018afc       0x10 bin/blib.a(resolv.o)
 .data.named_xfer_desc
                0x0000000000018b0c       0x10 bin/blib.a(resolv.o)
 .data.named_resolv_desc
                0x0000000000018b1c       0x10 bin/blib.a(resolv.o)
 .data.resmux_child_op
                0x0000000000018b2c       0x10 bin/blib.a(resolv.o)
 .data.named_xfer_ops
                0x0000000000018b3c       0x10 bin/blib.a(resolv.o)
 .data.named_resolv_op
                0x0000000000018b4c       0x10 bin/blib.a(resolv.o)
 .data.aoedev_ata_desc
                0x0000000000018b5c       0x10 bin/blib.a(aoe.o)
 .data.aoedev_config_desc
                0x0000000000018b6c       0x10 bin/blib.a(aoe.o)
 .data.aoecmd_cfg
                0x0000000000018b7c        0xc bin/blib.a(aoe.o)
 .data.aoecmd_ata
                0x0000000000018b88        0xc bin/blib.a(aoe.o)
 .data.aoe_commands
                0x0000000000018b94        0x8 bin/blib.a(aoe.o)
 .data.aoecmd_ata_desc
                0x0000000000018b9c       0x10 bin/blib.a(aoe.o)
 .data.aoedev_ata_op
                0x0000000000018bac       0x28 bin/blib.a(aoe.o)
 .data.aoedev_config_op
                0x0000000000018bd4        0x8 bin/blib.a(aoe.o)
 .data.aoecmd_ata_op
                0x0000000000018bdc        0x8 bin/blib.a(aoe.o)
 .data.dhcp_packet_fields
                0x0000000000018be4       0x30 bin/blib.a(dhcppkt.o)
 .data.dhcppkt_settings_operations
                0x0000000000018c14       0x14 bin/blib.a(dhcppkt.o)
 .data.tcp_sock_stream
                0x0000000000018c28        0x4 bin/blib.a(tcp.o)
                0x0000000000018c28                tcp_sock_stream
 .data.tcp_conns
                0x0000000000018c2c        0x8 bin/blib.a(tcp.o)
 .data.tcp_xfer_desc
                0x0000000000018c34       0x10 bin/blib.a(tcp.o)
 .data.tcp_process_desc
                0x0000000000018c44        0xc bin/blib.a(tcp.o)
 .data.tcp_xfer_operations
                0x0000000000018c50       0x18 bin/blib.a(tcp.o)
 .data.atadev_block_desc
                0x0000000000018c68       0x10 bin/blib.a(ata.o)
 .data.atadev_ata_desc
                0x0000000000018c78       0x10 bin/blib.a(ata.o)
 .data.ata_commands
                0x0000000000018c88        0x8 bin/blib.a(ata.o)
 .data.atacmd_identify
                0x0000000000018c90       0x18 bin/blib.a(ata.o)
 .data.atacmd_block_desc
                0x0000000000018ca8       0x10 bin/blib.a(ata.o)
 .data.atacmd_ata_desc
                0x0000000000018cb8       0x10 bin/blib.a(ata.o)
 .data.atacmd_write
                0x0000000000018cc8       0x18 bin/blib.a(ata.o)
 .data.atacmd_read
                0x0000000000018ce0       0x18 bin/blib.a(ata.o)
 .data.atadev_block_op
                0x0000000000018cf8       0x28 bin/blib.a(ata.o)
 .data.atadev_ata_op
                0x0000000000018d20        0x8 bin/blib.a(ata.o)
 .data.atacmd_block_op
                0x0000000000018d28        0x8 bin/blib.a(ata.o)
 .data.atacmd_ata_op
                0x0000000000018d30        0x8 bin/blib.a(ata.o)
 .data.shell_cmd
                0x0000000000018d38        0xc bin/blib.a(shell.o)
 .data._ansi_screen
                0x0000000000018d44       0x2c bin/blib.a(ansi_screen.o)
                0x0000000000018d44                _ansi_screen
 .data.ansicol_pairs
                0x0000000000018d70       0x10 bin/blib.a(ansicol.o)
 *(SORT(.tbl.*))
 .tbl.arp_net_protocols.00
                0x0000000000018d80        0x0 bin/blib.a(arp.o)
 .tbl.arp_net_protocols.01
                0x0000000000018d80        0x8 bin/blib.a(ipv4.o)
                0x0000000000018d80                ipv4_arp_protocol
 .tbl.arp_net_protocols.99
                0x0000000000018d88        0x0 bin/blib.a(arp.o)
 .tbl.asn1_algorithms.01
                0x0000000000018d88       0x14 bin/blib.a(md5.o)
                0x0000000000018d88                oid_md5_algorithm
 .tbl.builtin_settings.00
                0x0000000000018d9c        0x0 bin/blib.a(settings.o)
 .tbl.builtin_settings.01
                0x0000000000018d9c       0x20 bin/blib.a(settings.o)
                0x0000000000018d9c                version_builtin_setting
                0x0000000000018da4                platform_builtin_setting
                0x0000000000018dac                buildarch_builtin_setting
                0x0000000000018db4                errno_builtin_setting
 .tbl.builtin_settings.99
                0x0000000000018dbc        0x0 bin/blib.a(settings.o)
 .tbl.cache_discarders.00
                0x0000000000018dbc        0x0 bin/blib.a(malloc.o)
 .tbl.cache_discarders.02
                0x0000000000018dbc        0x4 bin/blib.a(netdevice.o)
                0x0000000000018dbc                net_discarder
 .tbl.cache_discarders.02
                0x0000000000018dc0        0x4 bin/blib.a(tcp.o)
                0x0000000000018dc0                tcp_discarder
 .tbl.cache_discarders.03
                0x0000000000018dc4        0x4 bin/blib.a(neighbour.o)
                0x0000000000018dc4                neighbour_discarder
 .tbl.cache_discarders.99
                0x0000000000018dc8        0x0 bin/blib.a(malloc.o)
 .tbl.commands.00
                0x0000000000018dc8        0x0 bin/blib.a(exec.o)
 .tbl.commands.00
                0x0000000000018dc8        0x0 bin/blib.a(shell.o)
 .tbl.commands.01
                0x0000000000018dc8        0x8 bin/blib.a(cpuid_cmd.o)
                0x0000000000018dc8                cpuid_command
 .tbl.commands.01
                0x0000000000018dd0       0x28 bin/blib.a(exec.o)
                0x0000000000018dd0                sleep_command
                0x0000000000018dd8                iseq_command
                0x0000000000018de0                isset_command
                0x0000000000018de8                exit_command
                0x0000000000018df0                echo_command
 .tbl.commands.01
                0x0000000000018df8       0x10 bin/blib.a(script.o)
                0x0000000000018df8                prompt_command
                0x0000000000018e00                goto_command
 .tbl.commands.01
                0x0000000000018e08        0x8 bin/blib.a(autoboot_cmd.o)
                0x0000000000018e08                autoboot_commands
 .tbl.commands.01
                0x0000000000018e10        0x8 bin/blib.a(config_cmd.o)
                0x0000000000018e10                config_command
 .tbl.commands.01
                0x0000000000018e18       0x10 bin/blib.a(dhcp_cmd.o)
                0x0000000000018e18                dhcp_commands
 .tbl.commands.01
                0x0000000000018e28       0x20 bin/blib.a(ifmgmt_cmd.o)
                0x0000000000018e28                ifmgmt_commands
 .tbl.commands.01
                0x0000000000018e48       0x60 bin/blib.a(image_cmd.o)
                0x0000000000018e48                image_commands
 .tbl.commands.01
                0x0000000000018ea8        0x8 bin/blib.a(login_cmd.o)
                0x0000000000018ea8                login_command
 .tbl.commands.01
                0x0000000000018eb0       0x18 bin/blib.a(menu_cmd.o)
                0x0000000000018eb0                menu_commands
 .tbl.commands.01
                0x0000000000018ec8       0x28 bin/blib.a(nvo_cmd.o)
                0x0000000000018ec8                nvo_commands
 .tbl.commands.01
                0x0000000000018ef0        0x8 bin/blib.a(reboot_cmd.o)
                0x0000000000018ef0                reboot_command
 .tbl.commands.01
                0x0000000000018ef8        0x8 bin/blib.a(route_cmd.o)
                0x0000000000018ef8                route_commands
 .tbl.commands.01
                0x0000000000018f00       0x18 bin/blib.a(sanboot_cmd.o)
                0x0000000000018f00                sanboot_commands
 .tbl.commands.01
                0x0000000000018f18        0x8 bin/blib.a(sync_cmd.o)
                0x0000000000018f18                sync_command
 .tbl.commands.01
                0x0000000000018f20       0x10 bin/blib.a(shell.o)
                0x0000000000018f20                shell_command
                0x0000000000018f28                help_command
 .tbl.commands.99
                0x0000000000018f30        0x0 bin/blib.a(exec.o)
 .tbl.commands.99
                0x0000000000018f30        0x0 bin/blib.a(shell.o)
 .tbl.consoles.00
                0x0000000000018f30        0x0 bin/blib.a(console.o)
 .tbl.consoles.01
                0x0000000000018f30       0x18 bin/blib.a(bios_console.o)
                0x0000000000018f30                bios_console
 .tbl.consoles.99
                0x0000000000018f48        0x0 bin/blib.a(console.o)
 .tbl.dhcp_features.00
                0x0000000000018f48        0x0 bin/blib.a(dhcp.o)
 .tbl.dhcp_features.01
                0x0000000000018f48        0x5 bin/version.8086100f.mrom.o
                0x0000000000018f48                __dhcp_feature_version
 .tbl.dhcp_features.01
                0x0000000000018f4d        0x3 bin/blib.a(bzimage.o)
                0x0000000000018f4d                __dhcp_feature_bzimage
 .tbl.dhcp_features.01
                0x0000000000018f50        0x3 bin/blib.a(elfboot.o)
                0x0000000000018f50                __dhcp_feature_elfboot
 .tbl.dhcp_features.01
                0x0000000000018f53        0x3 bin/blib.a(multiboot.o)
                0x0000000000018f53                __dhcp_feature_multiboot
 .tbl.dhcp_features.01
                0x0000000000018f56        0x3 bin/blib.a(pxe_image.o)
                0x0000000000018f56                __dhcp_feature_pxe_image
 .tbl.dhcp_features.01
                0x0000000000018f59        0x3 bin/blib.a(pxe_file.o)
                0x0000000000018f59                __dhcp_feature_pxe_file
 .tbl.dhcp_features.01
                0x0000000000018f5c        0x3 bin/blib.a(http.o)
                0x0000000000018f5c                __dhcp_feature_http
 .tbl.dhcp_features.01
                0x0000000000018f5f        0x3 bin/blib.a(iscsi.o)
                0x0000000000018f5f                __dhcp_feature_iscsi
 .tbl.dhcp_features.01
                0x0000000000018f62        0x3 bin/blib.a(dns.o)
                0x0000000000018f62                __dhcp_feature_dns
 .tbl.dhcp_features.01
                0x0000000000018f65        0x3 bin/blib.a(tftp.o)
                0x0000000000018f65                __dhcp_feature_tftp
 .tbl.dhcp_features.01
                0x0000000000018f68        0x3 bin/blib.a(menu_cmd.o)
                0x0000000000018f68                __dhcp_feature_menu_cmd
 .tbl.dhcp_features.01
                0x0000000000018f6b        0x3 bin/blib.a(aoe.o)
                0x0000000000018f6b                __dhcp_feature_aoe
 .tbl.dhcp_features.99
                0x0000000000018f6e        0x0 bin/blib.a(dhcp.o)
 *fill*         0x0000000000018f6e        0x2 00
 .tbl.errortab.00
                0x0000000000018f70        0x0 bin/blib.a(strerror.o)
 .tbl.errortab.01
                0x0000000000018f70       0x20 bin/blib.a(netdevice.o)
                0x0000000000018f70                netdev_errors
 .tbl.errortab.01
                0x0000000000018f90        0x8 bin/blib.a(segment.o)
                0x0000000000018f90                segment_errors
 .tbl.errortab.01
                0x0000000000018f98       0x88 bin/blib.a(strerror.o)
                0x0000000000018f98                common_errors
 .tbl.errortab.99
                0x0000000000019020        0x0 bin/blib.a(strerror.o)
 .tbl.features.01
                0x0000000000019020        0x4 bin/blib.a(http.o)
                0x0000000000019020                __feature_http
 .tbl.features.01
                0x0000000000019024        0x4 bin/blib.a(iscsi.o)
                0x0000000000019024                __feature_iscsi
 .tbl.features.01
                0x0000000000019028        0x4 bin/blib.a(dns.o)
                0x0000000000019028                __feature_dns
 .tbl.features.01
                0x000000000001902c        0x4 bin/blib.a(tftp.o)
                0x000000000001902c                __feature_tftp
 .tbl.features.01
                0x0000000000019030        0x4 bin/blib.a(aoe.o)
                0x0000000000019030                __feature_aoe
 .tbl.features.02
                0x0000000000019034        0x4 bin/blib.a(bzimage.o)
                0x0000000000019034                __feature_bzimage
 .tbl.features.02
                0x0000000000019038        0x4 bin/blib.a(elfboot.o)
                0x0000000000019038                __feature_elfboot
 .tbl.features.02
                0x000000000001903c        0x4 bin/blib.a(multiboot.o)
                0x000000000001903c                __feature_multiboot
 .tbl.features.02
                0x0000000000019040        0x4 bin/blib.a(pxe_image.o)
                0x0000000000019040                __feature_pxe_image
 .tbl.features.03
                0x0000000000019044        0x4 bin/blib.a(pxe_file.o)
                0x0000000000019044                __feature_pxe_file
 .tbl.features.03
                0x0000000000019048        0x4 bin/blib.a(menu_cmd.o)
                0x0000000000019048                __feature_menu_cmd
 .tbl.icmp_echo_protocols.00
                0x000000000001904c        0x0 bin/blib.a(icmp.o)
 .tbl.icmp_echo_protocols.01
                0x000000000001904c        0xc bin/blib.a(icmpv4.o)
                0x000000000001904c                icmpv4_echo_protocol
 .tbl.icmp_echo_protocols.99
                0x0000000000019058        0x0 bin/blib.a(icmp.o)
 .tbl.image_types.00
                0x0000000000019058        0x0 bin/blib.a(image.o)
 .tbl.image_types.01
                0x0000000000019058       0x10 bin/blib.a(multiboot.o)
                0x0000000000019058                multiboot_image_type
 .tbl.image_types.02
                0x0000000000019068       0x10 bin/blib.a(bzimage.o)
                0x0000000000019068                bzimage_image_type
 .tbl.image_types.02
                0x0000000000019078       0x10 bin/blib.a(elfboot.o)
                0x0000000000019078                elfboot_image_type
 .tbl.image_types.02
                0x0000000000019088       0x10 bin/blib.a(script.o)
                0x0000000000019088                script_image_type
 .tbl.image_types.03
                0x0000000000019098       0x10 bin/blib.a(pxe_image.o)
                0x0000000000019098                pxe_image_type
 .tbl.image_types.99
                0x00000000000190a8        0x0 bin/blib.a(image.o)
 .tbl.init_fns.00
                0x00000000000190a8        0x0 bin/blib.a(init.o)
 .tbl.init_fns.01
                0x00000000000190a8        0x4 bin/blib.a(malloc.o)
                0x00000000000190a8                heap_init_fn
 .tbl.init_fns.04
                0x00000000000190ac        0x4 bin/blib.a(pxe_call.o)
                0x00000000000190ac                pxe_init_fn
 .tbl.init_fns.04
                0x00000000000190b0        0x4 bin/blib.a(process.o)
                0x00000000000190b0                process_init_fn
 .tbl.init_fns.04
                0x00000000000190b4        0x4 bin/blib.a(settings.o)
                0x00000000000190b4                builtin_init_fn
 .tbl.init_fns.04
                0x00000000000190b8        0x4 bin/blib.a(pci_settings.o)
                0x00000000000190b8                pci_settings_init_fn
 .tbl.init_fns.04
                0x00000000000190bc        0x4 bin/blib.a(smbios_settings.o)
                0x00000000000190bc                smbios_init_fn
 .tbl.init_fns.04
                0x00000000000190c0        0x4 bin/blib.a(pci_autoboot.o)
                0x00000000000190c0                pci_autoboot_init_fn
 .tbl.init_fns.05
                0x00000000000190c4        0x4 bin/blib.a(netdev_settings.o)
                0x00000000000190c4                netdev_redirect_settings_init_fn
 .tbl.init_fns.05
                0x00000000000190c8        0x4 bin/blib.a(embedded.o)
                0x00000000000190c8                embedded_init_fn
 .tbl.init_fns.99
                0x00000000000190cc        0x0 bin/blib.a(init.o)
 .tbl.ip_statistics_families.01
                0x00000000000190cc        0x8 bin/blib.a(ipv4.o)
                0x00000000000190cc                ipv4_stats_family
 .tbl.keymap.00
                0x00000000000190d4        0x0 bin/blib.a(bios_console.o)
 .tbl.keymap.01
                0x00000000000190d4        0x0 bin/blib.a(keymap_us.o)
                0x00000000000190d4                us_mapping
 .tbl.keymap.99
                0x00000000000190d4        0x0 bin/blib.a(bios_console.o)
 .tbl.ll_protocols.01
                0x00000000000190d4       0x2c bin/blib.a(ethernet.o)
                0x00000000000190d4                ethernet_protocol
 .tbl.net_device_configurators.00
                0x0000000000019100        0x0 bin/blib.a(netdevice.o)
 .tbl.net_device_configurators.00
                0x0000000000019100        0x0 bin/blib.a(ifmgmt.o)
 .tbl.net_device_configurators.01
                0x0000000000019100        0xc bin/blib.a(dhcp.o)
                0x0000000000019100                dhcp_configurator
 .tbl.net_device_configurators.99
                0x000000000001910c        0x0 bin/blib.a(netdevice.o)
 .tbl.net_drivers.00
                0x000000000001910c        0x0 bin/blib.a(netdevice.o)
 .tbl.net_drivers.01
                0x000000000001910c       0x10 bin/blib.a(neighbour.o)
                0x000000000001910c                neighbour_net_driver
 .tbl.net_drivers.99
                0x000000000001911c        0x0 bin/blib.a(netdevice.o)
 .tbl.net_protocols.00
                0x000000000001911c        0x0 bin/blib.a(netdevice.o)
 .tbl.net_protocols.01
                0x000000000001911c       0x10 bin/blib.a(arp.o)
                0x000000000001911c                arp_protocol
 .tbl.net_protocols.01
                0x000000000001912c       0x10 bin/blib.a(eth_slow.o)
                0x000000000001912c                eth_slow_protocol
 .tbl.net_protocols.01
                0x000000000001913c       0x10 bin/blib.a(ipv4.o)
                0x000000000001913c                ipv4_protocol
 .tbl.net_protocols.01
                0x000000000001914c       0x10 bin/blib.a(rarp.o)
                0x000000000001914c                rarp_protocol
 .tbl.net_protocols.01
                0x000000000001915c       0x10 bin/blib.a(aoe.o)
                0x000000000001915c                aoe_protocol
 .tbl.net_protocols.99
                0x000000000001916c        0x0 bin/blib.a(netdevice.o)
 .tbl.pci_drivers.00
                0x000000000001916c        0x0 bin/blib.a(pci.o)
 .tbl.pci_drivers.01
                0x000000000001916c       0x10 bin/blib.a(intel.o)
                0x000000000001916c                intel_driver
 .tbl.pci_drivers.99
                0x000000000001917c        0x0 bin/blib.a(pci.o)
 .tbl.processes.00
                0x000000000001917c        0x0 bin/blib.a(process.o)
 .tbl.processes.01
                0x000000000001917c       0x10 bin/blib.a(netdevice.o)
                0x000000000001917c                net_process
 .tbl.processes.01
                0x000000000001918c       0x10 bin/blib.a(retry.o)
                0x000000000001918c                retry_process
 .tbl.processes.99
                0x000000000001919c        0x0 bin/blib.a(process.o)
 .tbl.pxe_api_calls.00
                0x000000000001919c        0x0 bin/blib.a(pxe_call.o)
 .tbl.pxe_api_calls.00
                0x000000000001919c        0x0 bin/blib.a(pxe_file.o)
 .tbl.pxe_api_calls.01
                0x000000000001919c        0x8 bin/blib.a(pxe_call.o)
                0x000000000001919c                pxenv_unknown_api
 .tbl.pxe_api_calls.01
                0x00000000000191a4       0x40 bin/blib.a(pxe_file.o)
                0x00000000000191a4                pxe_file_api
 .tbl.pxe_api_calls.01
                0x00000000000191e4       0x38 bin/blib.a(pxe_preboot.o)
                0x00000000000191e4                pxe_preboot_api
 .tbl.pxe_api_calls.01
                0x000000000001921c       0x28 bin/blib.a(pxe_tftp.o)
                0x000000000001921c                pxe_tftp_api
 .tbl.pxe_api_calls.01
                0x0000000000019244       0x20 bin/blib.a(pxe_udp.o)
                0x0000000000019244                pxe_udp_api
 .tbl.pxe_api_calls.01
                0x0000000000019264       0xa0 bin/blib.a(pxe_undi.o)
                0x0000000000019264                pxe_undi_api
 .tbl.pxe_api_calls.99
                0x0000000000019304        0x0 bin/blib.a(pxe_call.o)
 .tbl.pxe_api_calls.99
                0x0000000000019304        0x0 bin/blib.a(pxe_file.o)
 .tbl.resolvers.00
                0x0000000000019304        0x0 bin/blib.a(resolv.o)
 .tbl.resolvers.01
                0x0000000000019304        0x8 bin/blib.a(resolv.o)
                0x0000000000019304                numeric_resolver
 .tbl.resolvers.02
                0x000000000001930c        0x8 bin/blib.a(dns.o)
                0x000000000001930c                dns_resolver
 .tbl.resolvers.99
                0x0000000000019314        0x0 bin/blib.a(resolv.o)
 .tbl.root_devices.00
                0x0000000000019314        0x0 bin/blib.a(device.o)
 .tbl.root_devices.01
                0x0000000000019314       0x48 bin/blib.a(pci.o)
                0x0000000000019314                pci_root_device
 .tbl.root_devices.99
                0x000000000001935c        0x0 bin/blib.a(device.o)
 .tbl.routing_families.00
                0x000000000001935c        0x0 bin/blib.a(route.o)
 .tbl.routing_families.01
                0x000000000001935c        0x4 bin/blib.a(route_ipv4.o)
                0x000000000001935c                ipv4_routing_family
 .tbl.routing_families.99
                0x0000000000019360        0x0 bin/blib.a(route.o)
 .tbl.setting_types.00
                0x0000000000019360        0x0 bin/blib.a(settings.o)
 .tbl.setting_types.01
                0x0000000000019360      0x12c bin/blib.a(settings.o)
                0x0000000000019360                setting_type_busdevfn
                0x0000000000019374                setting_type_uuid
                0x0000000000019388                setting_type_hexraw
                0x000000000001939c                setting_type_hexhyp
                0x00000000000193b0                setting_type_hex
                0x00000000000193c4                setting_type_uint32
                0x00000000000193d8                setting_type_uint16
                0x00000000000193ec                setting_type_uint8
                0x0000000000019400                setting_type_int32
                0x0000000000019414                setting_type_int16
                0x0000000000019428                setting_type_int8
                0x000000000001943c                setting_type_ipv6
                0x0000000000019450                setting_type_ipv4
                0x0000000000019464                setting_type_uristring
                0x0000000000019478                setting_type_string
 .tbl.setting_types.01
                0x000000000001948c       0x14 bin/blib.a(dns.o)
                0x000000000001948c                setting_type_dnssl
 .tbl.setting_types.99
                0x00000000000194a0        0x0 bin/blib.a(settings.o)
 .tbl.settings.00
                0x00000000000194a0        0x0 bin/blib.a(settings.o)
 .tbl.settings.00
                0x00000000000194a0        0x0 bin/blib.a(settings_ui.o)
 .tbl.settings.01.busid
                0x00000000000194a0       0x14 bin/blib.a(netdev_settings.o)
                0x00000000000194a0                busid_setting
 .tbl.settings.01.busloc
                0x00000000000194b4       0x14 bin/blib.a(netdev_settings.o)
                0x00000000000194b4                busloc_setting
 .tbl.settings.01.bustype
                0x00000000000194c8       0x14 bin/blib.a(netdev_settings.o)
                0x00000000000194c8                bustype_setting
 .tbl.settings.01.chip
                0x00000000000194dc       0x14 bin/blib.a(netdev_settings.o)
                0x00000000000194dc                chip_setting
 .tbl.settings.01.mac
                0x00000000000194f0       0x14 bin/blib.a(netdev_settings.o)
                0x00000000000194f0                mac_setting
 .tbl.settings.03.gateway
                0x0000000000019504       0x14 bin/blib.a(ipv4.o)
                0x0000000000019504                gateway_setting
 .tbl.settings.03.ip
                0x0000000000019518       0x14 bin/blib.a(ipv4.o)
                0x0000000000019518                ip_setting
 .tbl.settings.03.netmask
                0x000000000001952c       0x14 bin/blib.a(ipv4.o)
                0x000000000001952c                netmask_setting
 .tbl.settings.04.dns
                0x0000000000019540       0x14 bin/blib.a(dns.o)
                0x0000000000019540                dns_setting
 .tbl.settings.04.dns6
                0x0000000000019554       0x14 bin/blib.a(dns.o)
                0x0000000000019554                dns6_setting
 .tbl.settings.04.dnssl
                0x0000000000019568       0x14 bin/blib.a(dns.o)
                0x0000000000019568                dnssl_setting
 .tbl.settings.04.domain
                0x000000000001957c       0x14 bin/blib.a(settings.o)
                0x000000000001957c                domain_setting
 .tbl.settings.05.filename
                0x0000000000019590       0x14 bin/blib.a(settings.o)
                0x0000000000019590                filename_setting
 .tbl.settings.05.next-server
                0x00000000000195a4       0x14 bin/blib.a(settings.o)
                0x00000000000195a4                next_server_setting
 .tbl.settings.07.root-path
                0x00000000000195b8       0x14 bin/blib.a(settings.o)
                0x00000000000195b8                root_path_setting
 .tbl.settings.08.initiator-iqn
                0x00000000000195cc       0x14 bin/blib.a(iscsi.o)
                0x00000000000195cc                initiator_iqn_setting
 .tbl.settings.08.keep-san
                0x00000000000195e0       0x14 bin/blib.a(autoboot.o)
                0x00000000000195e0                keep_san_setting
 .tbl.settings.08.skip-san-boot
                0x00000000000195f4       0x14 bin/blib.a(autoboot.o)
                0x00000000000195f4                skip_san_boot_setting
 .tbl.settings.09.hostname
                0x0000000000019608       0x14 bin/blib.a(settings.o)
                0x0000000000019608                hostname_setting
 .tbl.settings.09.uuid
                0x000000000001961c       0x14 bin/blib.a(smbios_settings.o)
                0x000000000001961c                uuid_setting
 .tbl.settings.10.asset
                0x0000000000019630       0x14 bin/blib.a(smbios_settings.o)
                0x0000000000019630                asset_setting
 .tbl.settings.10.board_serial
                0x0000000000019644       0x14 bin/blib.a(smbios_settings.o)
                0x0000000000019644                board_serial_setting
 .tbl.settings.10.manufacturer
                0x0000000000019658       0x14 bin/blib.a(smbios_settings.o)
                0x0000000000019658                manufacturer_setting
 .tbl.settings.10.product
                0x000000000001966c       0x14 bin/blib.a(smbios_settings.o)
                0x000000000001966c                product_setting
 .tbl.settings.10.serial
                0x0000000000019680       0x14 bin/blib.a(smbios_settings.o)
                0x0000000000019680                serial_setting
 .tbl.settings.10.user-class
                0x0000000000019694       0x14 bin/blib.a(settings.o)
                0x0000000000019694                user_class_setting
 .tbl.settings.11.password
                0x00000000000196a8       0x14 bin/blib.a(settings.o)
                0x00000000000196a8                password_setting
 .tbl.settings.11.username
                0x00000000000196bc       0x14 bin/blib.a(settings.o)
                0x00000000000196bc                username_setting
 .tbl.settings.12.reverse-password
                0x00000000000196d0       0x14 bin/blib.a(iscsi.o)
                0x00000000000196d0                reverse_password_setting
 .tbl.settings.12.reverse-username
                0x00000000000196e4       0x14 bin/blib.a(iscsi.o)
                0x00000000000196e4                reverse_username_setting
 .tbl.settings.14.buildarch
                0x00000000000196f8       0x14 bin/blib.a(settings.o)
                0x00000000000196f8                buildarch_setting
 .tbl.settings.14.dhcp-server
                0x000000000001970c       0x14 bin/blib.a(dhcp.o)
                0x000000000001970c                dhcp_server_setting
 .tbl.settings.14.errno
                0x0000000000019720       0x14 bin/blib.a(settings.o)
                0x0000000000019720                errno_setting
 .tbl.settings.14.platform
                0x0000000000019734       0x14 bin/blib.a(settings.o)
                0x0000000000019734                platform_setting
 .tbl.settings.14.priority
                0x0000000000019748       0x14 bin/blib.a(settings.o)
                0x0000000000019748                priority_setting
 .tbl.settings.14.scriptlet
                0x000000000001975c       0x14 bin/blib.a(autoboot.o)
                0x000000000001975c                scriptlet_setting
 .tbl.settings.14.version
                0x0000000000019770       0x14 bin/blib.a(settings.o)
                0x0000000000019770                version_setting
 .tbl.settings.99
                0x0000000000019784        0x0 bin/blib.a(settings.o)
 .tbl.settings.99
                0x0000000000019784        0x0 bin/blib.a(settings_ui.o)
 .tbl.settings_applicators.00
                0x0000000000019784        0x0 bin/blib.a(settings.o)
 .tbl.settings_applicators.01
                0x0000000000019784        0x4 bin/blib.a(ipv4.o)
                0x0000000000019784                ipv4_settings_applicator
 .tbl.settings_applicators.01
                0x0000000000019788        0x4 bin/blib.a(dns.o)
                0x0000000000019788                dns_applicator
 .tbl.settings_applicators.01
                0x000000000001978c        0x4 bin/blib.a(tftp.o)
                0x000000000001978c                tftp_settings_applicator
 .tbl.settings_applicators.99
                0x0000000000019790        0x0 bin/blib.a(settings.o)
 .tbl.sockaddr_converters.00
                0x0000000000019790        0x0 bin/blib.a(socket.o)
 .tbl.sockaddr_converters.01
                0x0000000000019790        0xc bin/blib.a(ipv4.o)
                0x0000000000019790                ipv4_sockaddr_converter
 .tbl.sockaddr_converters.99
                0x000000000001979c        0x0 bin/blib.a(socket.o)
 .tbl.socket_openers.00
                0x000000000001979c        0x0 bin/blib.a(open.o)
 .tbl.socket_openers.01
                0x000000000001979c       0x18 bin/blib.a(udp.o)
                0x000000000001979c                udp_ipv6_socket_opener
                0x00000000000197a8                udp_ipv4_socket_opener
 .tbl.socket_openers.01
                0x00000000000197b4       0x18 bin/blib.a(tcp.o)
                0x00000000000197b4                tcp_ipv6_socket_opener
                0x00000000000197c0                tcp_ipv4_socket_opener
 .tbl.socket_openers.99
                0x00000000000197cc        0x0 bin/blib.a(open.o)
 .tbl.startup_fns.00
                0x00000000000197cc        0x0 bin/blib.a(init.o)
 .tbl.startup_fns.01
                0x00000000000197cc        0x8 bin/blib.a(malloc.o)
                0x00000000000197cc                heap_startup_fn
 .tbl.startup_fns.01
                0x00000000000197d4        0x8 bin/blib.a(tcp.o)
                0x00000000000197d4                tcp_startup_fn
 .tbl.startup_fns.01
                0x00000000000197dc        0x8 bin/blib.a(hidemem.o)
                0x00000000000197dc                hide_etherboot_startup_fn
 .tbl.startup_fns.02
                0x00000000000197e4        0x8 bin/blib.a(device.o)
                0x00000000000197e4                startup_devices
 .tbl.startup_fns.03
                0x00000000000197ec        0x8 bin/blib.a(initrd.o)
                0x00000000000197ec                startup_initrd
 .tbl.startup_fns.99
                0x00000000000197f4        0x0 bin/blib.a(init.o)
 .tbl.tcpip_net_protocols.00
                0x00000000000197f4        0x0 bin/blib.a(tcpip.o)
 .tbl.tcpip_net_protocols.01
                0x00000000000197f4       0x14 bin/blib.a(ipv4.o)
                0x00000000000197f4                ipv4_tcpip_protocol
 .tbl.tcpip_net_protocols.99
                0x0000000000019808        0x0 bin/blib.a(tcpip.o)
 .tbl.tcpip_protocols.00
                0x0000000000019808        0x0 bin/blib.a(tcpip.o)
 .tbl.tcpip_protocols.01
                0x0000000000019808        0xc bin/blib.a(udp.o)
                0x0000000000019808                udp_protocol
 .tbl.tcpip_protocols.01
                0x0000000000019814        0xc bin/blib.a(icmpv4.o)
                0x0000000000019814                icmpv4_protocol
 .tbl.tcpip_protocols.01
                0x0000000000019820        0xc bin/blib.a(tcp.o)
                0x0000000000019820                tcp_protocol
 .tbl.tcpip_protocols.99
                0x000000000001982c        0x0 bin/blib.a(tcpip.o)
 .tbl.uri_openers.00
                0x000000000001982c        0x0 bin/blib.a(open.o)
 .tbl.uri_openers.01
                0x000000000001982c        0x8 bin/blib.a(udp.o)
                0x000000000001982c                udp_uri_opener
 .tbl.uri_openers.01
                0x0000000000019834        0x8 bin/blib.a(http.o)
                0x0000000000019834                http_uri_opener
 .tbl.uri_openers.01
                0x000000000001983c        0x8 bin/blib.a(iscsi.o)
                0x000000000001983c                iscsi_uri_opener
 .tbl.uri_openers.01
                0x0000000000019844       0x20 bin/blib.a(tftp.o)
                0x0000000000019844                mtftp_uri_opener
                0x000000000001984c                tftm_uri_opener
                0x0000000000019854                tftpsize_uri_opener
                0x000000000001985c                tftp_uri_opener
 .tbl.uri_openers.01
                0x0000000000019864        0x8 bin/blib.a(aoe.o)
                0x0000000000019864                aoe_uri_opener
 .tbl.uri_openers.01
                0x000000000001986c        0x8 bin/blib.a(tcp.o)
                0x000000000001986c                tcp_uri_opener
 .tbl.uri_openers.99
                0x0000000000019874        0x0 bin/blib.a(open.o)
 *(.provided)
 .provided      0x0000000000019874        0x0 bin/version.8086100f.mrom.o
                0x0000000000019874                __licence__gpl2_only__version
                0x0000000000019874                obj_version
                0x0000000000019874                __licence__gpl2_or_later__version
 .provided      0x0000000000019874        0x0 bin/blib.a(intel.o)
                0x0000000000019874                obj_intel
                0x0000000000019874                __licence__bsd3__intel
                0x0000000000019874                __licence__gpl2_or_later__intel
                0x0000000000019874                __licence__gpl2_only__intel
 .provided      0x0000000000019874        0x0 bin/blib.a(nvs.o)
                0x0000000000019874                __licence__gpl2_or_later__nvs
                0x0000000000019874                obj_nvs
                0x0000000000019874                __licence__gpl2_only__nvs
 .provided      0x0000000000019874        0x0 bin/blib.a(config.o)
                0x0000000000019874                __licence__gpl2_or_later__config
                0x0000000000019874                obj_config
 .provided      0x0000000000019874        0x0 bin/blib.a(bios_console.o)
                0x0000000000019874                __licence__gpl2_or_later__bios_console
                0x0000000000019874                __licence__gpl2_only__bios_console
                0x0000000000019874                obj_bios_console
 .provided      0x0000000000019874        0x0 bin/blib.a(bzimage.o)
                0x0000000000019874                obj_bzimage
                0x0000000000019874                __licence__gpl2_or_later__bzimage
                0x0000000000019874                __licence__gpl2_only__bzimage
 .provided      0x0000000000019874        0x0 bin/blib.a(elfboot.o)
                0x0000000000019874                __licence__gpl2_or_later__elfboot
                0x0000000000019874                __licence__gpl2_only__elfboot
                0x0000000000019874                obj_elfboot
 .provided      0x0000000000019874        0x0 bin/blib.a(initrd.o)
                0x0000000000019874                obj_initrd
                0x0000000000019874                __licence__gpl2_only__initrd
                0x0000000000019874                __licence__gpl2_or_later__initrd
 .provided      0x0000000000019874        0x0 bin/blib.a(multiboot.o)
                0x0000000000019874                __licence__gpl2_only__multiboot
                0x0000000000019874                __licence__gpl2_or_later__multiboot
                0x0000000000019874                obj_multiboot
 .provided      0x0000000000019874        0x0 bin/blib.a(pxe_image.o)
                0x0000000000019874                __licence__gpl2_only__pxe_image
                0x0000000000019874                __licence__gpl2_or_later__pxe_image
                0x0000000000019874                obj_pxe_image
 .provided      0x0000000000019874        0x0 bin/blib.a(pxe_call.o)
                0x0000000000019874                __licence__gpl2_only__pxe_call
                0x0000000000019874                __licence__gpl2_or_later__pxe_call
                0x0000000000019874                obj_pxe_call
 .provided      0x0000000000019874        0x0 bin/blib.a(pxe_file.o)
                0x0000000000019874                __licence__gpl2_or_later__pxe_file
                0x0000000000019874                __licence__gpl2_only__pxe_file
                0x0000000000019874                obj_pxe_file
 .provided      0x0000000000019874        0x0 bin/blib.a(pxe_loader.o)
                0x0000000000019874                obj_pxe_loader
                0x0000000000019874                __licence__gpl2_or_later__pxe_loader
                0x0000000000019874                __licence__gpl2_only__pxe_loader
 .provided      0x0000000000019874        0x0 bin/blib.a(pxe_preboot.o)
                0x0000000000019874                __licence__gpl2_or_later__pxe_preboot
                0x0000000000019874                obj_pxe_preboot
                0x0000000000019874                __licence__gpl2_only__pxe_preboot
 .provided      0x0000000000019874        0x0 bin/blib.a(pxe_tftp.o)
                0x0000000000019874                __licence__gpl2_or_later__pxe_tftp
                0x0000000000019874                __licence__gpl2_only__pxe_tftp
                0x0000000000019874                obj_pxe_tftp
 .provided      0x0000000000019874        0x0 bin/blib.a(pxe_udp.o)
                0x0000000000019874                obj_pxe_udp
                0x0000000000019874                __licence__gpl2_only__pxe_udp
                0x0000000000019874                __licence__gpl2_or_later__pxe_udp
 .provided      0x0000000000019874        0x0 bin/blib.a(pxe_undi.o)
                0x0000000000019874                obj_pxe_undi
                0x0000000000019874                __licence__gpl2_or_later__pxe_undi
                0x0000000000019874                __licence__gpl2_only__pxe_undi
 .provided      0x0000000000019874        0x0 bin/blib.a(x86_string.o)
                0x0000000000019874                __licence__gpl2_or_later__x86_string
                0x0000000000019874                obj_x86_string
                0x0000000000019874                __licence__gpl2_only__x86_string
 .provided      0x0000000000019874        0x0 bin/blib.a(cpuid_cmd.o)
                0x0000000000019874                obj_cpuid_cmd
                0x0000000000019874                __licence__gpl2_or_later__cpuid_cmd
                0x0000000000019874                __licence__gpl2_only__cpuid_cmd
 .provided      0x0000000000019874        0x0 bin/blib.a(setjmp.o)
                0x0000000000019874                __licence__gpl2_or_later__setjmp
                0x0000000000019874                obj_setjmp
 .provided      0x0000000000019874        0x0 bin/blib.a(virtaddr.o)
                0x0000000000019874                obj_virtaddr
                0x0000000000019874                __licence__gpl2_or_later__virtaddr
 .provided      0x0000000000019874        0x0 bin/blib.a(librm.o)
                0x0000000000019874                __licence__gpl2_or_later__librm
                0x0000000000019874                obj_librm
 .provided      0x0000000000019874        0x0 bin/blib.a(libprefix.o)
                0x0000000000019874                __licence__gpl2_or_later(long, int, bool, long double *,...)(float, int, long long)
                0x0000000000019874                obj_libprefix
 .provided      0x0000000000019874        0x0 bin/blib.a(mromprefix.o)
                0x0000000000019874                obj_mromprefix
                0x0000000000019874                __licence__gpl2_or_later__mromprefix
 .provided      0x0000000000019874        0x0 bin/blib.a(unnrv2b16.o)
                0x0000000000019874                obj_unnrv2b16
                0x0000000000019874                __licence__gpl2_or_later__unnrv2b16
 .provided      0x0000000000019874        0x0 bin/blib.a(pxe_entry.o)
                0x0000000000019874                __licence__gpl2_or_later__pxe_entry
                0x0000000000019874                obj_pxe_entry
 .provided      0x0000000000019874        0x0 bin/blib.a(ansiesc.o)
                0x0000000000019874                obj_ansiesc
                0x0000000000019874                __licence__gpl2_only__ansiesc
                0x0000000000019874                __licence__gpl2_or_later__ansiesc
 .provided      0x0000000000019874        0x0 bin/blib.a(console.o)
                0x0000000000019874                __licence__gpl2_or_later__console
                0x0000000000019874                obj_console
                0x0000000000019874                __licence__gpl2_only__console
 .provided      0x0000000000019874        0x0 bin/blib.a(cpio.o)
                0x0000000000019874                __licence__gpl2_or_later__cpio
                0x0000000000019874                __licence__gpl2_only__cpio
                0x0000000000019874                obj_cpio
 .provided      0x0000000000019874        0x0 bin/blib.a(device.o)
                0x0000000000019874                __licence__gpl2_or_later(double,...)(void, int, char,...)
                0x0000000000019874                __licence__gpl2_only(double,...)(void, int, char,...)
                0x0000000000019874                obj_device
 .provided      0x0000000000019874        0x0 bin/blib.a(exec.o)
                0x0000000000019874                __licence__gpl2_only(...)(long long,...)(char)
                0x0000000000019874                obj_exec
                0x0000000000019874                __licence__gpl2_or_later(...)(long long,...)(char)
 .provided      0x0000000000019874        0x0 bin/blib.a(getopt.o)
                0x0000000000019874                __licence__gpl2_only__getopt
                0x0000000000019874                __licence__gpl2_or_later__getopt
                0x0000000000019874                obj_getopt
 .provided      0x0000000000019874        0x0 bin/blib.a(image.o)
                0x0000000000019874                obj_image
                0x0000000000019874                __licence__gpl2_only__image
                0x0000000000019874                __licence__gpl2_or_later__image
 .provided      0x0000000000019874        0x0 bin/blib.a(init.o)
                0x0000000000019874                __licence__gpl2_or_later__init
                0x0000000000019874                __licence__gpl2_only__init
                0x0000000000019874                obj_init
 .provided      0x0000000000019874        0x0 bin/blib.a(interface.o)
                0x0000000000019874                __licence__gpl2_only__interface
                0x0000000000019874                obj_interface
                0x0000000000019874                __licence__gpl2_or_later__interface
 .provided      0x0000000000019874        0x0 bin/blib.a(iobuf.o)
                0x0000000000019874                __licence__gpl2_or_later__iobuf
                0x0000000000019874                __licence__gpl2_only__iobuf
                0x0000000000019874                obj_iobuf
                0x0000000000019874                __licence__bsd3__iobuf
 .provided      0x0000000000019874        0x0 bin/blib.a(list.o)
                0x0000000000019874                obj_list
                0x0000000000019874                __licence__gpl2_or_later__list
                0x0000000000019874                __licence__gpl2_only__list
 .provided      0x0000000000019874        0x0 bin/blib.a(main.o)
                0x0000000000019874                __licence__gpl2_or_later__main
                0x0000000000019874                obj_main
                0x0000000000019874                __licence__gpl2_only__main
 .provided      0x0000000000019874        0x0 bin/blib.a(malloc.o)
                0x0000000000019874                __licence__gpl2_or_later__malloc
                0x0000000000019874                obj_malloc
                0x0000000000019874                __licence__bsd3__malloc
                0x0000000000019874                __licence__gpl2_only__malloc
 .provided      0x0000000000019874        0x0 bin/blib.a(memblock.o)
                0x0000000000019874                __licence__gpl2_or_later__memblock
                0x0000000000019874                __licence__gpl2_only__memblock
                0x0000000000019874                obj_memblock
 .provided      0x0000000000019874        0x0 bin/blib.a(misc.o)
                0x0000000000019874                __licence__gpl2_or_later__misc
                0x0000000000019874                obj_misc
 .provided      0x0000000000019874        0x0 bin/blib.a(open.o)
                0x0000000000019874                __licence__gpl2_or_later__open
                0x0000000000019874                obj_open
                0x0000000000019874                __licence__gpl2_only__open
 .provided      0x0000000000019874        0x0 bin/blib.a(parseopt.o)
                0x0000000000019874                __licence__gpl2_only__parseopt
                0x0000000000019874                obj_parseopt
                0x0000000000019874                __licence__gpl2_or_later__parseopt
 .provided      0x0000000000019874        0x0 bin/blib.a(posix_io.o)
                0x0000000000019874                __licence__gpl2_or_later__posix_io
                0x0000000000019874                __licence__gpl2_only__posix_io
                0x0000000000019874                obj_posix_io
 .provided      0x0000000000019874        0x0 bin/blib.a(process.o)
                0x0000000000019874                __licence__gpl2_only__process
                0x0000000000019874                __licence__gpl2_or_later__process
                0x0000000000019874                obj_process
 .provided      0x0000000000019874        0x0 bin/blib.a(refcnt.o)
                0x0000000000019874                obj_refcnt
                0x0000000000019874                __licence__gpl2_or_later__refcnt
                0x0000000000019874                __licence__gpl2_only__refcnt
 .provided      0x0000000000019874        0x0 bin/blib.a(settings.o)
                0x0000000000019874                __licence__gpl2_only__settings
                0x0000000000019874                __licence__gpl2_or_later__settings
                0x0000000000019874                obj_settings
 .provided      0x0000000000019874        0x0 bin/blib.a(string.o)
                0x0000000000019874                __licence__gpl2_only__string
                0x0000000000019874                obj_string
                0x0000000000019874                __licence__gpl2_or_later__string
 .provided      0x0000000000019874        0x0 bin/blib.a(timer.o)
                0x0000000000019874                obj_timer
                0x0000000000019874                __licence__gpl2_only__timer
                0x0000000000019874                __licence__gpl2_or_later__timer
 .provided      0x0000000000019874        0x0 bin/blib.a(uri.o)
                0x0000000000019874                __licence__gpl2_only(long double, int) __restrict
                0x0000000000019874                obj_uri
                0x0000000000019874                __licence__gpl2_or_later(long double, int) __restrict
 .provided      0x0000000000019874        0x0 bin/blib.a(uuid.o)
                0x0000000000019874                obj_uuid
                0x0000000000019874                __licence__gpl2_or_later(int, double) __restrict
 .provided      0x0000000000019874        0x0 bin/blib.a(vsprintf.o)
                0x0000000000019874                __licence__gpl2_only__vsprintf
                0x0000000000019874                __licence__gpl2_or_later__vsprintf
                0x0000000000019874                obj_vsprintf
 .provided      0x0000000000019874        0x0 bin/blib.a(xfer.o)
                0x0000000000019874                obj_xfer
                0x0000000000019874                __licence__gpl2_or_later(long long, float,...)(long double)
                0x0000000000019874                __licence__gpl2_only(long long, float,...)(long double)
 .provided      0x0000000000019874        0x0 bin/blib.a(arp.o)
                0x0000000000019874                __licence__gpl2_only__arp
                0x0000000000019874                __licence__gpl2_or_later__arp
                0x0000000000019874                obj_arp
 .provided      0x0000000000019874        0x0 bin/blib.a(ethernet.o)
                0x0000000000019874                __licence__gpl2_or_later__ethernet
                0x0000000000019874                obj_ethernet
                0x0000000000019874                __licence__gpl2_only__ethernet
 .provided      0x0000000000019874        0x0 bin/blib.a(eth_slow.o)
                0x0000000000019874                __licence__gpl2_or_later__eth_slow
                0x0000000000019874                obj_eth_slow
                0x0000000000019874                __licence__gpl2_only__eth_slow
 .provided      0x0000000000019874        0x0 bin/blib.a(fakedhcp.o)
                0x0000000000019874                __licence__gpl2_or_later__fakedhcp
                0x0000000000019874                obj_fakedhcp
                0x0000000000019874                __licence__gpl2_only__fakedhcp
 .provided      0x0000000000019874        0x0 bin/blib.a(ipv4.o)
                0x0000000000019874                __licence__gpl2_or_later__ipv4
                0x0000000000019874                __licence__gpl2_only__ipv4
                0x0000000000019874                obj_ipv4
 .provided      0x0000000000019874        0x0 bin/blib.a(neighbour.o)
                0x0000000000019874                obj_neighbour
                0x0000000000019874                __licence__gpl2_only__neighbour
                0x0000000000019874                __licence__gpl2_or_later__neighbour
                0x0000000000019874                __licence__bsd3__neighbour
 .provided      0x0000000000019874        0x0 bin/blib.a(netdevice.o)
                0x0000000000019874                __licence__gpl2_or_later__netdevice
                0x0000000000019874                __licence__gpl2_only__netdevice
                0x0000000000019874                __licence__bsd3__netdevice
                0x0000000000019874                obj_netdevice
 .provided      0x0000000000019874        0x0 bin/blib.a(netdev_settings.o)
                0x0000000000019874                __licence__gpl2_only__netdev_settings
                0x0000000000019874                __licence__gpl2_or_later__netdev_settings
                0x0000000000019874                obj_netdev_settings
 .provided      0x0000000000019874        0x0 bin/blib.a(nullnet.o)
                0x0000000000019874                __licence__gpl2_or_later__nullnet
                0x0000000000019874                __licence__gpl2_only__nullnet
                0x0000000000019874                obj_nullnet
 .provided      0x0000000000019874        0x0 bin/blib.a(rarp.o)
                0x0000000000019874                __licence__gpl2_only__rarp
                0x0000000000019874                obj_rarp
                0x0000000000019874                __licence__gpl2_or_later__rarp
 .provided      0x0000000000019874        0x0 bin/blib.a(retry.o)
                0x0000000000019874                obj_retry
                0x0000000000019874                __licence__gpl2_or_later__retry
                0x0000000000019874                __licence__gpl2_only__retry
 .provided      0x0000000000019874        0x0 bin/blib.a(tcpip.o)
                0x0000000000019874                obj_tcpip
                0x0000000000019874                __licence__gpl2_or_later__tcpip
                0x0000000000019874                __licence__gpl2_only__tcpip
 .provided      0x0000000000019874        0x0 bin/blib.a(udp.o)
                0x0000000000019874                obj_udp
                0x0000000000019874                __licence__gpl2_or_later(double,  *) __restrict
                0x0000000000019874                __licence__gpl2_only(double,  *) __restrict
 .provided      0x0000000000019874        0x0 bin/blib.a(http.o)
                0x0000000000019874                __licence__gpl2_only__http
                0x0000000000019874                __licence__gpl2_or_later__http
                0x0000000000019874                obj_http
 .provided      0x0000000000019874        0x0 bin/blib.a(httpcore.o)
                0x0000000000019874                obj_httpcore
                0x0000000000019874                __licence__gpl2_or_later__httpcore
                0x0000000000019874                __licence__gpl2_only__httpcore
 .provided      0x0000000000019874        0x0 bin/blib.a(iscsi.o)
                0x0000000000019874                __licence__gpl2_only(int, short, char, short, int)
                0x0000000000019874                __licence__gpl2_or_later(int, short, char, short, int)
                0x0000000000019874                __licence(bool, short, double, __, int, short, char, short, int)
                0x0000000000019874                obj_iscsi
 .provided      0x0000000000019874        0x0 bin/blib.a(dhcp.o)
                0x0000000000019874                __licence__gpl2_or_later__dhcp
                0x0000000000019874                __licence__gpl2_only__dhcp
                0x0000000000019874                obj_dhcp
 .provided      0x0000000000019874        0x0 bin/blib.a(dns.o)
                0x0000000000019874                __licence__gpl2_or_later__dns
                0x0000000000019874                obj_dns
                0x0000000000019874                __licence__gpl2_only__dns
 .provided      0x0000000000019874        0x0 bin/blib.a(tftp.o)
                0x0000000000019874                __licence__gpl2_or_later__tftp
                0x0000000000019874                __licence__gpl2_only__tftp
                0x0000000000019874                obj_tftp
 .provided      0x0000000000019874        0x0 bin/blib.a(elf.o)
                0x0000000000019874                obj_elf
                0x0000000000019874                __licence__gpl2_only(...)(long, float)
                0x0000000000019874                __licence__gpl2_or_later(...)(long, float)
 .provided      0x0000000000019874        0x0 bin/blib.a(embedded.o)
                0x0000000000019874                obj_embedded
                0x0000000000019874                __licence__gpl2_only__embedded
                0x0000000000019874                __licence__gpl2_or_later__embedded
 .provided      0x0000000000019874        0x0 bin/blib.a(script.o)
                0x0000000000019874                __licence__gpl2_or_later__script
                0x0000000000019874                obj_script
                0x0000000000019874                __licence__gpl2_only__script
 .provided      0x0000000000019874        0x0 bin/blib.a(segment.o)
                0x0000000000019874                obj_segment
                0x0000000000019874                __licence__gpl2_or_later__segment
                0x0000000000019874                __licence__gpl2_only__segment
 .provided      0x0000000000019874        0x0 bin/blib.a(pci.o)
                0x0000000000019874                obj_pci
                0x0000000000019874                __licence__gpl2_or_later(char *, int)
                0x0000000000019874                __licence__gpl2_only(char *, int)
 .provided      0x0000000000019874        0x0 bin/blib.a(pci_settings.o)
                0x0000000000019874                __licence__gpl2_only__pci_settings
                0x0000000000019874                __licence__gpl2_or_later__pci_settings
                0x0000000000019874                obj_pci_settings
 .provided      0x0000000000019874        0x0 bin/blib.a(ibft.o)
                0x0000000000019874                __licence__gpl2_or_later__ibft
                0x0000000000019874                __licence__bsd2__ibft
                0x0000000000019874                obj_ibft
                0x0000000000019874                __licence__gpl2_only__ibft
 .provided      0x0000000000019874        0x0 bin/blib.a(scsi.o)
                0x0000000000019874                __licence__gpl2_or_later(short, char, short, int)
                0x0000000000019874                obj_scsi
                0x0000000000019874                __licence__gpl2_only(short, char, short, int)
 .provided      0x0000000000019874        0x0 bin/blib.a(smbios_settings.o)
                0x0000000000019874                obj_smbios_settings
                0x0000000000019874                __licence__gpl2_only__smbios_settings
                0x0000000000019874                __licence__gpl2_or_later__smbios_settings
 .provided      0x0000000000019874        0x0 bin/blib.a(chap.o)
                0x0000000000019874                obj_chap
                0x0000000000019874                __licence__gpl2_only__chap
                0x0000000000019874                __licence__gpl2_or_later__chap
 .provided      0x0000000000019874        0x0 bin/blib.a(md5.o)
                0x0000000000019874                obj_md5
                0x0000000000019874                __licence__gpl2_or_later__md5
                0x0000000000019874                __licence__gpl2_only__md5
 .provided      0x0000000000019874        0x0 bin/blib.a(strerror.o)
                0x0000000000019874                obj_strerror
                0x0000000000019874                __licence__gpl2_or_later__strerror
                0x0000000000019874                __licence__gpl2_only__strerror
 .provided      0x0000000000019874        0x0 bin/blib.a(autoboot_cmd.o)
                0x0000000000019874                __licence__gpl2_or_later__autoboot_cmd
                0x0000000000019874                obj_autoboot_cmd
                0x0000000000019874                __licence__gpl2_only__autoboot_cmd
 .provided      0x0000000000019874        0x0 bin/blib.a(config_cmd.o)
                0x0000000000019874                obj_config_cmd
                0x0000000000019874                __licence__gpl2_only__config_cmd
                0x0000000000019874                __licence__gpl2_or_later__config_cmd
 .provided      0x0000000000019874        0x0 bin/blib.a(dhcp_cmd.o)
                0x0000000000019874                obj_dhcp_cmd
                0x0000000000019874                __licence__gpl2_or_later__dhcp_cmd
                0x0000000000019874                __licence__gpl2_only__dhcp_cmd
 .provided      0x0000000000019874        0x0 bin/blib.a(ifmgmt_cmd.o)
                0x0000000000019874                obj_ifmgmt_cmd
                0x0000000000019874                __licence__gpl2_or_later__ifmgmt_cmd
                0x0000000000019874                __licence__gpl2_only__ifmgmt_cmd
 .provided      0x0000000000019874        0x0 bin/blib.a(image_cmd.o)
                0x0000000000019874                obj_image_cmd
                0x0000000000019874                __licence__gpl2_or_later__image_cmd
                0x0000000000019874                __licence__gpl2_only__image_cmd
 .provided      0x0000000000019874        0x0 bin/blib.a(login_cmd.o)
                0x0000000000019874                obj_login_cmd
                0x0000000000019874                __licence__gpl2_only__login_cmd
                0x0000000000019874                __licence__gpl2_or_later__login_cmd
 .provided      0x0000000000019874        0x0 bin/blib.a(menu_cmd.o)
                0x0000000000019874                obj_menu_cmd
                0x0000000000019874                __licence__gpl2_or_later__menu_cmd
                0x0000000000019874                __licence__gpl2_only__menu_cmd
 .provided      0x0000000000019874        0x0 bin/blib.a(nvo_cmd.o)
                0x0000000000019874                obj_nvo_cmd
                0x0000000000019874                __licence__gpl2_or_later__nvo_cmd
                0x0000000000019874                __licence__gpl2_only__nvo_cmd
 .provided      0x0000000000019874        0x0 bin/blib.a(reboot_cmd.o)
                0x0000000000019874                __licence__gpl2_only__reboot_cmd
                0x0000000000019874                obj_reboot_cmd
                0x0000000000019874                __licence__gpl2_or_later__reboot_cmd
 .provided      0x0000000000019874        0x0 bin/blib.a(route_cmd.o)
                0x0000000000019874                __licence__gpl2_or_later__route_cmd
                0x0000000000019874                __licence__gpl2_only__route_cmd
                0x0000000000019874                obj_route_cmd
 .provided      0x0000000000019874        0x0 bin/blib.a(sanboot_cmd.o)
                0x0000000000019874                __licence__gpl2_only__sanboot_cmd
                0x0000000000019874                __licence__gpl2_or_later__sanboot_cmd
                0x0000000000019874                obj_sanboot_cmd
 .provided      0x0000000000019874        0x0 bin/blib.a(sync_cmd.o)
                0x0000000000019874                __licence__gpl2_or_later__sync_cmd
                0x0000000000019874                obj_sync_cmd
                0x0000000000019874                __licence__gpl2_only__sync_cmd
 .provided      0x0000000000019874        0x0 bin/blib.a(login_ui.o)
                0x0000000000019874                __licence__gpl2_or_later__login_ui
                0x0000000000019874                obj_login_ui
                0x0000000000019874                __licence__gpl2_only__login_ui
 .provided      0x0000000000019874        0x0 bin/blib.a(menu_ui.o)
                0x0000000000019874                __licence__gpl2_or_later__menu_ui
                0x0000000000019874                obj_menu_ui
                0x0000000000019874                __licence__gpl2_only__menu_ui
 .provided      0x0000000000019874        0x0 bin/blib.a(settings_ui.o)
                0x0000000000019874                obj_settings_ui
                0x0000000000019874                __licence__gpl2_only__settings_ui
                0x0000000000019874                __licence__gpl2_or_later__settings_ui
 .provided      0x0000000000019874        0x0 bin/blib.a(clear.o)
                0x0000000000019874                obj_clear
                0x0000000000019874                __licence__gpl2_or_later__clear
                0x0000000000019874                __licence__gpl2_only__clear
 .provided      0x0000000000019874        0x0 bin/blib.a(mucurses.o)
                0x0000000000019874                __licence__gpl2_only__mucurses
                0x0000000000019874                __licence__gpl2_or_later__mucurses
                0x0000000000019874                obj_mucurses
 .provided      0x0000000000019874        0x0 bin/blib.a(print.o)
                0x0000000000019874                obj_print
                0x0000000000019874                __licence__gpl2_only__print
                0x0000000000019874                __licence__gpl2_or_later__print
 .provided      0x0000000000019874        0x0 bin/blib.a(winattrs.o)
                0x0000000000019874                __licence__gpl2_only__winattrs
                0x0000000000019874                obj_winattrs
                0x0000000000019874                __licence__gpl2_or_later__winattrs
 .provided      0x0000000000019874        0x0 bin/blib.a(wininit.o)
                0x0000000000019874                obj_wininit
                0x0000000000019874                __licence__gpl2_or_later__wininit
                0x0000000000019874                __licence__gpl2_only__wininit
 .provided      0x0000000000019874        0x0 bin/blib.a(editbox.o)
                0x0000000000019874                __licence__gpl2_or_later__editbox
                0x0000000000019874                obj_editbox
                0x0000000000019874                __licence__gpl2_only__editbox
 .provided      0x0000000000019874        0x0 bin/blib.a(keymap_us.o)
                0x0000000000019874                __licence__public_domain__keymap_us
                0x0000000000019874                obj_keymap_us
                0x0000000000019874                __licence__gpl2_or_later__keymap_us
 .provided      0x0000000000019874        0x0 bin/blib.a(autoboot.o)
                0x0000000000019874                __licence__gpl2_only__autoboot
                0x0000000000019874                obj_autoboot
                0x0000000000019874                __licence__gpl2_or_later__autoboot
 .provided      0x0000000000019874        0x0 bin/blib.a(dhcpmgmt.o)
                0x0000000000019874                __licence__gpl2_only__dhcpmgmt
                0x0000000000019874                __licence__gpl2_or_later__dhcpmgmt
                0x0000000000019874                obj_dhcpmgmt
 .provided      0x0000000000019874        0x0 bin/blib.a(ifmgmt.o)
                0x0000000000019874                __licence__gpl2_or_later__ifmgmt
                0x0000000000019874                __licence__gpl2_only__ifmgmt
                0x0000000000019874                obj_ifmgmt
 .provided      0x0000000000019874        0x0 bin/blib.a(imgmgmt.o)
                0x0000000000019874                __licence__gpl2_only__imgmgmt
                0x0000000000019874                __licence__gpl2_or_later__imgmgmt
                0x0000000000019874                obj_imgmgmt
 .provided      0x0000000000019874        0x0 bin/blib.a(prompt.o)
                0x0000000000019874                __licence__gpl2_or_later__prompt
                0x0000000000019874                __licence__gpl2_only__prompt
                0x0000000000019874                obj_prompt
 .provided      0x0000000000019874        0x0 bin/blib.a(pxemenu.o)
                0x0000000000019874                __licence__gpl2_or_later__pxemenu
                0x0000000000019874                obj_pxemenu
                0x0000000000019874                __licence__gpl2_only__pxemenu
 .provided      0x0000000000019874        0x0 bin/blib.a(route.o)
                0x0000000000019874                __licence__gpl2_only__route
                0x0000000000019874                obj_route
                0x0000000000019874                __licence__gpl2_or_later__route
 .provided      0x0000000000019874        0x0 bin/blib.a(sync.o)
                0x0000000000019874                __licence__gpl2_or_later__sync
                0x0000000000019874                __licence__gpl2_only__sync
                0x0000000000019874                obj_sync
 .provided      0x0000000000019874        0x0 bin/blib.a(config_ethernet.o)
                0x0000000000019874                __licence__gpl2_or_later__config_ethernet
                0x0000000000019874                obj_config_ethernet
 .provided      0x0000000000019874        0x0 bin/blib.a(config_route.o)
                0x0000000000019874                __licence__gpl2_or_later__config_route
                0x0000000000019874                obj_config_route
 .provided      0x0000000000019874        0x0 bin/blib.a(basemem_packet.o)
                0x0000000000019874                __licence__gpl2_only__basemem_packet
                0x0000000000019874                obj_basemem_packet
                0x0000000000019874                __licence__gpl2_or_later__basemem_packet
 .provided      0x0000000000019874        0x0 bin/blib.a(pci_autoboot.o)
                0x0000000000019874                __licence__gpl2_or_later__pci_autoboot
                0x0000000000019874                obj_pci_autoboot
                0x0000000000019874                __licence__gpl2_only__pci_autoboot
 .provided      0x0000000000019874        0x0 bin/blib.a(relocate.o)
                0x0000000000019874                __licence__gpl2_or_later__relocate
                0x0000000000019874                __licence__gpl2_only__relocate
                0x0000000000019874                obj_relocate
 .provided      0x0000000000019874        0x0 bin/blib.a(timer2.o)
                0x0000000000019874                obj_timer2
                0x0000000000019874                __licence__gpl2_or_later__timer2
                0x0000000000019874                __licence__gpl2_only__timer2
 .provided      0x0000000000019874        0x0 bin/blib.a(librm_mgmt.o)
                0x0000000000019874                __licence__gpl2_or_later__librm_mgmt
                0x0000000000019874                __licence__gpl2_only__librm_mgmt
                0x0000000000019874                obj_librm_mgmt
 .provided      0x0000000000019874        0x0 bin/blib.a(memmap.o)
                0x0000000000019874                __licence__gpl2_only__memmap
                0x0000000000019874                __licence__gpl2_or_later__memmap
                0x0000000000019874                obj_memmap
 .provided      0x0000000000019874        0x0 bin/blib.a(biosint.o)
                0x0000000000019874                __licence__gpl2_or_later__biosint
                0x0000000000019874                obj_biosint
                0x0000000000019874                __licence__gpl2_only__biosint
 .provided      0x0000000000019874        0x0 bin/blib.a(bios_nap.o)
                0x0000000000019874                __licence__gpl2_only__bios_nap
                0x0000000000019874                obj_bios_nap
                0x0000000000019874                __licence__gpl2_or_later__bios_nap
 .provided      0x0000000000019874        0x0 bin/blib.a(bios_reboot.o)
                0x0000000000019874                __licence__gpl2_or_later__bios_reboot
                0x0000000000019874                __licence__gpl2_only__bios_reboot
                0x0000000000019874                obj_bios_reboot
 .provided      0x0000000000019874        0x0 bin/blib.a(bios_timer.o)
                0x0000000000019874                obj_bios_timer
                0x0000000000019874                __licence__gpl2_or_later__bios_timer
                0x0000000000019874                __licence__gpl2_only__bios_timer
 .provided      0x0000000000019874        0x0 bin/blib.a(int13.o)
                0x0000000000019874                __licence__gpl2_only__int13
                0x0000000000019874                __licence__gpl2_or_later__int13
                0x0000000000019874                obj_int13
 .provided      0x0000000000019874        0x0 bin/blib.a(memtop_umalloc.o)
                0x0000000000019874                obj_memtop_umalloc
                0x0000000000019874                __licence__gpl2_only__memtop_umalloc
                0x0000000000019874                __licence__gpl2_or_later__memtop_umalloc
 .provided      0x0000000000019874        0x0 bin/blib.a(pcibios.o)
                0x0000000000019874                obj_pcibios
                0x0000000000019874                __licence__gpl2_or_later__pcibios
                0x0000000000019874                __licence__gpl2_only__pcibios
 .provided      0x0000000000019874        0x0 bin/blib.a(cpuid.o)
                0x0000000000019874                obj_cpuid
                0x0000000000019874                __licence__gpl2_or_later(char, int __restrict *, double)
                0x0000000000019874                __licence__gpl2_only(char, int __restrict *, double)
 .provided      0x0000000000019874        0x0 bin/blib.a(x86_tcpip.o)
                0x0000000000019874                obj_x86_tcpip
                0x0000000000019874                __licence__gpl2_or_later__x86_tcpip
 .provided      0x0000000000019874        0x0 bin/blib.a(stack16.o)
                0x0000000000019874                obj_stack16
                0x0000000000019874                __licence__gpl2_or_later__stack16
 .provided      0x0000000000019874        0x0 bin/blib.a(stack.o)
                0x0000000000019874                obj_stack
                0x0000000000019874                __licence__gpl2_or_later__stack
 .provided      0x0000000000019874        0x0 bin/blib.a(liba20.o)
                0x0000000000019874                __licence__gpl2_or_later__liba20
                0x0000000000019874                obj_liba20
 .provided      0x0000000000019874        0x0 bin/blib.a(acpi.o)
                0x0000000000019874                __licence__gpl2_or_later__acpi
                0x0000000000019874                __licence__gpl2_only__acpi
                0x0000000000019874                obj_acpi
 .provided      0x0000000000019874        0x0 bin/blib.a(asprintf.o)
                0x0000000000019874                __licence__gpl2_only__asprintf
                0x0000000000019874                __licence__gpl2_or_later__asprintf
                0x0000000000019874                obj_asprintf
 .provided      0x0000000000019874        0x0 bin/blib.a(base16.o)
                0x0000000000019874                obj_base16
                0x0000000000019874                __licence__gpl2_only__base16
                0x0000000000019874                __licence__gpl2_or_later__base16
 .provided      0x0000000000019874        0x0 bin/blib.a(base64.o)
                0x0000000000019874                __licence__gpl2_only__base64
                0x0000000000019874                obj_base64
                0x0000000000019874                __licence__gpl2_or_later__base64
 .provided      0x0000000000019874        0x0 bin/blib.a(basename.o)
                0x0000000000019874                obj_basename
                0x0000000000019874                __licence__gpl2_or_later__basename
                0x0000000000019874                __licence__gpl2_only__basename
 .provided      0x0000000000019874        0x0 bin/blib.a(bitmap.o)
                0x0000000000019874                obj_bitmap
                0x0000000000019874                __licence__gpl2_only__bitmap
                0x0000000000019874                __licence__gpl2_or_later__bitmap
 .provided      0x0000000000019874        0x0 bin/blib.a(blockdev.o)
                0x0000000000019874                obj_blockdev
                0x0000000000019874                __licence__gpl2_or_later__blockdev
                0x0000000000019874                __licence__gpl2_only__blockdev
 .provided      0x0000000000019874        0x0 bin/blib.a(ctype.o)
                0x0000000000019874                obj_ctype
                0x0000000000019874                __licence__gpl2_or_later__ctype
 .provided      0x0000000000019874        0x0 bin/blib.a(cwuri.o)
                0x0000000000019874                __licence__gpl2_or_later(char, wchar_t, long double __restrict, int)
                0x0000000000019874                obj_cwuri
                0x0000000000019874                __licence__gpl2_only(char, wchar_t, long double __restrict, int)
 .provided      0x0000000000019874        0x0 bin/blib.a(downloader.o)
                0x0000000000019874                __licence__gpl2_or_later__downloader
                0x0000000000019874                __licence__gpl2_only__downloader
                0x0000000000019874                obj_downloader
 .provided      0x0000000000019874        0x0 bin/blib.a(edd.o)
                0x0000000000019874                obj_edd
                0x0000000000019874                __licence__gpl2_or_later(...)(double, double)
                0x0000000000019874                __licence__gpl2_only(...)(double, double)
 .provided      0x0000000000019874        0x0 bin/blib.a(errno.o)
                0x0000000000019874                __licence__gpl2_or_later__errno
                0x0000000000019874                obj_errno
 .provided      0x0000000000019874        0x0 bin/blib.a(getkey.o)
                0x0000000000019874                __licence__gpl2_or_later__getkey
                0x0000000000019874                obj_getkey
                0x0000000000019874                __licence__gpl2_only__getkey
 .provided      0x0000000000019874        0x0 bin/blib.a(job.o)
                0x0000000000019874                __licence__gpl2_only__job
                0x0000000000019874                __licence__gpl2_or_later__job
                0x0000000000019874                obj_job
 .provided      0x0000000000019874        0x0 bin/blib.a(linebuf.o)
                0x0000000000019874                __licence__gpl2_only__linebuf
                0x0000000000019874                __licence__gpl2_or_later__linebuf
                0x0000000000019874                obj_linebuf
 .provided      0x0000000000019874        0x0 bin/blib.a(menu.o)
                0x0000000000019874                __licence__gpl2_or_later__menu
                0x0000000000019874                __licence__gpl2_only__menu
                0x0000000000019874                obj_menu
 .provided      0x0000000000019874        0x0 bin/blib.a(monojob.o)
                0x0000000000019874                __licence__gpl2_only__monojob
                0x0000000000019874                obj_monojob
                0x0000000000019874                __licence__gpl2_or_later__monojob
 .provided      0x0000000000019874        0x0 bin/blib.a(params.o)
                0x0000000000019874                __licence__gpl2_only__params
                0x0000000000019874                obj_params
                0x0000000000019874                __licence__gpl2_or_later__params
 .provided      0x0000000000019874        0x0 bin/blib.a(pending.o)
                0x0000000000019874                obj_pending
                0x0000000000019874                __licence__gpl2_or_later__pending
                0x0000000000019874                __licence__gpl2_only__pending
 .provided      0x0000000000019874        0x0 bin/blib.a(random.o)
                0x0000000000019874                __licence__gpl2_or_later__random
                0x0000000000019874                obj_random
 .provided      0x0000000000019874        0x0 bin/blib.a(resolv.o)
                0x0000000000019874                __licence__gpl2_or_later__resolv
                0x0000000000019874                obj_resolv
                0x0000000000019874                __licence__gpl2_only__resolv
 .provided      0x0000000000019874        0x0 bin/blib.a(aoe.o)
                0x0000000000019874                __licence__gpl2_or_later__aoe
                0x0000000000019874                obj_aoe
                0x0000000000019874                __licence__gpl2_only__aoe
 .provided      0x0000000000019874        0x0 bin/blib.a(dhcppkt.o)
                0x0000000000019874                __licence__gpl2_or_later__dhcppkt
                0x0000000000019874                obj_dhcppkt
                0x0000000000019874                __licence__gpl2_only__dhcppkt
 .provided      0x0000000000019874        0x0 bin/blib.a(fragment.o)
                0x0000000000019874                __licence__gpl2_only__fragment
                0x0000000000019874                obj_fragment
                0x0000000000019874                __licence__gpl2_or_later__fragment
 .provided      0x0000000000019874        0x0 bin/blib.a(icmpv4.o)
                0x0000000000019874                obj_icmpv4
                0x0000000000019874                __licence__gpl2_only__icmpv4
                0x0000000000019874                __licence__gpl2_or_later__icmpv4
 .provided      0x0000000000019874        0x0 bin/blib.a(socket.o)
                0x0000000000019874                __licence__gpl2_or_later__socket
                0x0000000000019874                __licence__gpl2_only__socket
                0x0000000000019874                obj_socket
 .provided      0x0000000000019874        0x0 bin/blib.a(tcp.o)
                0x0000000000019874                obj_tcp
                0x0000000000019874                __licence__gpl2_or_later__tcp
                0x0000000000019874                __licence__gpl2_only__tcp
                0x0000000000019874                __licence(bool, short, double, __t, char,  *)
 .provided      0x0000000000019874        0x0 bin/blib.a(ata.o)
                0x0000000000019874                __licence__gpl2_or_later__ata
                0x0000000000019874                __licence__gpl2_only__ata
                0x0000000000019874                obj_ata
 .provided      0x0000000000019874        0x0 bin/blib.a(smbios.o)
                0x0000000000019874                __licence__gpl2_only__smbios
                0x0000000000019874                obj_smbios
                0x0000000000019874                __licence__gpl2_or_later__smbios
 .provided      0x0000000000019874        0x0 bin/blib.a(editstring.o)
                0x0000000000019874                obj_editstring
                0x0000000000019874                __licence__gpl2_or_later__editstring
                0x0000000000019874                __licence__gpl2_only__editstring
 .provided      0x0000000000019874        0x0 bin/blib.a(readline.o)
                0x0000000000019874                __licence__gpl2_or_later__readline
                0x0000000000019874                obj_readline
                0x0000000000019874                __licence__gpl2_only__readline
 .provided      0x0000000000019874        0x0 bin/blib.a(shell.o)
                0x0000000000019874                __licence__gpl2_or_later__shell
                0x0000000000019874                __licence__gpl2_only__shell
                0x0000000000019874                obj_shell
 .provided      0x0000000000019874        0x0 bin/blib.a(ansi_screen.o)
                0x0000000000019874                __licence__gpl2_only__ansi_screen
                0x0000000000019874                __licence__gpl2_or_later__ansi_screen
                0x0000000000019874                obj_ansi_screen
 .provided      0x0000000000019874        0x0 bin/blib.a(route_ipv4.o)
                0x0000000000019874                __licence__gpl2_only__route_ipv4
                0x0000000000019874                __licence__gpl2_or_later__route_ipv4
                0x0000000000019874                obj_route_ipv4
 .provided      0x0000000000019874        0x0 bin/blib.a(hidemem.o)
                0x0000000000019874                __licence__gpl2_or_later__hidemem
                0x0000000000019874                __licence__gpl2_only__hidemem
                0x0000000000019874                obj_hidemem
 .provided      0x0000000000019874        0x0 bin/blib.a(bootsector.o)
                0x0000000000019874                __licence__gpl2_or_later__bootsector
                0x0000000000019874                __licence__gpl2_only__bootsector
                0x0000000000019874                obj_bootsector
 .provided      0x0000000000019874        0x0 bin/blib.a(bios_smbios.o)
                0x0000000000019874                __licence__gpl2_only__bios_smbios
                0x0000000000019874                __licence__gpl2_or_later__bios_smbios
                0x0000000000019874                obj_bios_smbios
 .provided      0x0000000000019874        0x0 bin/blib.a(e820mangler.o)
                0x0000000000019874                __licence__gpl2_or_later__e820mangler
                0x0000000000019874                obj_e820mangler
 .provided      0x0000000000019874        0x0 bin/blib.a(ansicol.o)
                0x0000000000019874                __licence__gpl2_or_later__ansicol
                0x0000000000019874                __licence__gpl2_only__ansicol
                0x0000000000019874                obj_ansicol
 .provided      0x0000000000019874        0x0 bin/blib.a(dhcpopts.o)
                0x0000000000019874                __licence__gpl2_only__dhcpopts
                0x0000000000019874                __licence__gpl2_or_later__dhcpopts
                0x0000000000019874                obj_dhcpopts
 .provided      0x0000000000019874        0x0 bin/blib.a(icmp.o)
                0x0000000000019874                obj_icmp
                0x0000000000019874                __licence__gpl2_or_later__icmp
                0x0000000000019874                __licence__gpl2_only__icmp
 .provided      0x0000000000019874        0x0 bin/blib.a(patch_cf.o)
                0x0000000000019874                obj_patch_cf
                0x0000000000019874                __licence__gpl2_or_later__patch_cf
 *(.provided.*)
                0x0000000000019874                _mtextdata = .

.bss.textdata   0x0000000000019880    0x82208 load address 0x000000000001ad30
 *(.bss)
 *(.bss.*)
 .bss.mb_cmdline_offset
                0x0000000000019880        0x4 bin/blib.a(multiboot.o)
 .bss.int_1a_hooked
                0x0000000000019884        0x4 bin/blib.a(pxe_call.o)
 .bss.pxe_netdev
                0x0000000000019888        0x4 bin/blib.a(pxe_undi.o)
                0x0000000000019888                pxe_netdev
 .bss.undi_tx_count
                0x000000000001988c        0x4 bin/blib.a(pxe_undi.o)
 .bss.device_keep_count
                0x0000000000019890        0x4 bin/blib.a(device.o)
                0x0000000000019890                device_keep_count
 .bss.stop_state
                0x0000000000019894        0x4 bin/blib.a(exec.o)
 .bss.exit_opts
                0x0000000000019898        0x0 bin/blib.a(exec.o)
 .bss.isset_opts
                0x0000000000019898        0x0 bin/blib.a(exec.o)
 .bss.iseq_opts
                0x0000000000019898        0x0 bin/blib.a(exec.o)
 .bss.sleep_opts
                0x0000000000019898        0x0 bin/blib.a(exec.o)
 .bss.imgindex.1889
                0x0000000000019898        0x4 bin/blib.a(image.o)
 .bss.require_trusted_images
                0x000000000001989c        0x4 bin/blib.a(image.o)
 .bss.started   0x00000000000198a0        0x4 bin/blib.a(init.o)
 .bss.heap      0x00000000000198a4    0x80000 bin/blib.a(malloc.o)
 .bss.buf.3457  0x00000000000998a4       0x10 bin/blib.a(settings.o)
 .bss.buf.918   0x00000000000998b4       0x25 bin/blib.a(uuid.o)
 *fill*         0x00000000000998d9        0x3 00
 .bss.dummy_metadata
                0x00000000000998dc       0x14 bin/blib.a(xfer.o)
 .bss.buf.2101  0x00000000000998f0       0x12 bin/blib.a(ethernet.o)
 *fill*         0x0000000000099902        0x2 00
 .bss.buf.3015  0x0000000000099904       0x10 bin/blib.a(ipv4.o)
 .bss.ipv4_stats
                0x0000000000099914       0x48 bin/blib.a(ipv4.o)
 .bss.next_ident_high
                0x000000000009995c        0x1 bin/blib.a(ipv4.o)
 *fill*         0x000000000009995d        0x3 00
 .bss.ifindex.2372
                0x0000000000099960        0x4 bin/blib.a(netdevice.o)
 .bss.itt_idx.3423
                0x0000000000099964        0x2 bin/blib.a(iscsi.o)
 *fill*         0x0000000000099966        0x2 00
 .bss.dns_search
                0x0000000000099968        0xc bin/blib.a(dns.o)
 .bss.tftp_server.3301
                0x0000000000099974        0x4 bin/blib.a(tftp.o)
 .bss.script_offset
                0x0000000000099978        0x4 bin/blib.a(script.o)
 .bss.goto_label
                0x000000000009997c        0x4 bin/blib.a(script.o)
 .bss.goto_opts
                0x0000000000099980        0x0 bin/blib.a(script.o)
 .bss.end.2189  0x0000000000099980        0x4 bin/blib.a(pci.o)
 .bss.pci_settings_scope
                0x0000000000099984        0x1 bin/blib.a(pci_settings.o)
 .bss.smbios_settings_scope
                0x0000000000099985        0x1 bin/blib.a(smbios_settings.o)
 *fill*         0x0000000000099986        0x2 00
 .bss.errbuf.1068
                0x0000000000099988       0x40 bin/blib.a(strerror.o)
 .bss.autoboot_opts
                0x00000000000999c8        0x0 bin/blib.a(autoboot_cmd.o)
 .bss.config_opts
                0x00000000000999c8        0x0 bin/blib.a(config_cmd.o)
 .bss.pxebs_opts
                0x00000000000999c8        0x0 bin/blib.a(dhcp_cmd.o)
 .bss.ifstat_opts
                0x00000000000999c8        0x0 bin/blib.a(ifmgmt_cmd.o)
 .bss.ifclose_opts
                0x00000000000999c8        0x0 bin/blib.a(ifmgmt_cmd.o)
 .bss.ifopen_opts
                0x00000000000999c8        0x0 bin/blib.a(ifmgmt_cmd.o)
 .bss.imgmulti_opts
                0x00000000000999c8        0x0 bin/blib.a(image_cmd.o)
 .bss.login_opts
                0x00000000000999c8        0x0 bin/blib.a(login_cmd.o)
 .bss.inc_opts  0x00000000000999c8        0x0 bin/blib.a(nvo_cmd.o)
 .bss.set_core_opts
                0x00000000000999c8        0x0 bin/blib.a(nvo_cmd.o)
 .bss.show_opts
                0x00000000000999c8        0x0 bin/blib.a(nvo_cmd.o)
 .bss.route_opts
                0x00000000000999c8        0x0 bin/blib.a(route_cmd.o)
 .bss.intr_vec  0x00000000000999c8      0x800 bin/blib.a(librm_mgmt.o)
 .bss.days.1505
                0x000000000009a1c8        0x4 bin/blib.a(bios_timer.o)
 .bss.equipment_word
                0x000000000009a1cc        0x2 bin/blib.a(int13.o)
 *fill*         0x000000000009a1ce        0x2 00
 .bss.bottom    0x000000000009a1d0        0x4 bin/blib.a(memtop_umalloc.o)
 .bss.top       0x000000000009a1d4        0x4 bin/blib.a(memtop_umalloc.o)
 .bss.heap_size
                0x000000000009a1d8        0x4 bin/blib.a(memtop_umalloc.o)
 .bss.cwuri     0x000000000009a1dc        0x4 bin/blib.a(cwuri.o)
                0x000000000009a1dc                cwuri
 .bss.monojob_rc
                0x000000000009a1e0        0x4 bin/blib.a(monojob.o)
 .bss.rnd_seed  0x000000000009a1e4        0x4 bin/blib.a(random.o)
 .bss.tag_idx.3056
                0x000000000009a1e8        0x2 bin/blib.a(aoe.o)
 *fill*         0x000000000009a1ea        0x2 00
 .bss.offset.1475
                0x000000000009a1ec        0x4 bin/blib.a(smbios.o)
 .bss.smbios    0x000000000009a1f0       0x10 bin/blib.a(smbios.o)
 .bss.shell_opts
                0x000000000009a200        0x0 bin/blib.a(shell.o)
 .bss.saved_usage
                0x000000000009a200        0x4 bin/blib.a(ansi_screen.o)
 .bss.int18_vector
                0x000000000009a204        0x4 bin/blib.a(bootsector.o)
 .bss.int19_vector
                0x000000000009a208        0x4 bin/blib.a(bootsector.o)
 *(COMMON)
 COMMON         0x000000000009a20c        0x8 bin/blib.a(initrd.o)
                0x000000000009a20c                initrd_top
                0x000000000009a210                initrd_bottom
 COMMON         0x000000000009a214        0x4 bin/blib.a(pxe_image.o)
                0x000000000009a214                pxe_cmdline
 COMMON         0x000000000009a218       0x1c bin/blib.a(pxe_call.o)
                0x000000000009a218                pxe_restart_nbp
 COMMON         0x000000000009a234        0x2 bin/blib.a(pxe_preboot.o)
                0x000000000009a234                isapnp_read_port
 *fill*         0x000000000009a236        0x2 00
 COMMON         0x000000000009a238       0x10 bin/blib.a(getopt.o)
                0x000000000009a238                optarg
                0x000000000009a23c                optind
                0x000000000009a240                nextchar
                0x000000000009a244                optopt
 COMMON         0x000000000009a248        0x4 bin/blib.a(image.o)
                0x000000000009a248                current_image
 COMMON         0x000000000009a24c        0x4 bin/blib.a(malloc.o)
                0x000000000009a24c                freemem
 COMMON         0x000000000009a250        0x2 bin/blib.a(settings.o)
                0x000000000009a250                builtin_scope
                0x000000000009a251                ipv6_scope
 *fill*         0x000000000009a252        0x2 00
 COMMON         0x000000000009a254        0x4 bin/blib.a(dhcp.o)
                0x000000000009a254                dhcp_last_xid
 COMMON         0x000000000009a258       0x1c bin/blib.a(autoboot.o)
                0x000000000009a258                autoboot_device
 *fill*         0x000000000009a274        0xc 00
 COMMON         0x000000000009a280      0x800 bin/blib.a(librm_mgmt.o)
                0x000000000009a280                idt
 COMMON         0x000000000009aa80        0x4 bin/blib.a(errno.o)
                0x000000000009aa80                errno
 COMMON         0x000000000009aa84        0x4 bin/blib.a(pending.o)
                0x000000000009aa84                pending_total
 *(.stack)
 .stack         0x000000000009aa88     0x1000 bin/blib.a(stack.o)
                0x000000000009aa88                _stack
                0x000000000009ba88                _estack
 *(.stack.*)
                0x000000000009ba88                _etextdata = .
                0x0000000000019874                _textdata_filesz = (ABSOLUTE (_mtextdata) - ABSOLUTE (_textdata))
                0x000000000009ba88                _textdata_memsz = (ABSOLUTE (_etextdata) - ABSOLUTE (_textdata))

.pprefix        0x0000000000000000       0x38 load address 0x0000000000000c00
                0x0000000000000000                _pprefix = .
 *(.pprefix)
 .pprefix       0x0000000000000000       0x38 bin/blib.a(mromprefix.o)
 *(.pprefix.*)
                0x0000000000000038                _mpprefix = .

.iplt           0x0000000000000040        0x0 load address 0x0000000000000c40
 .iplt          0x0000000000000000        0x0 bin/version.8086100f.mrom.o

.igot.plt       0x0000000000000038        0x0 load address 0x0000000000000c38
 .igot.plt      0x0000000000000000        0x0 bin/version.8086100f.mrom.o

.bss.pprefix    0x0000000000000038        0x0 load address 0x000000000001ad30
                0x0000000000000038                _epprefix = .
                0x0000000000000038                _pprefix_filesz = (ABSOLUTE (_mpprefix) - ABSOLUTE (_pprefix))
                0x0000000000000038                _pprefix_memsz = (ABSOLUTE (_epprefix) - ABSOLUTE (_pprefix))

.zinfo          0x0000000000000000       0xf0 load address 0x000000000001ac40
                0x0000000000000000                _zinfo = .
 *(.zinfo)
 .zinfo         0x0000000000000000       0x70 bin/blib.a(libprefix.o)
 *(.zinfo.*)
 .zinfo.fixup   0x0000000000000070       0x80 bin/blib.a(mromprefix.o)
                0x00000000000000f0                _mzinfo = .

.bss.zinfo      0x00000000000000f0        0x0 load address 0x000000000001ad30
                0x00000000000000f0                _ezinfo = .
                0x00000000000000f0                _zinfo_filesz = (ABSOLUTE (_mzinfo) - ABSOLUTE (_zinfo))
                0x00000000000000f0                _zinfo_memsz = (ABSOLUTE (_ezinfo) - ABSOLUTE (_zinfo))

.weak           0x0000000000000000        0x0 load address 0x000000000001ad30
                0x0000000000000000                _weak = .
 *(.weak)
 *(.weak.*)
                0x0000000000000000                _eweak = .
                0x0000000000000001                _assert = ASSERT ((_weak == _eweak), .weak is non-zero length)

/DISCARD/
 *(.comment)
 *(.comment.*)
 *(.note)
 *(.note.*)
 *(.eh_frame)
 *(.eh_frame.*)
 *(.rel)
 *(.rel.*)
 *(.einfo)
 *(.einfo.*)
 *(.discard)
 *(.discard.*)
                0x0000000000000000                . = 0x0
                0x0000000000000000                . = ALIGN (_max_align)
                0x0000000000000000                _prefix_lma = .
                0x000000000000084b                . = (. + _prefix_filesz)
                0x0000000000000850                . = ALIGN (_max_align)
                0x0000000000000850                _text16_early_lma = .
                0x0000000000000afc                . = (. + _text16_early_filesz)
                0x0000000000000b00                . = ALIGN (_max_align)
                0x0000000000000c00                . = ALIGN (_payload_align)
                0x0000000000000c00                _pprefix_lma = .
                0x0000000000000c38                . = (. + _pprefix_filesz)
                0x0000000000000c40                . = ALIGN (_max_align)
                0x0000000000000c40                _payload_lma = .
                0x0000000000000040                _pprefix_skip = (ABSOLUTE (_payload_lma) - ABSOLUTE (_pprefix_lma))
                0x0000000000000c40                _text16_late_lma = .
                0x00000000000012ec                . = (. + _text16_late_filesz)
                0x00000000000012f0                . = ALIGN (_max_align)
                0x00000000000012f0                _data16_lma = .
                0x00000000000013b2                . = (. + _data16_filesz)
                0x00000000000013c0                . = ALIGN (_max_align)
                0x00000000000013c0                _textdata_lma = .
                0x000000000001ac34                . = (. + _textdata_filesz)
                0x000000000001ac34                _filesz = .
                0x000000000001ac40                . = ALIGN (_max_align)
                0x000000000001ac40                _zinfo_lma = .
                0x000000000001ad30                . = (. + _zinfo_filesz)
                0x000000000001ad30                . = ALIGN (_max_align)
                0x000000000001ad30                _end_lma = .
                0x0000000000000096                _text16_memsz_pgh = ((_text16_memsz + 0xf) / 0x10)
                0x00000000000002cd                _data16_memsz_pgh = ((_data16_memsz + 0xf) / 0x10)
                0x0000000000009ba9                _textdata_memsz_pgh = ((_textdata_memsz + 0xf) / 0x10)
                0x000000000000026f                _textdata_memsz_kb = ((_textdata_memsz + 0x3ff) / 0x400)
                0x0000000000000000                check__mrom_start = _mrom_start
                0x0000000000019874                check_obj_intel = obj_intel
                0x0000000000019874                check_obj_config = obj_config
                0x0000000000008086                pci_vendor_id = 0x8086
                0x000000000000100f                pci_device_id = 0x100f
LOAD bin/version.8086100f.mrom.o
LOAD bin/blib.a
                0x0000000086613533                _build_id = 0x86613533
                0x0000000053ba5de5                _build_timestamp = 0x53ba5de5
OUTPUT(bin/8086100f.mrom.tmp elf32-i386)

.debug_info     0x0000000000000000    0x8c628
 .debug_info    0x0000000000000000      0xcd2 bin/version.8086100f.mrom.o
 .debug_info    0x0000000000000cd2     0x3584 bin/blib.a(intel.o)
 .debug_info    0x0000000000004256      0x44b bin/blib.a(nvs.o)
 .debug_info    0x00000000000046a1      0x40e bin/blib.a(config.o)
 .debug_info    0x0000000000004aaf      0x73e bin/blib.a(bios_console.o)
 .debug_info    0x00000000000051ed     0x2ea9 bin/blib.a(bzimage.o)
 .debug_info    0x0000000000008096     0x124b bin/blib.a(elfboot.o)
 .debug_info    0x00000000000092e1     0x11c5 bin/blib.a(initrd.o)
 .debug_info    0x000000000000a4a6     0x20ea bin/blib.a(multiboot.o)
 .debug_info    0x000000000000c590     0x11ee bin/blib.a(pxe_image.o)
 .debug_info    0x000000000000d77e     0x2618 bin/blib.a(pxe_call.o)
 .debug_info    0x000000000000fd96     0x27d2 bin/blib.a(pxe_file.o)
 .debug_info    0x0000000000012568      0x561 bin/blib.a(pxe_loader.o)
 .debug_info    0x0000000000012ac9     0x276b bin/blib.a(pxe_preboot.o)
 .debug_info    0x0000000000015234     0x1d66 bin/blib.a(pxe_tftp.o)
 .debug_info    0x0000000000016f9a     0x1d64 bin/blib.a(pxe_udp.o)
 .debug_info    0x0000000000018cfe     0x3409 bin/blib.a(pxe_undi.o)
 .debug_info    0x000000000001c107      0x340 bin/blib.a(x86_string.o)
 .debug_info    0x000000000001c447      0x73a bin/blib.a(cpuid_cmd.o)
 .debug_info    0x000000000001cb81      0x32b bin/blib.a(ansiesc.o)
 .debug_info    0x000000000001ceac      0x3af bin/blib.a(console.o)
 .debug_info    0x000000000001d25b      0x306 bin/blib.a(cpio.o)
 .debug_info    0x000000000001d561      0x6e9 bin/blib.a(device.o)
 .debug_info    0x000000000001dc4a      0xff2 bin/blib.a(exec.o)
 .debug_info    0x000000000001ec3c      0x3ea bin/blib.a(getopt.o)
 .debug_info    0x000000000001f026      0xc35 bin/blib.a(image.o)
 .debug_info    0x000000000001fc5b      0x238 bin/blib.a(init.o)
 .debug_info    0x000000000001fe93      0x6c6 bin/blib.a(interface.o)
 .debug_info    0x0000000000020559      0x8b5 bin/blib.a(iobuf.o)
 .debug_info    0x0000000000020e0e      0x7fb bin/blib.a(list.o)
 .debug_info    0x0000000000021609      0x16e bin/blib.a(main.o)
 .debug_info    0x0000000000021777      0xb30 bin/blib.a(malloc.o)
 .debug_info    0x00000000000222a7      0x25e bin/blib.a(memblock.o)
 .debug_info    0x0000000000022505      0x2e5 bin/blib.a(misc.o)
 .debug_info    0x00000000000227ea      0x7e9 bin/blib.a(open.o)
 .debug_info    0x0000000000022fd3     0x138d bin/blib.a(parseopt.o)
 .debug_info    0x0000000000024360      0xe02 bin/blib.a(posix_io.o)
 .debug_info    0x0000000000025162      0x4b3 bin/blib.a(process.o)
 .debug_info    0x0000000000025615      0x18f bin/blib.a(refcnt.o)
 .debug_info    0x00000000000257a4     0x4425 bin/blib.a(settings.o)
 .debug_info    0x0000000000029bc9      0x658 bin/blib.a(string.o)
 .debug_info    0x000000000002a221      0x162 bin/blib.a(timer.o)
 .debug_info    0x000000000002a383     0x1013 bin/blib.a(uri.o)
 .debug_info    0x000000000002b396      0x272 bin/blib.a(uuid.o)
 .debug_info    0x000000000002b608      0x89f bin/blib.a(vsprintf.o)
 .debug_info    0x000000000002bea7      0xb19 bin/blib.a(xfer.o)
 .debug_info    0x000000000002c9c0     0x1462 bin/blib.a(arp.o)
 .debug_info    0x000000000002de22     0x1574 bin/blib.a(ethernet.o)
 .debug_info    0x000000000002f396     0x151f bin/blib.a(eth_slow.o)
 .debug_info    0x00000000000308b5     0x1008 bin/blib.a(fakedhcp.o)
 .debug_info    0x00000000000318bd     0x28b8 bin/blib.a(ipv4.o)
 .debug_info    0x0000000000034175     0x189b bin/blib.a(neighbour.o)
 .debug_info    0x0000000000035a10     0x25a8 bin/blib.a(netdevice.o)
 .debug_info    0x0000000000037fb8     0x1477 bin/blib.a(netdev_settings.o)
 .debug_info    0x000000000003942f      0xc04 bin/blib.a(nullnet.o)
 .debug_info    0x000000000003a033      0xc3f bin/blib.a(rarp.o)
 .debug_info    0x000000000003ac72      0x530 bin/blib.a(retry.o)
 .debug_info    0x000000000003b1a2     0x11e8 bin/blib.a(tcpip.o)
 .debug_info    0x000000000003c38a     0x1b6d bin/blib.a(udp.o)
 .debug_info    0x000000000003def7      0xbf4 bin/blib.a(http.o)
 .debug_info    0x000000000003eaeb     0x2ff5 bin/blib.a(httpcore.o)
 .debug_info    0x0000000000041ae0     0x4d6d bin/blib.a(iscsi.o)
 .debug_info    0x000000000004684d     0x2df1 bin/blib.a(dhcp.o)
 .debug_info    0x000000000004963e     0x2293 bin/blib.a(dns.o)
 .debug_info    0x000000000004b8d1     0x2f9a bin/blib.a(tftp.o)
 .debug_info    0x000000000004e86b      0xd03 bin/blib.a(elf.o)
 .debug_info    0x000000000004f56e      0x3dd bin/blib.a(embedded.o)
 .debug_info    0x000000000004f94b     0x1298 bin/blib.a(script.o)
 .debug_info    0x0000000000050be3      0x43c bin/blib.a(segment.o)
 .debug_info    0x000000000005101f      0xd5f bin/blib.a(pci.o)
 .debug_info    0x0000000000051d7e      0x9d5 bin/blib.a(pci_settings.o)
 .debug_info    0x0000000000052753     0x2b89 bin/blib.a(ibft.o)
 .debug_info    0x00000000000552dc     0x2180 bin/blib.a(scsi.o)
 .debug_info    0x000000000005745c      0xb0f bin/blib.a(smbios_settings.o)
 .debug_info    0x0000000000057f6b      0x492 bin/blib.a(chap.o)
 .debug_info    0x00000000000583fd      0xcd7 bin/blib.a(md5.o)
 .debug_info    0x00000000000590d4      0x29b bin/blib.a(strerror.o)
 .debug_info    0x000000000005936f      0xe46 bin/blib.a(autoboot_cmd.o)
 .debug_info    0x000000000005a1b5      0x6bf bin/blib.a(config_cmd.o)
 .debug_info    0x000000000005a874      0xd6f bin/blib.a(dhcp_cmd.o)
 .debug_info    0x000000000005b5e3     0x105b bin/blib.a(ifmgmt_cmd.o)
 .debug_info    0x000000000005c63e      0xe22 bin/blib.a(image_cmd.o)
 .debug_info    0x000000000005d460      0x68d bin/blib.a(login_cmd.o)
 .debug_info    0x000000000005daed     0x10f7 bin/blib.a(menu_cmd.o)
 .debug_info    0x000000000005ebe4      0xcac bin/blib.a(nvo_cmd.o)
 .debug_info    0x000000000005f890      0x68f bin/blib.a(reboot_cmd.o)
 .debug_info    0x000000000005ff1f      0x670 bin/blib.a(route_cmd.o)
 .debug_info    0x000000000006058f      0xa28 bin/blib.a(sanboot_cmd.o)
 .debug_info    0x0000000000060fb7      0x689 bin/blib.a(sync_cmd.o)
 .debug_info    0x0000000000061640      0x9ac bin/blib.a(login_ui.o)
 .debug_info    0x0000000000061fec      0xe8d bin/blib.a(menu_ui.o)
 .debug_info    0x0000000000062e79     0x166d bin/blib.a(settings_ui.o)
 .debug_info    0x00000000000644e6      0x5bc bin/blib.a(clear.o)
 .debug_info    0x0000000000064aa2      0x597 bin/blib.a(mucurses.o)
 .debug_info    0x0000000000065039      0x551 bin/blib.a(print.o)
 .debug_info    0x000000000006558a      0x64b bin/blib.a(winattrs.o)
 .debug_info    0x0000000000065bd5      0x436 bin/blib.a(wininit.o)
 .debug_info    0x000000000006600b      0x84b bin/blib.a(editbox.o)
 .debug_info    0x0000000000066856      0x12e bin/blib.a(keymap_us.o)
 .debug_info    0x0000000000066984     0x16b8 bin/blib.a(autoboot.o)
 .debug_info    0x000000000006803c      0xb5f bin/blib.a(dhcpmgmt.o)
 .debug_info    0x0000000000068b9b     0x10f8 bin/blib.a(ifmgmt.o)
 .debug_info    0x0000000000069c93      0x5cb bin/blib.a(imgmgmt.o)
 .debug_info    0x000000000006a25e      0x15e bin/blib.a(prompt.o)
 .debug_info    0x000000000006a3bc     0x161e bin/blib.a(pxemenu.o)
 .debug_info    0x000000000006b9da      0xb51 bin/blib.a(route.o)
 .debug_info    0x000000000006c52b      0x2f6 bin/blib.a(sync.o)
 .debug_info    0x000000000006c821       0x9a bin/blib.a(config_ethernet.o)
 .debug_info    0x000000000006c8bb       0x9a bin/blib.a(config_route.o)
 .debug_info    0x000000000006c955      0x10a bin/blib.a(basemem_packet.o)
 .debug_info    0x000000000006ca5f      0x245 bin/blib.a(pci_autoboot.o)
 .debug_info    0x000000000006cca4      0x614 bin/blib.a(relocate.o)
 .debug_info    0x000000000006d2b8      0x3d7 bin/blib.a(timer2.o)
 .debug_info    0x000000000006d68f      0x977 bin/blib.a(librm_mgmt.o)
 .debug_info    0x000000000006e006      0x993 bin/blib.a(memmap.o)
 .debug_info    0x000000000006e999      0xb5c bin/blib.a(biosint.o)
 .debug_info    0x000000000006f4f5       0xfa bin/blib.a(bios_nap.o)
 .debug_info    0x000000000006f5ef      0x583 bin/blib.a(bios_reboot.o)
 .debug_info    0x000000000006fb72      0x7c7 bin/blib.a(bios_timer.o)
 .debug_info    0x0000000000070339     0x5087 bin/blib.a(int13.o)
 .debug_info    0x00000000000753c0      0xc5a bin/blib.a(memtop_umalloc.o)
 .debug_info    0x000000000007601a      0x4f5 bin/blib.a(pcibios.o)
 .debug_info    0x000000000007650f      0x580 bin/blib.a(cpuid.o)
 .debug_info    0x0000000000076a8f      0x1fc bin/blib.a(x86_tcpip.o)
 .debug_info    0x0000000000076c8b      0x3b4 bin/blib.a(acpi.o)
 .debug_info    0x000000000007703f      0x1d0 bin/blib.a(asprintf.o)
 .debug_info    0x000000000007720f      0x273 bin/blib.a(base16.o)
 .debug_info    0x0000000000077482      0x362 bin/blib.a(base64.o)
 .debug_info    0x00000000000777e4      0x158 bin/blib.a(basename.o)
 .debug_info    0x000000000007793c      0x261 bin/blib.a(bitmap.o)
 .debug_info    0x0000000000077b9d      0x4e9 bin/blib.a(blockdev.o)
 .debug_info    0x0000000000078086       0xab bin/blib.a(ctype.o)
 .debug_info    0x0000000000078131      0x28f bin/blib.a(cwuri.o)
 .debug_info    0x00000000000783c0      0xd87 bin/blib.a(downloader.o)
 .debug_info    0x0000000000079147      0x4a0 bin/blib.a(edd.o)
 .debug_info    0x00000000000795e7       0x8f bin/blib.a(errno.o)
 .debug_info    0x0000000000079676      0x19f bin/blib.a(getkey.o)
 .debug_info    0x0000000000079815      0x338 bin/blib.a(job.o)
 .debug_info    0x0000000000079b4d      0x394 bin/blib.a(linebuf.o)
 .debug_info    0x0000000000079ee1      0x4e9 bin/blib.a(menu.o)
 .debug_info    0x000000000007a3ca      0x3dc bin/blib.a(monojob.o)
 .debug_info    0x000000000007a7a6      0x54a bin/blib.a(params.o)
 .debug_info    0x000000000007acf0      0x166 bin/blib.a(pending.o)
 .debug_info    0x000000000007ae56      0x14f bin/blib.a(random.o)
 .debug_info    0x000000000007afa5      0xe8d bin/blib.a(resolv.o)
 .debug_info    0x000000000007be32     0x2f08 bin/blib.a(aoe.o)
 .debug_info    0x000000000007ed3a     0x141a bin/blib.a(dhcppkt.o)
 .debug_info    0x0000000000080154      0xb23 bin/blib.a(fragment.o)
 .debug_info    0x0000000000080c77      0x43f bin/blib.a(icmpv4.o)
 .debug_info    0x00000000000810b6      0x253 bin/blib.a(socket.o)
 .debug_info    0x0000000000081309     0x37d5 bin/blib.a(tcp.o)
 .debug_info    0x0000000000084ade     0x13e5 bin/blib.a(ata.o)
 .debug_info    0x0000000000085ec3      0xe6d bin/blib.a(smbios.o)
 .debug_info    0x0000000000086d30      0x612 bin/blib.a(editstring.o)
 .debug_info    0x0000000000087342      0x7d1 bin/blib.a(readline.o)
 .debug_info    0x0000000000087b13      0x896 bin/blib.a(shell.o)
 .debug_info    0x00000000000883a9      0x67b bin/blib.a(ansi_screen.o)
 .debug_info    0x0000000000088a24      0xc4e bin/blib.a(route_ipv4.o)
 .debug_info    0x0000000000089672      0x99d bin/blib.a(hidemem.o)
 .debug_info    0x000000000008a00f      0x1e8 bin/blib.a(bootsector.o)
 .debug_info    0x000000000008a1f7      0x328 bin/blib.a(bios_smbios.o)
 .debug_info    0x000000000008a51f      0x4c8 bin/blib.a(ansicol.o)
 .debug_info    0x000000000008a9e7     0x1548 bin/blib.a(dhcpopts.o)
 .debug_info    0x000000000008bf2f      0x6f9 bin/blib.a(icmp.o)

.debug_abbrev   0x0000000000000000    0x169f5
 .debug_abbrev  0x0000000000000000      0x122 bin/version.8086100f.mrom.o
 .debug_abbrev  0x0000000000000122      0x4b8 bin/blib.a(intel.o)
 .debug_abbrev  0x00000000000005da      0x1ae bin/blib.a(nvs.o)
 .debug_abbrev  0x0000000000000788       0x89 bin/blib.a(config.o)
 .debug_abbrev  0x0000000000000811      0x241 bin/blib.a(bios_console.o)
 .debug_abbrev  0x0000000000000a52      0x382 bin/blib.a(bzimage.o)
 .debug_abbrev  0x0000000000000dd4      0x2d0 bin/blib.a(elfboot.o)
 .debug_abbrev  0x00000000000010a4      0x2f2 bin/blib.a(initrd.o)
 .debug_abbrev  0x0000000000001396      0x3e4 bin/blib.a(multiboot.o)
 .debug_abbrev  0x000000000000177a      0x2ab bin/blib.a(pxe_image.o)
 .debug_abbrev  0x0000000000001a25      0x45a bin/blib.a(pxe_call.o)
 .debug_abbrev  0x0000000000001e7f      0x368 bin/blib.a(pxe_file.o)
 .debug_abbrev  0x00000000000021e7      0x104 bin/blib.a(pxe_loader.o)
 .debug_abbrev  0x00000000000022eb      0x3e0 bin/blib.a(pxe_preboot.o)
 .debug_abbrev  0x00000000000026cb      0x395 bin/blib.a(pxe_tftp.o)
 .debug_abbrev  0x0000000000002a60      0x354 bin/blib.a(pxe_udp.o)
 .debug_abbrev  0x0000000000002db4      0x411 bin/blib.a(pxe_undi.o)
 .debug_abbrev  0x00000000000031c5      0x10f bin/blib.a(x86_string.o)
 .debug_abbrev  0x00000000000032d4      0x163 bin/blib.a(cpuid_cmd.o)
 .debug_abbrev  0x0000000000003437      0x177 bin/blib.a(ansiesc.o)
 .debug_abbrev  0x00000000000035ae      0x1c8 bin/blib.a(console.o)
 .debug_abbrev  0x0000000000003776      0x161 bin/blib.a(cpio.o)
 .debug_abbrev  0x00000000000038d7      0x20d bin/blib.a(device.o)
 .debug_abbrev  0x0000000000003ae4      0x3dd bin/blib.a(exec.o)
 .debug_abbrev  0x0000000000003ec1      0x181 bin/blib.a(getopt.o)
 .debug_abbrev  0x0000000000004042      0x316 bin/blib.a(image.o)
 .debug_abbrev  0x0000000000004358       0xfe bin/blib.a(init.o)
 .debug_abbrev  0x0000000000004456      0x2a1 bin/blib.a(interface.o)
 .debug_abbrev  0x00000000000046f7      0x237 bin/blib.a(iobuf.o)
 .debug_abbrev  0x000000000000492e      0x1c5 bin/blib.a(list.o)
 .debug_abbrev  0x0000000000004af3       0xa1 bin/blib.a(main.o)
 .debug_abbrev  0x0000000000004b94      0x341 bin/blib.a(malloc.o)
 .debug_abbrev  0x0000000000004ed5      0x146 bin/blib.a(memblock.o)
 .debug_abbrev  0x000000000000501b      0x192 bin/blib.a(misc.o)
 .debug_abbrev  0x00000000000051ad      0x28d bin/blib.a(open.o)
 .debug_abbrev  0x000000000000543a      0x35e bin/blib.a(parseopt.o)
 .debug_abbrev  0x0000000000005798      0x323 bin/blib.a(posix_io.o)
 .debug_abbrev  0x0000000000005abb      0x1cd bin/blib.a(process.o)
 .debug_abbrev  0x0000000000005c88       0xb9 bin/blib.a(refcnt.o)
 .debug_abbrev  0x0000000000005d41      0x5a6 bin/blib.a(settings.o)
 .debug_abbrev  0x00000000000062e7      0x1f2 bin/blib.a(string.o)
 .debug_abbrev  0x00000000000064d9       0xc2 bin/blib.a(timer.o)
 .debug_abbrev  0x000000000000659b      0x32a bin/blib.a(uri.o)
 .debug_abbrev  0x00000000000068c5      0x138 bin/blib.a(uuid.o)
 .debug_abbrev  0x00000000000069fd      0x2ff bin/blib.a(vsprintf.o)
 .debug_abbrev  0x0000000000006cfc      0x2e1 bin/blib.a(xfer.o)
 .debug_abbrev  0x0000000000006fdd      0x25f bin/blib.a(arp.o)
 .debug_abbrev  0x000000000000723c      0x2e1 bin/blib.a(ethernet.o)
 .debug_abbrev  0x000000000000751d      0x266 bin/blib.a(eth_slow.o)
 .debug_abbrev  0x0000000000007783      0x210 bin/blib.a(fakedhcp.o)
 .debug_abbrev  0x0000000000007993      0x45f bin/blib.a(ipv4.o)
 .debug_abbrev  0x0000000000007df2      0x354 bin/blib.a(neighbour.o)
 .debug_abbrev  0x0000000000008146      0x4a3 bin/blib.a(netdevice.o)
 .debug_abbrev  0x00000000000085e9      0x320 bin/blib.a(netdev_settings.o)
 .debug_abbrev  0x0000000000008909      0x169 bin/blib.a(nullnet.o)
 .debug_abbrev  0x0000000000008a72      0x154 bin/blib.a(rarp.o)
 .debug_abbrev  0x0000000000008bc6      0x1a8 bin/blib.a(retry.o)
 .debug_abbrev  0x0000000000008d6e      0x240 bin/blib.a(tcpip.o)
 .debug_abbrev  0x0000000000008fae      0x3f1 bin/blib.a(udp.o)
 .debug_abbrev  0x000000000000939f      0x15d bin/blib.a(http.o)
 .debug_abbrev  0x00000000000094fc      0x4b8 bin/blib.a(httpcore.o)
 .debug_abbrev  0x00000000000099b4      0x4d0 bin/blib.a(iscsi.o)
 .debug_abbrev  0x0000000000009e84      0x463 bin/blib.a(dhcp.o)
 .debug_abbrev  0x000000000000a2e7      0x46a bin/blib.a(dns.o)
 .debug_abbrev  0x000000000000a751      0x49c bin/blib.a(tftp.o)
 .debug_abbrev  0x000000000000abed      0x26e bin/blib.a(elf.o)
 .debug_abbrev  0x000000000000ae5b      0x158 bin/blib.a(embedded.o)
 .debug_abbrev  0x000000000000afb3      0x42a bin/blib.a(script.o)
 .debug_abbrev  0x000000000000b3dd      0x1d4 bin/blib.a(segment.o)
 .debug_abbrev  0x000000000000b5b1      0x3b8 bin/blib.a(pci.o)
 .debug_abbrev  0x000000000000b969      0x296 bin/blib.a(pci_settings.o)
 .debug_abbrev  0x000000000000bbff      0x381 bin/blib.a(ibft.o)
 .debug_abbrev  0x000000000000bf80      0x47d bin/blib.a(scsi.o)
 .debug_abbrev  0x000000000000c3fd      0x280 bin/blib.a(smbios_settings.o)
 .debug_abbrev  0x000000000000c67d      0x1a5 bin/blib.a(chap.o)
 .debug_abbrev  0x000000000000c822      0x2c2 bin/blib.a(md5.o)
 .debug_abbrev  0x000000000000cae4      0x14c bin/blib.a(strerror.o)
 .debug_abbrev  0x000000000000cc30      0x16a bin/blib.a(autoboot_cmd.o)
 .debug_abbrev  0x000000000000cd9a      0x186 bin/blib.a(config_cmd.o)
 .debug_abbrev  0x000000000000cf20      0x1ce bin/blib.a(dhcp_cmd.o)
 .debug_abbrev  0x000000000000d0ee      0x206 bin/blib.a(ifmgmt_cmd.o)
 .debug_abbrev  0x000000000000d2f4      0x2ec bin/blib.a(image_cmd.o)
 .debug_abbrev  0x000000000000d5e0      0x186 bin/blib.a(login_cmd.o)
 .debug_abbrev  0x000000000000d766      0x1b5 bin/blib.a(menu_cmd.o)
 .debug_abbrev  0x000000000000d91b      0x2af bin/blib.a(nvo_cmd.o)
 .debug_abbrev  0x000000000000dbca      0x145 bin/blib.a(reboot_cmd.o)
 .debug_abbrev  0x000000000000dd0f      0x143 bin/blib.a(route_cmd.o)
 .debug_abbrev  0x000000000000de52      0x24f bin/blib.a(sanboot_cmd.o)
 .debug_abbrev  0x000000000000e0a1      0x145 bin/blib.a(sync_cmd.o)
 .debug_abbrev  0x000000000000e1e6      0x1bd bin/blib.a(login_ui.o)
 .debug_abbrev  0x000000000000e3a3      0x337 bin/blib.a(menu_ui.o)
 .debug_abbrev  0x000000000000e6da      0x41e bin/blib.a(settings_ui.o)
 .debug_abbrev  0x000000000000eaf8      0x15a bin/blib.a(clear.o)
 .debug_abbrev  0x000000000000ec52      0x1b1 bin/blib.a(mucurses.o)
 .debug_abbrev  0x000000000000ee03      0x174 bin/blib.a(print.o)
 .debug_abbrev  0x000000000000ef77      0x190 bin/blib.a(winattrs.o)
 .debug_abbrev  0x000000000000f107      0x152 bin/blib.a(wininit.o)
 .debug_abbrev  0x000000000000f259      0x223 bin/blib.a(editbox.o)
 .debug_abbrev  0x000000000000f47c       0x8e bin/blib.a(keymap_us.o)
 .debug_abbrev  0x000000000000f50a      0x388 bin/blib.a(autoboot.o)
 .debug_abbrev  0x000000000000f892      0x156 bin/blib.a(dhcpmgmt.o)
 .debug_abbrev  0x000000000000f9e8      0x31f bin/blib.a(ifmgmt.o)
 .debug_abbrev  0x000000000000fd07      0x1cd bin/blib.a(imgmgmt.o)
 .debug_abbrev  0x000000000000fed4       0xb4 bin/blib.a(prompt.o)
 .debug_abbrev  0x000000000000ff88      0x385 bin/blib.a(pxemenu.o)
 .debug_abbrev  0x000000000001030d      0x14e bin/blib.a(route.o)
 .debug_abbrev  0x000000000001045b      0x120 bin/blib.a(sync.o)
 .debug_abbrev  0x000000000001057b       0x69 bin/blib.a(config_ethernet.o)
 .debug_abbrev  0x00000000000105e4       0x69 bin/blib.a(config_route.o)
 .debug_abbrev  0x000000000001064d       0x79 bin/blib.a(basemem_packet.o)
 .debug_abbrev  0x00000000000106c6       0xe9 bin/blib.a(pci_autoboot.o)
 .debug_abbrev  0x00000000000107af      0x1fa bin/blib.a(relocate.o)
 .debug_abbrev  0x00000000000109a9      0x181 bin/blib.a(timer2.o)
 .debug_abbrev  0x0000000000010b2a      0x274 bin/blib.a(librm_mgmt.o)
 .debug_abbrev  0x0000000000010d9e      0x2dc bin/blib.a(memmap.o)
 .debug_abbrev  0x000000000001107a      0x234 bin/blib.a(biosint.o)
 .debug_abbrev  0x00000000000112ae       0x71 bin/blib.a(bios_nap.o)
 .debug_abbrev  0x000000000001131f      0x1cf bin/blib.a(bios_reboot.o)
 .debug_abbrev  0x00000000000114ee      0x1cb bin/blib.a(bios_timer.o)
 .debug_abbrev  0x00000000000116b9      0x50c bin/blib.a(int13.o)
 .debug_abbrev  0x0000000000011bc5      0x21b bin/blib.a(memtop_umalloc.o)
 .debug_abbrev  0x0000000000011de0      0x179 bin/blib.a(pcibios.o)
 .debug_abbrev  0x0000000000011f59      0x1b0 bin/blib.a(cpuid.o)
 .debug_abbrev  0x0000000000012109       0xe0 bin/blib.a(x86_tcpip.o)
 .debug_abbrev  0x00000000000121e9      0x156 bin/blib.a(acpi.o)
 .debug_abbrev  0x000000000001233f      0x124 bin/blib.a(asprintf.o)
 .debug_abbrev  0x0000000000012463      0x10c bin/blib.a(base16.o)
 .debug_abbrev  0x000000000001256f      0x19e bin/blib.a(base64.o)
 .debug_abbrev  0x000000000001270d       0x8d bin/blib.a(basename.o)
 .debug_abbrev  0x000000000001279a       0xed bin/blib.a(bitmap.o)
 .debug_abbrev  0x0000000000012887      0x14d bin/blib.a(blockdev.o)
 .debug_abbrev  0x00000000000129d4       0x75 bin/blib.a(ctype.o)
 .debug_abbrev  0x0000000000012a49      0x11f bin/blib.a(cwuri.o)
 .debug_abbrev  0x0000000000012b68      0x2f0 bin/blib.a(downloader.o)
 .debug_abbrev  0x0000000000012e58      0x157 bin/blib.a(edd.o)
 .debug_abbrev  0x0000000000012faf       0x4b bin/blib.a(errno.o)
 .debug_abbrev  0x0000000000012ffa       0xcc bin/blib.a(getkey.o)
 .debug_abbrev  0x00000000000130c6      0x183 bin/blib.a(job.o)
 .debug_abbrev  0x0000000000013249      0x1aa bin/blib.a(linebuf.o)
 .debug_abbrev  0x00000000000133f3      0x176 bin/blib.a(menu.o)
 .debug_abbrev  0x0000000000013569      0x15f bin/blib.a(monojob.o)
 .debug_abbrev  0x00000000000136c8      0x1b5 bin/blib.a(params.o)
 .debug_abbrev  0x000000000001387d       0xab bin/blib.a(pending.o)
 .debug_abbrev  0x0000000000013928       0xe1 bin/blib.a(random.o)
 .debug_abbrev  0x0000000000013a09      0x377 bin/blib.a(resolv.o)
 .debug_abbrev  0x0000000000013d80      0x491 bin/blib.a(aoe.o)
 .debug_abbrev  0x0000000000014211      0x33e bin/blib.a(dhcppkt.o)
 .debug_abbrev  0x000000000001454f      0x225 bin/blib.a(fragment.o)
 .debug_abbrev  0x0000000000014774      0x17a bin/blib.a(icmpv4.o)
 .debug_abbrev  0x00000000000148ee      0x122 bin/blib.a(socket.o)
 .debug_abbrev  0x0000000000014a10      0x406 bin/blib.a(tcp.o)
 .debug_abbrev  0x0000000000014e16      0x372 bin/blib.a(ata.o)
 .debug_abbrev  0x0000000000015188      0x27c bin/blib.a(smbios.o)
 .debug_abbrev  0x0000000000015404      0x1fd bin/blib.a(editstring.o)
 .debug_abbrev  0x0000000000015601      0x279 bin/blib.a(readline.o)
 .debug_abbrev  0x000000000001587a      0x214 bin/blib.a(shell.o)
 .debug_abbrev  0x0000000000015a8e      0x1ca bin/blib.a(ansi_screen.o)
 .debug_abbrev  0x0000000000015c58      0x1a2 bin/blib.a(route_ipv4.o)
 .debug_abbrev  0x0000000000015dfa      0x2c1 bin/blib.a(hidemem.o)
 .debug_abbrev  0x00000000000160bb       0xeb bin/blib.a(bootsector.o)
 .debug_abbrev  0x00000000000161a6      0x152 bin/blib.a(bios_smbios.o)
 .debug_abbrev  0x00000000000162f8      0x178 bin/blib.a(ansicol.o)
 .debug_abbrev  0x0000000000016470      0x375 bin/blib.a(dhcpopts.o)
 .debug_abbrev  0x00000000000167e5      0x210 bin/blib.a(icmp.o)

.debug_line     0x0000000000000000    0x15672
 .debug_line    0x0000000000000000      0x124 bin/version.8086100f.mrom.o
 .debug_line    0x0000000000000124      0x640 bin/blib.a(intel.o)
 .debug_line    0x0000000000000764      0x110 bin/blib.a(nvs.o)
 .debug_line    0x0000000000000874       0x5f bin/blib.a(config.o)
 .debug_line    0x00000000000008d3      0x1c4 bin/blib.a(bios_console.o)
 .debug_line    0x0000000000000a97      0x410 bin/blib.a(bzimage.o)
 .debug_line    0x0000000000000ea7      0x1a2 bin/blib.a(elfboot.o)
 .debug_line    0x0000000000001049      0x23a bin/blib.a(initrd.o)
 .debug_line    0x0000000000001283      0x2f8 bin/blib.a(multiboot.o)
 .debug_line    0x000000000000157b      0x1d5 bin/blib.a(pxe_image.o)
 .debug_line    0x0000000000001750      0x2d1 bin/blib.a(pxe_call.o)
 .debug_line    0x0000000000001a21      0x2f9 bin/blib.a(pxe_file.o)
 .debug_line    0x0000000000001d1a      0x122 bin/blib.a(pxe_loader.o)
 .debug_line    0x0000000000001e3c      0x28f bin/blib.a(pxe_preboot.o)
 .debug_line    0x00000000000020cb      0x2f3 bin/blib.a(pxe_tftp.o)
 .debug_line    0x00000000000023be      0x279 bin/blib.a(pxe_udp.o)
 .debug_line    0x0000000000002637      0x62d bin/blib.a(pxe_undi.o)
 .debug_line    0x0000000000002c64      0x127 bin/blib.a(x86_string.o)
 .debug_line    0x0000000000002d8b      0x140 bin/blib.a(cpuid_cmd.o)
 .debug_line    0x0000000000002ecb      0x102 bin/blib.a(ansiesc.o)
 .debug_line    0x0000000000002fcd      0x13f bin/blib.a(console.o)
 .debug_line    0x000000000000310c       0xd0 bin/blib.a(cpio.o)
 .debug_line    0x00000000000031dc      0x139 bin/blib.a(device.o)
 .debug_line    0x0000000000003315      0x30f bin/blib.a(exec.o)
 .debug_line    0x0000000000003624      0x126 bin/blib.a(getopt.o)
 .debug_line    0x000000000000374a      0x32b bin/blib.a(image.o)
 .debug_line    0x0000000000003a75       0xfa bin/blib.a(init.o)
 .debug_line    0x0000000000003b6f      0x1e9 bin/blib.a(interface.o)
 .debug_line    0x0000000000003d58      0x238 bin/blib.a(iobuf.o)
 .debug_line    0x0000000000003f90      0x1e7 bin/blib.a(list.o)
 .debug_line    0x0000000000004177       0xbd bin/blib.a(main.o)
 .debug_line    0x0000000000004234      0x2cf bin/blib.a(malloc.o)
 .debug_line    0x0000000000004503      0x103 bin/blib.a(memblock.o)
 .debug_line    0x0000000000004606      0x14f bin/blib.a(misc.o)
 .debug_line    0x0000000000004755      0x1aa bin/blib.a(open.o)
 .debug_line    0x00000000000048ff      0x32e bin/blib.a(parseopt.o)
 .debug_line    0x0000000000004c2d      0x310 bin/blib.a(posix_io.o)
 .debug_line    0x0000000000004f3d      0x1a3 bin/blib.a(process.o)
 .debug_line    0x00000000000050e0       0xac bin/blib.a(refcnt.o)
 .debug_line    0x000000000000518c      0xafc bin/blib.a(settings.o)
 .debug_line    0x0000000000005c88      0x212 bin/blib.a(string.o)
 .debug_line    0x0000000000005e9a       0xc3 bin/blib.a(timer.o)
 .debug_line    0x0000000000005f5d      0x3b2 bin/blib.a(uri.o)
 .debug_line    0x000000000000630f       0xad bin/blib.a(uuid.o)
 .debug_line    0x00000000000063bc      0x25c bin/blib.a(vsprintf.o)
 .debug_line    0x0000000000006618      0x217 bin/blib.a(xfer.o)
 .debug_line    0x000000000000682f      0x218 bin/blib.a(arp.o)
 .debug_line    0x0000000000006a47      0x242 bin/blib.a(ethernet.o)
 .debug_line    0x0000000000006c89      0x18f bin/blib.a(eth_slow.o)
 .debug_line    0x0000000000006e18      0x1c7 bin/blib.a(fakedhcp.o)
 .debug_line    0x0000000000006fdf      0x50c bin/blib.a(ipv4.o)
 .debug_line    0x00000000000074eb      0x3bf bin/blib.a(neighbour.o)
 .debug_line    0x00000000000078aa      0x805 bin/blib.a(netdevice.o)
 .debug_line    0x00000000000080af      0x2ab bin/blib.a(netdev_settings.o)
 .debug_line    0x000000000000835a      0x135 bin/blib.a(nullnet.o)
 .debug_line    0x000000000000848f      0x10c bin/blib.a(rarp.o)
 .debug_line    0x000000000000859b      0x1b1 bin/blib.a(retry.o)
 .debug_line    0x000000000000874c      0x1f8 bin/blib.a(tcpip.o)
 .debug_line    0x0000000000008944      0x2f5 bin/blib.a(udp.o)
 .debug_line    0x0000000000008c39      0x12b bin/blib.a(http.o)
 .debug_line    0x0000000000008d64      0x82a bin/blib.a(httpcore.o)
 .debug_line    0x000000000000958e      0x953 bin/blib.a(iscsi.o)
 .debug_line    0x0000000000009ee1      0x70f bin/blib.a(dhcp.o)
 .debug_line    0x000000000000a5f0      0x53f bin/blib.a(dns.o)
 .debug_line    0x000000000000ab2f      0x63c bin/blib.a(tftp.o)
 .debug_line    0x000000000000b16b      0x171 bin/blib.a(elf.o)
 .debug_line    0x000000000000b2dc      0x103 bin/blib.a(embedded.o)
 .debug_line    0x000000000000b3df      0x2cb bin/blib.a(script.o)
 .debug_line    0x000000000000b6aa      0x144 bin/blib.a(segment.o)
 .debug_line    0x000000000000b7ee      0x328 bin/blib.a(pci.o)
 .debug_line    0x000000000000bb16      0x1bd bin/blib.a(pci_settings.o)
 .debug_line    0x000000000000bcd3      0x2c2 bin/blib.a(ibft.o)
 .debug_line    0x000000000000bf95      0x4e2 bin/blib.a(scsi.o)
 .debug_line    0x000000000000c477      0x1d7 bin/blib.a(smbios_settings.o)
 .debug_line    0x000000000000c64e      0x14e bin/blib.a(chap.o)
 .debug_line    0x000000000000c79c      0x1c0 bin/blib.a(md5.o)
 .debug_line    0x000000000000c95c       0x9b bin/blib.a(strerror.o)
 .debug_line    0x000000000000c9f7      0x156 bin/blib.a(autoboot_cmd.o)
 .debug_line    0x000000000000cb4d       0xf8 bin/blib.a(config_cmd.o)
 .debug_line    0x000000000000cc45      0x140 bin/blib.a(dhcp_cmd.o)
 .debug_line    0x000000000000cd85      0x1de bin/blib.a(ifmgmt_cmd.o)
 .debug_line    0x000000000000cf63      0x271 bin/blib.a(image_cmd.o)
 .debug_line    0x000000000000d1d4       0xe9 bin/blib.a(login_cmd.o)
 .debug_line    0x000000000000d2bd      0x1c7 bin/blib.a(menu_cmd.o)
 .debug_line    0x000000000000d484      0x1b6 bin/blib.a(nvo_cmd.o)
 .debug_line    0x000000000000d63a       0xf4 bin/blib.a(reboot_cmd.o)
 .debug_line    0x000000000000d72e      0x10a bin/blib.a(route_cmd.o)
 .debug_line    0x000000000000d838      0x1d6 bin/blib.a(sanboot_cmd.o)
 .debug_line    0x000000000000da0e      0x10a bin/blib.a(sync_cmd.o)
 .debug_line    0x000000000000db18      0x193 bin/blib.a(login_ui.o)
 .debug_line    0x000000000000dcab      0x2f8 bin/blib.a(menu_ui.o)
 .debug_line    0x000000000000dfa3      0x3f8 bin/blib.a(settings_ui.o)
 .debug_line    0x000000000000e39b      0x161 bin/blib.a(clear.o)
 .debug_line    0x000000000000e4fc      0x190 bin/blib.a(mucurses.o)
 .debug_line    0x000000000000e68c      0x11c bin/blib.a(print.o)
 .debug_line    0x000000000000e7a8      0x162 bin/blib.a(winattrs.o)
 .debug_line    0x000000000000e90a       0xf4 bin/blib.a(wininit.o)
 .debug_line    0x000000000000e9fe      0x18b bin/blib.a(editbox.o)
 .debug_line    0x000000000000eb89       0x97 bin/blib.a(keymap_us.o)
 .debug_line    0x000000000000ec20      0x379 bin/blib.a(autoboot.o)
 .debug_line    0x000000000000ef99      0x13f bin/blib.a(dhcpmgmt.o)
 .debug_line    0x000000000000f0d8      0x287 bin/blib.a(ifmgmt.o)
 .debug_line    0x000000000000f35f      0x1a6 bin/blib.a(imgmgmt.o)
 .debug_line    0x000000000000f505       0xa9 bin/blib.a(prompt.o)
 .debug_line    0x000000000000f5ae      0x31a bin/blib.a(pxemenu.o)
 .debug_line    0x000000000000f8c8      0x113 bin/blib.a(route.o)
 .debug_line    0x000000000000f9db      0x101 bin/blib.a(sync.o)
 .debug_line    0x000000000000fadc       0x6f bin/blib.a(config_ethernet.o)
 .debug_line    0x000000000000fb4b       0x6c bin/blib.a(config_route.o)
 .debug_line    0x000000000000fbb7       0x97 bin/blib.a(basemem_packet.o)
 .debug_line    0x000000000000fc4e      0x112 bin/blib.a(pci_autoboot.o)
 .debug_line    0x000000000000fd60      0x11e bin/blib.a(relocate.o)
 .debug_line    0x000000000000fe7e      0x103 bin/blib.a(timer2.o)
 .debug_line    0x000000000000ff81      0x1ef bin/blib.a(librm_mgmt.o)
 .debug_line    0x0000000000010170      0x1e9 bin/blib.a(memmap.o)
 .debug_line    0x0000000000010359      0x17c bin/blib.a(biosint.o)
 .debug_line    0x00000000000104d5       0xa0 bin/blib.a(bios_nap.o)
 .debug_line    0x0000000000010575      0x137 bin/blib.a(bios_reboot.o)
 .debug_line    0x00000000000106ac      0x138 bin/blib.a(bios_timer.o)
 .debug_line    0x00000000000107e4      0x8a0 bin/blib.a(int13.o)
 .debug_line    0x0000000000011084      0x1c6 bin/blib.a(memtop_umalloc.o)
 .debug_line    0x000000000001124a      0x142 bin/blib.a(pcibios.o)
 .debug_line    0x000000000001138c      0x115 bin/blib.a(cpuid.o)
 .debug_line    0x00000000000114a1       0xe7 bin/blib.a(x86_tcpip.o)
 .debug_line    0x0000000000011588       0xf5 bin/blib.a(acpi.o)
 .debug_line    0x000000000001167d       0xb2 bin/blib.a(asprintf.o)
 .debug_line    0x000000000001172f      0x119 bin/blib.a(base16.o)
 .debug_line    0x0000000000011848      0x146 bin/blib.a(base64.o)
 .debug_line    0x000000000001198e       0x9c bin/blib.a(basename.o)
 .debug_line    0x0000000000011a2a       0xf6 bin/blib.a(bitmap.o)
 .debug_line    0x0000000000011b20      0x13b bin/blib.a(blockdev.o)
 .debug_line    0x0000000000011c5b       0x70 bin/blib.a(ctype.o)
 .debug_line    0x0000000000011ccb       0xbe bin/blib.a(cwuri.o)
 .debug_line    0x0000000000011d89      0x247 bin/blib.a(downloader.o)
 .debug_line    0x0000000000011fd0       0xc1 bin/blib.a(edd.o)
 .debug_line    0x0000000000012091       0x45 bin/blib.a(errno.o)
 .debug_line    0x00000000000120d6      0x114 bin/blib.a(getkey.o)
 .debug_line    0x00000000000121ea       0xfc bin/blib.a(job.o)
 .debug_line    0x00000000000122e6      0x11b bin/blib.a(linebuf.o)
 .debug_line    0x0000000000012401      0x18a bin/blib.a(menu.o)
 .debug_line    0x000000000001258b      0x180 bin/blib.a(monojob.o)
 .debug_line    0x000000000001270b      0x17c bin/blib.a(params.o)
 .debug_line    0x0000000000012887       0xa5 bin/blib.a(pending.o)
 .debug_line    0x000000000001292c       0xbe bin/blib.a(random.o)
 .debug_line    0x00000000000129ea      0x257 bin/blib.a(resolv.o)
 .debug_line    0x0000000000012c41      0x5a7 bin/blib.a(aoe.o)
 .debug_line    0x00000000000131e8      0x24b bin/blib.a(dhcppkt.o)
 .debug_line    0x0000000000013433      0x1ec bin/blib.a(fragment.o)
 .debug_line    0x000000000001361f       0xe6 bin/blib.a(icmpv4.o)
 .debug_line    0x0000000000013705       0xda bin/blib.a(socket.o)
 .debug_line    0x00000000000137df      0x7d8 bin/blib.a(tcp.o)
 .debug_line    0x0000000000013fb7      0x31c bin/blib.a(ata.o)
 .debug_line    0x00000000000142d3      0x245 bin/blib.a(smbios.o)
 .debug_line    0x0000000000014518      0x19b bin/blib.a(editstring.o)
 .debug_line    0x00000000000146b3      0x1f6 bin/blib.a(readline.o)
 .debug_line    0x00000000000148a9      0x184 bin/blib.a(shell.o)
 .debug_line    0x0000000000014a2d      0x199 bin/blib.a(ansi_screen.o)
 .debug_line    0x0000000000014bc6      0x141 bin/blib.a(route_ipv4.o)
 .debug_line    0x0000000000014d07      0x20e bin/blib.a(hidemem.o)
 .debug_line    0x0000000000014f15       0xfb bin/blib.a(bootsector.o)
 .debug_line    0x0000000000015010      0x10c bin/blib.a(bios_smbios.o)
 .debug_line    0x000000000001511c      0x11a bin/blib.a(ansicol.o)
 .debug_line    0x0000000000015236      0x2cf bin/blib.a(dhcpopts.o)
 .debug_line    0x0000000000015505      0x16d bin/blib.a(icmp.o)

.debug_str      0x0000000000000000    0x1048b
 .debug_str     0x0000000000000000      0x426 bin/version.8086100f.mrom.o
                                        0x617 (size before relaxing)
 .debug_str     0x0000000000000426      0x6db bin/blib.a(intel.o)
                                        0xc6f (size before relaxing)
 .debug_str     0x0000000000000b01       0x87 bin/blib.a(nvs.o)
                                        0x1b8 (size before relaxing)
 .debug_str     0x0000000000000b88      0x4eb bin/blib.a(config.o)
                                        0x531 (size before relaxing)
 .debug_str     0x0000000000001073      0x242 bin/blib.a(bios_console.o)
                                        0x3d5 (size before relaxing)
 .debug_str     0x00000000000012b5      0x4c9 bin/blib.a(bzimage.o)
                                        0xb3c (size before relaxing)
 .debug_str     0x000000000000177e      0x145 bin/blib.a(elfboot.o)
                                        0x745 (size before relaxing)
 .debug_str     0x00000000000018c3      0x129 bin/blib.a(initrd.o)
                                        0x40a (size before relaxing)
 .debug_str     0x00000000000019ec      0x40a bin/blib.a(multiboot.o)
                                        0xb2c (size before relaxing)
 .debug_str     0x0000000000001df6       0xd4 bin/blib.a(pxe_image.o)
                                        0x71b (size before relaxing)
 .debug_str     0x0000000000001eca      0xd9a bin/blib.a(pxe_call.o)
                                       0x13ac (size before relaxing)
 .debug_str     0x0000000000002c64      0x199 bin/blib.a(pxe_file.o)
                                       0x12fa (size before relaxing)
 .debug_str     0x0000000000002dfd       0x86 bin/blib.a(pxe_loader.o)
                                        0x456 (size before relaxing)
 .debug_str     0x0000000000002e83      0x285 bin/blib.a(pxe_preboot.o)
                                       0x144d (size before relaxing)
 .debug_str     0x0000000000003108      0x1b5 bin/blib.a(pxe_tftp.o)
                                       0x101e (size before relaxing)
 .debug_str     0x00000000000032bd      0x164 bin/blib.a(pxe_udp.o)
                                        0xff5 (size before relaxing)
 .debug_str     0x0000000000003421      0x435 bin/blib.a(pxe_undi.o)
                                       0x1678 (size before relaxing)
 .debug_str     0x0000000000003856       0xdd bin/blib.a(x86_string.o)
                                        0x1c9 (size before relaxing)
 .debug_str     0x0000000000003933      0x183 bin/blib.a(cpuid_cmd.o)
                                        0x3e5 (size before relaxing)
 .debug_str     0x0000000000003ab6       0x80 bin/blib.a(ansiesc.o)
                                        0x1bd (size before relaxing)
 .debug_str     0x0000000000003b36       0x88 bin/blib.a(console.o)
                                        0x237 (size before relaxing)
 .debug_str     0x0000000000003bbe       0x5e bin/blib.a(cpio.o)
                                        0x173 (size before relaxing)
 .debug_str     0x0000000000003c1c       0xb6 bin/blib.a(device.o)
                                        0x329 (size before relaxing)
 .debug_str     0x0000000000003cd2      0x2bf bin/blib.a(exec.o)
                                        0x629 (size before relaxing)
 .debug_str     0x0000000000003f91       0xd4 bin/blib.a(getopt.o)
                                        0x231 (size before relaxing)
 .debug_str     0x0000000000004065      0x184 bin/blib.a(image.o)
                                        0x426 (size before relaxing)
 .debug_str     0x00000000000041e9       0x4f bin/blib.a(init.o)
                                        0x1a7 (size before relaxing)
 .debug_str     0x0000000000004238      0x14a bin/blib.a(interface.o)
                                        0x2c1 (size before relaxing)
 .debug_str     0x0000000000004382      0x10d bin/blib.a(iobuf.o)
                                        0x2f4 (size before relaxing)
 .debug_str     0x000000000000448f      0x21d bin/blib.a(list.o)
                                        0x350 (size before relaxing)
 .debug_str     0x00000000000046ac       0x5d bin/blib.a(main.o)
                                        0x185 (size before relaxing)
 .debug_str     0x0000000000004709      0x201 bin/blib.a(malloc.o)
                                        0x4a7 (size before relaxing)
 .debug_str     0x000000000000490a       0x93 bin/blib.a(memblock.o)
                                        0x1d3 (size before relaxing)
 .debug_str     0x000000000000499d       0x89 bin/blib.a(misc.o)
                                        0x1a2 (size before relaxing)
 .debug_str     0x0000000000004a26      0x133 bin/blib.a(open.o)
                                        0x3a2 (size before relaxing)
 .debug_str     0x0000000000004b59      0x194 bin/blib.a(parseopt.o)
                                        0x78c (size before relaxing)
 .debug_str     0x0000000000004ced      0x12a bin/blib.a(posix_io.o)
                                        0x4ad (size before relaxing)
 .debug_str     0x0000000000004e17       0xd9 bin/blib.a(process.o)
                                        0x230 (size before relaxing)
 .debug_str     0x0000000000004ef0       0x7f bin/blib.a(refcnt.o)
                                        0x14e (size before relaxing)
 .debug_str     0x0000000000004f6f      0xb12 bin/blib.a(settings.o)
                                       0x1297 (size before relaxing)
 .debug_str     0x0000000000005a81       0xc0 bin/blib.a(string.o)
                                        0x1cf (size before relaxing)
 .debug_str     0x0000000000005b41       0x6c bin/blib.a(timer.o)
                                        0x135 (size before relaxing)
 .debug_str     0x0000000000005bad      0x23f bin/blib.a(uri.o)
                                        0x4ef (size before relaxing)
 .debug_str     0x0000000000005dec       0x3e bin/blib.a(uuid.o)
                                        0x153 (size before relaxing)
 .debug_str     0x0000000000005e2a      0x11d bin/blib.a(vsprintf.o)
                                        0x282 (size before relaxing)
 .debug_str     0x0000000000005f47      0x10c bin/blib.a(xfer.o)
                                        0x3e5 (size before relaxing)
 .debug_str     0x0000000000006053       0xfa bin/blib.a(arp.o)
                                        0x696 (size before relaxing)
 .debug_str     0x000000000000614d      0x17b bin/blib.a(ethernet.o)
                                        0x6cb (size before relaxing)
 .debug_str     0x00000000000062c8      0x1cc bin/blib.a(eth_slow.o)
                                        0x74e (size before relaxing)
 .debug_str     0x0000000000006494      0x118 bin/blib.a(fakedhcp.o)
                                        0x681 (size before relaxing)
 .debug_str     0x00000000000065ac      0x492 bin/blib.a(ipv4.o)
                                        0xd66 (size before relaxing)
 .debug_str     0x0000000000006a3e      0x1c5 bin/blib.a(neighbour.o)
                                        0x7e6 (size before relaxing)
 .debug_str     0x0000000000006c03      0x470 bin/blib.a(netdevice.o)
                                        0xbd6 (size before relaxing)
 .debug_str     0x0000000000007073      0x23a bin/blib.a(netdev_settings.o)
                                        0x815 (size before relaxing)
 .debug_str     0x00000000000072ad       0x90 bin/blib.a(nullnet.o)
                                        0x523 (size before relaxing)
 .debug_str     0x000000000000733d       0x60 bin/blib.a(rarp.o)
                                        0x539 (size before relaxing)
 .debug_str     0x000000000000739d       0xcd bin/blib.a(retry.o)
                                        0x28b (size before relaxing)
 .debug_str     0x000000000000746a      0x10c bin/blib.a(tcpip.o)
                                        0x7ab (size before relaxing)
 .debug_str     0x0000000000007576      0x149 bin/blib.a(udp.o)
                                        0x853 (size before relaxing)
 .debug_str     0x00000000000076bf       0x86 bin/blib.a(http.o)
                                        0x55f (size before relaxing)
 .debug_str     0x0000000000007745      0x72f bin/blib.a(httpcore.o)
                                        0xdf0 (size before relaxing)
 .debug_str     0x0000000000007e74      0xbd7 bin/blib.a(iscsi.o)
                                       0x15c5 (size before relaxing)
 .debug_str     0x0000000000008a4b      0x70f bin/blib.a(dhcp.o)
                                        0xfa0 (size before relaxing)
 .debug_str     0x000000000000915a      0x3ee bin/blib.a(dns.o)
                                        0xb9c (size before relaxing)
 .debug_str     0x0000000000009548      0x42a bin/blib.a(tftp.o)
                                        0xc86 (size before relaxing)
 .debug_str     0x0000000000009972       0xbf bin/blib.a(elf.o)
                                        0x40f (size before relaxing)
 .debug_str     0x0000000000009a31       0xad bin/blib.a(embedded.o)
                                        0x26c (size before relaxing)
 .debug_str     0x0000000000009ade      0x1df bin/blib.a(script.o)
                                        0x69f (size before relaxing)
 .debug_str     0x0000000000009cbd       0x78 bin/blib.a(segment.o)
                                        0x231 (size before relaxing)
 .debug_str     0x0000000000009d35      0x1bd bin/blib.a(pci.o)
                                        0x427 (size before relaxing)
 .debug_str     0x0000000000009ef2       0xff bin/blib.a(pci_settings.o)
                                        0x46b (size before relaxing)
 .debug_str     0x0000000000009ff1      0x2fd bin/blib.a(ibft.o)
                                       0x1060 (size before relaxing)
 .debug_str     0x000000000000a2ee      0x460 bin/blib.a(scsi.o)
                                        0x999 (size before relaxing)
 .debug_str     0x000000000000a74e      0x1a4 bin/blib.a(smbios_settings.o)
                                        0x4db (size before relaxing)
 .debug_str     0x000000000000a8f2       0x8a bin/blib.a(chap.o)
                                        0x244 (size before relaxing)
 .debug_str     0x000000000000a97c      0x1ac bin/blib.a(md5.o)
                                        0x369 (size before relaxing)
 .debug_str     0x000000000000ab28       0x91 bin/blib.a(strerror.o)
                                        0x17b (size before relaxing)
 .debug_str     0x000000000000abb9       0xe8 bin/blib.a(autoboot_cmd.o)
                                        0x6a0 (size before relaxing)
 .debug_str     0x000000000000aca1       0x96 bin/blib.a(config_cmd.o)
                                        0x345 (size before relaxing)
 .debug_str     0x000000000000ad37       0x96 bin/blib.a(dhcp_cmd.o)
                                        0x5e7 (size before relaxing)
 .debug_str     0x000000000000adcd      0x18d bin/blib.a(ifmgmt_cmd.o)
                                        0x736 (size before relaxing)
 .debug_str     0x000000000000af5a      0x233 bin/blib.a(image_cmd.o)
                                        0x61d (size before relaxing)
 .debug_str     0x000000000000b18d       0x8f bin/blib.a(login_cmd.o)
                                        0x32c (size before relaxing)
 .debug_str     0x000000000000b21c      0x1a0 bin/blib.a(menu_cmd.o)
                                        0x7d0 (size before relaxing)
 .debug_str     0x000000000000b3bc      0x172 bin/blib.a(nvo_cmd.o)
                                        0x4b5 (size before relaxing)
 .debug_str     0x000000000000b52e       0x9b bin/blib.a(reboot_cmd.o)
                                        0x396 (size before relaxing)
 .debug_str     0x000000000000b5c9       0x90 bin/blib.a(route_cmd.o)
                                        0x33d (size before relaxing)
 .debug_str     0x000000000000b659      0x19c bin/blib.a(sanboot_cmd.o)
                                        0x57f (size before relaxing)
 .debug_str     0x000000000000b7f5       0x88 bin/blib.a(sync_cmd.o)
                                        0x387 (size before relaxing)
 .debug_str     0x000000000000b87d      0x154 bin/blib.a(login_ui.o)
                                        0x43a (size before relaxing)
 .debug_str     0x000000000000b9d1       0xdd bin/blib.a(menu_ui.o)
                                        0x3f3 (size before relaxing)
 .debug_str     0x000000000000baae      0x184 bin/blib.a(settings_ui.o)
                                        0x5db (size before relaxing)
 .debug_str     0x000000000000bc32       0xb4 bin/blib.a(clear.o)
                                        0x24f (size before relaxing)
 .debug_str     0x000000000000bce6       0xbe bin/blib.a(mucurses.o)
                                        0x26c (size before relaxing)
 .debug_str     0x000000000000bda4       0xaa bin/blib.a(print.o)
                                        0x282 (size before relaxing)
 .debug_str     0x000000000000be4e       0xc2 bin/blib.a(winattrs.o)
                                        0x27a (size before relaxing)
 .debug_str     0x000000000000bf10       0x72 bin/blib.a(wininit.o)
                                        0x23d (size before relaxing)
 .debug_str     0x000000000000bf82       0xb6 bin/blib.a(editbox.o)
                                        0x317 (size before relaxing)
 .debug_str     0x000000000000c038       0x6a bin/blib.a(keymap_us.o)
                                        0x14e (size before relaxing)
 .debug_str     0x000000000000c0a2      0x230 bin/blib.a(autoboot.o)
                                        0xa0f (size before relaxing)
 .debug_str     0x000000000000c2d2       0x5e bin/blib.a(dhcpmgmt.o)
                                        0x526 (size before relaxing)
 .debug_str     0x000000000000c330      0x127 bin/blib.a(ifmgmt.o)
                                        0x6a6 (size before relaxing)
 .debug_str     0x000000000000c457       0xf9 bin/blib.a(imgmgmt.o)
                                        0x341 (size before relaxing)
 .debug_str     0x000000000000c550       0x62 bin/blib.a(prompt.o)
                                        0x15e (size before relaxing)
 .debug_str     0x000000000000c5b2      0x16d bin/blib.a(pxemenu.o)
                                        0x90d (size before relaxing)
 .debug_str     0x000000000000c71f       0x52 bin/blib.a(route.o)
                                        0x4f2 (size before relaxing)
 .debug_str     0x000000000000c771       0x9d bin/blib.a(sync.o)
                                        0x22a (size before relaxing)
 .debug_str     0x000000000000c80e       0x74 bin/blib.a(config_ethernet.o)
                                         0xba (size before relaxing)
 .debug_str     0x000000000000c882       0x79 bin/blib.a(config_route.o)
                                         0xbf (size before relaxing)
 .debug_str     0x000000000000c8fb       0x81 bin/blib.a(basemem_packet.o)
                                        0x170 (size before relaxing)
 .debug_str     0x000000000000c97c       0xba bin/blib.a(pci_autoboot.o)
                                        0x262 (size before relaxing)
 .debug_str     0x000000000000ca36       0xa3 bin/blib.a(relocate.o)
                                        0x285 (size before relaxing)
 .debug_str     0x000000000000cad9       0x8f bin/blib.a(timer2.o)
                                        0x191 (size before relaxing)
 .debug_str     0x000000000000cb68      0x15d bin/blib.a(librm_mgmt.o)
                                        0x40a (size before relaxing)
 .debug_str     0x000000000000ccc5      0x16e bin/blib.a(memmap.o)
                                        0x3e3 (size before relaxing)
 .debug_str     0x000000000000ce33       0xaa bin/blib.a(biosint.o)
                                        0x312 (size before relaxing)
 .debug_str     0x000000000000cedd       0x82 bin/blib.a(bios_nap.o)
                                        0x14b (size before relaxing)
 .debug_str     0x000000000000cf5f       0x81 bin/blib.a(bios_reboot.o)
                                        0x26a (size before relaxing)
 .debug_str     0x000000000000cfe0       0x9a bin/blib.a(bios_timer.o)
                                        0x299 (size before relaxing)
 .debug_str     0x000000000000d07a      0xa8d bin/blib.a(int13.o)
                                       0x1240 (size before relaxing)
 .debug_str     0x000000000000db07       0xd0 bin/blib.a(memtop_umalloc.o)
                                        0x303 (size before relaxing)
 .debug_str     0x000000000000dbd7       0xa4 bin/blib.a(pcibios.o)
                                        0x2cf (size before relaxing)
 .debug_str     0x000000000000dc7b       0xaf bin/blib.a(cpuid.o)
                                        0x20c (size before relaxing)
 .debug_str     0x000000000000dd2a       0xdc bin/blib.a(x86_tcpip.o)
                                        0x20b (size before relaxing)
 .debug_str     0x000000000000de06       0x61 bin/blib.a(acpi.o)
                                        0x260 (size before relaxing)
 .debug_str     0x000000000000de67       0x6e bin/blib.a(asprintf.o)
                                        0x163 (size before relaxing)
 .debug_str     0x000000000000ded5       0xa5 bin/blib.a(base16.o)
                                        0x1ab (size before relaxing)
 .debug_str     0x000000000000df7a       0xad bin/blib.a(base64.o)
                                        0x1f1 (size before relaxing)
 .debug_str     0x000000000000e027       0x67 bin/blib.a(basename.o)
                                        0x13c (size before relaxing)
 .debug_str     0x000000000000e08e       0xb0 bin/blib.a(bitmap.o)
                                        0x1b6 (size before relaxing)
 .debug_str     0x000000000000e13e       0x7a bin/blib.a(blockdev.o)
                                        0x25d (size before relaxing)
 .debug_str     0x000000000000e1b8       0x3f bin/blib.a(ctype.o)
                                         0x85 (size before relaxing)
 .debug_str     0x000000000000e1f7       0x59 bin/blib.a(cwuri.o)
                                        0x1cb (size before relaxing)
 .debug_str     0x000000000000e250      0x15f bin/blib.a(downloader.o)
                                        0x571 (size before relaxing)
 .debug_str     0x000000000000e3af       0x4b bin/blib.a(edd.o)
                                        0x250 (size before relaxing)
 .debug_str     0x000000000000e3fa       0x37 bin/blib.a(errno.o)
                                         0x83 (size before relaxing)
 .debug_str     0x000000000000e431       0x67 bin/blib.a(getkey.o)
                                        0x18f (size before relaxing)
 .debug_str     0x000000000000e498       0x4b bin/blib.a(job.o)
                                        0x1f5 (size before relaxing)
 .debug_str     0x000000000000e4e3       0x8c bin/blib.a(linebuf.o)
                                        0x1c4 (size before relaxing)
 .debug_str     0x000000000000e56f       0x9f bin/blib.a(menu.o)
                                        0x221 (size before relaxing)
 .debug_str     0x000000000000e60e       0xee bin/blib.a(monojob.o)
                                        0x2f4 (size before relaxing)
 .debug_str     0x000000000000e6fc       0xb5 bin/blib.a(params.o)
                                        0x243 (size before relaxing)
 .debug_str     0x000000000000e7b1       0x85 bin/blib.a(pending.o)
                                        0x171 (size before relaxing)
 .debug_str     0x000000000000e836       0x4b bin/blib.a(random.o)
                                        0x11c (size before relaxing)
 .debug_str     0x000000000000e881      0x199 bin/blib.a(resolv.o)
                                        0x4b4 (size before relaxing)
 .debug_str     0x000000000000ea1a      0x402 bin/blib.a(aoe.o)
                                        0xccb (size before relaxing)
 .debug_str     0x000000000000ee1c      0x149 bin/blib.a(dhcppkt.o)
                                        0x722 (size before relaxing)
 .debug_str     0x000000000000ef65       0xbb bin/blib.a(fragment.o)
                                        0x44d (size before relaxing)
 .debug_str     0x000000000000f020       0xa6 bin/blib.a(icmpv4.o)
                                        0x2c1 (size before relaxing)
 .debug_str     0x000000000000f0c6       0x56 bin/blib.a(socket.o)
                                        0x1b2 (size before relaxing)
 .debug_str     0x000000000000f11c      0x4f3 bin/blib.a(tcp.o)
                                        0xdd7 (size before relaxing)
 .debug_str     0x000000000000f60f      0x2d1 bin/blib.a(ata.o)
                                        0x6d7 (size before relaxing)
 .debug_str     0x000000000000f8e0      0x180 bin/blib.a(smbios.o)
                                        0x41d (size before relaxing)
 .debug_str     0x000000000000fa60      0x105 bin/blib.a(editstring.o)
                                        0x2a4 (size before relaxing)
 .debug_str     0x000000000000fb65      0x118 bin/blib.a(readline.o)
                                        0x2e7 (size before relaxing)
 .debug_str     0x000000000000fc7d       0xb7 bin/blib.a(shell.o)
                                        0x415 (size before relaxing)
 .debug_str     0x000000000000fd34      0x12b bin/blib.a(ansi_screen.o)
                                        0x2f4 (size before relaxing)
 .debug_str     0x000000000000fe5f       0x7c bin/blib.a(route_ipv4.o)
                                        0x5b4 (size before relaxing)
 .debug_str     0x000000000000fedb      0x168 bin/blib.a(hidemem.o)
                                        0x4c4 (size before relaxing)
 .debug_str     0x0000000000010043       0x9c bin/blib.a(bootsector.o)
                                        0x1e1 (size before relaxing)
 .debug_str     0x00000000000100df       0x92 bin/blib.a(bios_smbios.o)
                                        0x26a (size before relaxing)
 .debug_str     0x0000000000010171       0xd3 bin/blib.a(ansicol.o)
                                        0x2b1 (size before relaxing)
 .debug_str     0x0000000000010244      0x181 bin/blib.a(dhcpopts.o)
                                        0x71b (size before relaxing)
 .debug_str     0x00000000000103c5       0xc6 bin/blib.a(icmp.o)
                                        0x320 (size before relaxing)

.debug_frame    0x0000000000000000     0xac50
 .debug_frame   0x0000000000000000      0x2a4 bin/blib.a(intel.o)
 .debug_frame   0x00000000000002a4       0xd4 bin/blib.a(nvs.o)
 .debug_frame   0x0000000000000378       0xc8 bin/blib.a(bios_console.o)
 .debug_frame   0x0000000000000440       0xdc bin/blib.a(bzimage.o)
 .debug_frame   0x000000000000051c       0x60 bin/blib.a(elfboot.o)
 .debug_frame   0x000000000000057c       0x84 bin/blib.a(initrd.o)
 .debug_frame   0x0000000000000600      0x110 bin/blib.a(multiboot.o)
 .debug_frame   0x0000000000000710       0x50 bin/blib.a(pxe_image.o)
 .debug_frame   0x0000000000000760      0x150 bin/blib.a(pxe_call.o)
 .debug_frame   0x00000000000008b0      0x150 bin/blib.a(pxe_file.o)
 .debug_frame   0x0000000000000a00       0x30 bin/blib.a(pxe_loader.o)
 .debug_frame   0x0000000000000a30       0xd4 bin/blib.a(pxe_preboot.o)
 .debug_frame   0x0000000000000b04      0x1c0 bin/blib.a(pxe_tftp.o)
 .debug_frame   0x0000000000000cc4       0xe8 bin/blib.a(pxe_udp.o)
 .debug_frame   0x0000000000000dac      0x2e0 bin/blib.a(pxe_undi.o)
 .debug_frame   0x000000000000108c       0xd0 bin/blib.a(x86_string.o)
 .debug_frame   0x000000000000115c       0x4c bin/blib.a(cpuid_cmd.o)
 .debug_frame   0x00000000000011a8       0x38 bin/blib.a(ansiesc.o)
 .debug_frame   0x00000000000011e0       0xa0 bin/blib.a(console.o)
 .debug_frame   0x0000000000001280       0x48 bin/blib.a(cpio.o)
 .debug_frame   0x00000000000012c8       0x7c bin/blib.a(device.o)
 .debug_frame   0x0000000000001344      0x260 bin/blib.a(exec.o)
 .debug_frame   0x00000000000015a4       0xb0 bin/blib.a(getopt.o)
 .debug_frame   0x0000000000001654      0x210 bin/blib.a(image.o)
 .debug_frame   0x0000000000001864       0x70 bin/blib.a(init.o)
 .debug_frame   0x00000000000018d4      0x180 bin/blib.a(interface.o)
 .debug_frame   0x0000000000001a54       0xd0 bin/blib.a(iobuf.o)
 .debug_frame   0x0000000000001b24      0x118 bin/blib.a(list.o)
 .debug_frame   0x0000000000001c3c       0x38 bin/blib.a(main.o)
 .debug_frame   0x0000000000001c74      0x154 bin/blib.a(malloc.o)
 .debug_frame   0x0000000000001dc8       0x50 bin/blib.a(memblock.o)
 .debug_frame   0x0000000000001e18       0x9c bin/blib.a(misc.o)
 .debug_frame   0x0000000000001eb4      0x10c bin/blib.a(open.o)
 .debug_frame   0x0000000000001fc0      0x308 bin/blib.a(parseopt.o)
 .debug_frame   0x00000000000022c8      0x16c bin/blib.a(posix_io.o)
 .debug_frame   0x0000000000002434       0xac bin/blib.a(process.o)
 .debug_frame   0x00000000000024e0       0x44 bin/blib.a(refcnt.o)
 .debug_frame   0x0000000000002524      0xc90 bin/blib.a(settings.o)
 .debug_frame   0x00000000000031b4      0x1ac bin/blib.a(string.o)
 .debug_frame   0x0000000000003360       0x4c bin/blib.a(timer.o)
 .debug_frame   0x00000000000033ac      0x26c bin/blib.a(uri.o)
 .debug_frame   0x0000000000003618       0x6c bin/blib.a(uuid.o)
 .debug_frame   0x0000000000003684      0x16c bin/blib.a(vsprintf.o)
 .debug_frame   0x00000000000037f0      0x1c4 bin/blib.a(xfer.o)
 .debug_frame   0x00000000000039b4       0xc4 bin/blib.a(arp.o)
 .debug_frame   0x0000000000003a78      0x104 bin/blib.a(ethernet.o)
 .debug_frame   0x0000000000003b7c       0x68 bin/blib.a(eth_slow.o)
 .debug_frame   0x0000000000003be4      0x108 bin/blib.a(fakedhcp.o)
 .debug_frame   0x0000000000003cec      0x270 bin/blib.a(ipv4.o)
 .debug_frame   0x0000000000003f5c      0x218 bin/blib.a(neighbour.o)
 .debug_frame   0x0000000000004174      0x590 bin/blib.a(netdevice.o)
 .debug_frame   0x0000000000004704      0x1b8 bin/blib.a(netdev_settings.o)
 .debug_frame   0x00000000000048bc       0x64 bin/blib.a(nullnet.o)
 .debug_frame   0x0000000000004920       0x34 bin/blib.a(rarp.o)
 .debug_frame   0x0000000000004954       0xc4 bin/blib.a(retry.o)
 .debug_frame   0x0000000000004a18      0x13c bin/blib.a(tcpip.o)
 .debug_frame   0x0000000000004b54      0x184 bin/blib.a(udp.o)
 .debug_frame   0x0000000000004cd8       0x30 bin/blib.a(http.o)
 .debug_frame   0x0000000000004d08      0x540 bin/blib.a(httpcore.o)
 .debug_frame   0x0000000000005248      0x558 bin/blib.a(iscsi.o)
 .debug_frame   0x00000000000057a0      0x4c8 bin/blib.a(dhcp.o)
 .debug_frame   0x0000000000005c68      0x2e4 bin/blib.a(dns.o)
 .debug_frame   0x0000000000005f4c      0x3ac bin/blib.a(tftp.o)
 .debug_frame   0x00000000000062f8       0x50 bin/blib.a(elf.o)
 .debug_frame   0x0000000000006348       0x24 bin/blib.a(embedded.o)
 .debug_frame   0x000000000000636c      0x18c bin/blib.a(script.o)
 .debug_frame   0x00000000000064f8       0x50 bin/blib.a(segment.o)
 .debug_frame   0x0000000000006548      0x19c bin/blib.a(pci.o)
 .debug_frame   0x00000000000066e4       0x70 bin/blib.a(pci_settings.o)
 .debug_frame   0x0000000000006754       0xfc bin/blib.a(ibft.o)
 .debug_frame   0x0000000000006850      0x384 bin/blib.a(scsi.o)
 .debug_frame   0x0000000000006bd4       0x68 bin/blib.a(smbios_settings.o)
 .debug_frame   0x0000000000006c3c       0x80 bin/blib.a(chap.o)
 .debug_frame   0x0000000000006cbc       0xcc bin/blib.a(md5.o)
 .debug_frame   0x0000000000006d88       0x48 bin/blib.a(strerror.o)
 .debug_frame   0x0000000000006dd0       0x34 bin/blib.a(autoboot_cmd.o)
 .debug_frame   0x0000000000006e04       0x60 bin/blib.a(config_cmd.o)
 .debug_frame   0x0000000000006e64       0x58 bin/blib.a(dhcp_cmd.o)
 .debug_frame   0x0000000000006ebc       0xdc bin/blib.a(ifmgmt_cmd.o)
 .debug_frame   0x0000000000006f98      0x18c bin/blib.a(image_cmd.o)
 .debug_frame   0x0000000000007124       0x50 bin/blib.a(login_cmd.o)
 .debug_frame   0x0000000000007174       0xf4 bin/blib.a(menu_cmd.o)
 .debug_frame   0x0000000000007268      0x1e4 bin/blib.a(nvo_cmd.o)
 .debug_frame   0x000000000000744c       0x40 bin/blib.a(reboot_cmd.o)
 .debug_frame   0x000000000000748c       0x38 bin/blib.a(route_cmd.o)
 .debug_frame   0x00000000000074c4       0xb4 bin/blib.a(sanboot_cmd.o)
 .debug_frame   0x0000000000007578       0x50 bin/blib.a(sync_cmd.o)
 .debug_frame   0x00000000000075c8       0xdc bin/blib.a(login_ui.o)
 .debug_frame   0x00000000000076a4       0xac bin/blib.a(menu_ui.o)
 .debug_frame   0x0000000000007750      0x2a4 bin/blib.a(settings_ui.o)
 .debug_frame   0x00000000000079f4       0xe0 bin/blib.a(clear.o)
 .debug_frame   0x0000000000007ad4      0x110 bin/blib.a(mucurses.o)
 .debug_frame   0x0000000000007be4       0x78 bin/blib.a(print.o)
 .debug_frame   0x0000000000007c5c       0xbc bin/blib.a(winattrs.o)
 .debug_frame   0x0000000000007d18       0x48 bin/blib.a(wininit.o)
 .debug_frame   0x0000000000007d60       0x80 bin/blib.a(editbox.o)
 .debug_frame   0x0000000000007de0      0x25c bin/blib.a(autoboot.o)
 .debug_frame   0x000000000000803c       0x54 bin/blib.a(dhcpmgmt.o)
 .debug_frame   0x0000000000008090      0x254 bin/blib.a(ifmgmt.o)
 .debug_frame   0x00000000000082e4      0x124 bin/blib.a(imgmgmt.o)
 .debug_frame   0x0000000000008408       0x58 bin/blib.a(prompt.o)
 .debug_frame   0x0000000000008460      0x174 bin/blib.a(pxemenu.o)
 .debug_frame   0x00000000000085d4       0x38 bin/blib.a(route.o)
 .debug_frame   0x000000000000860c       0x40 bin/blib.a(sync.o)
 .debug_frame   0x000000000000864c       0x24 bin/blib.a(pci_autoboot.o)
 .debug_frame   0x0000000000008670       0x50 bin/blib.a(relocate.o)
 .debug_frame   0x00000000000086c0       0x30 bin/blib.a(timer2.o)
 .debug_frame   0x00000000000086f0       0xac bin/blib.a(librm_mgmt.o)
 .debug_frame   0x000000000000879c       0x88 bin/blib.a(memmap.o)
 .debug_frame   0x0000000000008824       0x5c bin/blib.a(biosint.o)
 .debug_frame   0x0000000000008880       0x24 bin/blib.a(bios_nap.o)
 .debug_frame   0x00000000000088a4       0x24 bin/blib.a(bios_reboot.o)
 .debug_frame   0x00000000000088c8       0x2c bin/blib.a(bios_timer.o)
 .debug_frame   0x00000000000088f4      0x3b0 bin/blib.a(int13.o)
 .debug_frame   0x0000000000008ca4       0x50 bin/blib.a(memtop_umalloc.o)
 .debug_frame   0x0000000000008cf4       0x98 bin/blib.a(pcibios.o)
 .debug_frame   0x0000000000008d8c       0x50 bin/blib.a(cpuid.o)
 .debug_frame   0x0000000000008ddc       0x50 bin/blib.a(x86_tcpip.o)
 .debug_frame   0x0000000000008e2c       0x64 bin/blib.a(acpi.o)
 .debug_frame   0x0000000000008e90       0x70 bin/blib.a(asprintf.o)
 .debug_frame   0x0000000000008f00       0xb8 bin/blib.a(base16.o)
 .debug_frame   0x0000000000008fb8       0x8c bin/blib.a(base64.o)
 .debug_frame   0x0000000000009044       0x4c bin/blib.a(basename.o)
 .debug_frame   0x0000000000009090       0x94 bin/blib.a(bitmap.o)
 .debug_frame   0x0000000000009124       0xe4 bin/blib.a(blockdev.o)
 .debug_frame   0x0000000000009208       0x24 bin/blib.a(ctype.o)
 .debug_frame   0x000000000000922c       0x30 bin/blib.a(cwuri.o)
 .debug_frame   0x000000000000925c       0xc8 bin/blib.a(downloader.o)
 .debug_frame   0x0000000000009324       0x48 bin/blib.a(edd.o)
 .debug_frame   0x000000000000936c       0x68 bin/blib.a(getkey.o)
 .debug_frame   0x00000000000093d4       0x50 bin/blib.a(job.o)
 .debug_frame   0x0000000000009424       0x7c bin/blib.a(linebuf.o)
 .debug_frame   0x00000000000094a0       0xdc bin/blib.a(menu.o)
 .debug_frame   0x000000000000957c       0xbc bin/blib.a(monojob.o)
 .debug_frame   0x0000000000009638       0xcc bin/blib.a(params.o)
 .debug_frame   0x0000000000009704       0x34 bin/blib.a(pending.o)
 .debug_frame   0x0000000000009738       0x40 bin/blib.a(random.o)
 .debug_frame   0x0000000000009778      0x1dc bin/blib.a(resolv.o)
 .debug_frame   0x0000000000009954      0x2f4 bin/blib.a(aoe.o)
 .debug_frame   0x0000000000009c48      0x144 bin/blib.a(dhcppkt.o)
 .debug_frame   0x0000000000009d8c       0x6c bin/blib.a(fragment.o)
 .debug_frame   0x0000000000009df8       0x40 bin/blib.a(icmpv4.o)
 .debug_frame   0x0000000000009e38       0x50 bin/blib.a(socket.o)
 .debug_frame   0x0000000000009e88      0x2fc bin/blib.a(tcp.o)
 .debug_frame   0x000000000000a184      0x22c bin/blib.a(ata.o)
 .debug_frame   0x000000000000a3b0       0xf4 bin/blib.a(smbios.o)
 .debug_frame   0x000000000000a4a4       0x8c bin/blib.a(editstring.o)
 .debug_frame   0x000000000000a530       0xe8 bin/blib.a(readline.o)
 .debug_frame   0x000000000000a618       0xc8 bin/blib.a(shell.o)
 .debug_frame   0x000000000000a6e0      0x14c bin/blib.a(ansi_screen.o)
 .debug_frame   0x000000000000a82c       0x78 bin/blib.a(route_ipv4.o)
 .debug_frame   0x000000000000a8a4       0x8c bin/blib.a(hidemem.o)
 .debug_frame   0x000000000000a930       0x4c bin/blib.a(bootsector.o)
 .debug_frame   0x000000000000a97c       0x34 bin/blib.a(bios_smbios.o)
 .debug_frame   0x000000000000a9b0       0x60 bin/blib.a(ansicol.o)
 .debug_frame   0x000000000000aa10      0x15c bin/blib.a(dhcpopts.o)
 .debug_frame   0x000000000000ab6c       0xe4 bin/blib.a(icmp.o)

.debug_loc      0x0000000000000000    0x3e9b0
 .debug_loc     0x0000000000000000     0x179c bin/blib.a(intel.o)
 .debug_loc     0x000000000000179c      0x509 bin/blib.a(nvs.o)
 .debug_loc     0x0000000000001ca5      0x2aa bin/blib.a(bios_console.o)
 .debug_loc     0x0000000000001f4f     0x15f3 bin/blib.a(bzimage.o)
 .debug_loc     0x0000000000003542      0x124 bin/blib.a(elfboot.o)
 .debug_loc     0x0000000000003666      0xa91 bin/blib.a(initrd.o)
 .debug_loc     0x00000000000040f7      0xb3c bin/blib.a(multiboot.o)
 .debug_loc     0x0000000000004c33      0x175 bin/blib.a(pxe_image.o)
 .debug_loc     0x0000000000004da8      0x728 bin/blib.a(pxe_call.o)
 .debug_loc     0x00000000000054d0      0x85e bin/blib.a(pxe_file.o)
 .debug_loc     0x0000000000005d2e       0x4a bin/blib.a(pxe_loader.o)
 .debug_loc     0x0000000000005d78      0x351 bin/blib.a(pxe_preboot.o)
 .debug_loc     0x00000000000060c9      0x85e bin/blib.a(pxe_tftp.o)
 .debug_loc     0x0000000000006927      0x623 bin/blib.a(pxe_udp.o)
 .debug_loc     0x0000000000006f4a     0x1174 bin/blib.a(pxe_undi.o)
 .debug_loc     0x00000000000080be      0x2c7 bin/blib.a(x86_string.o)
 .debug_loc     0x0000000000008385      0x10a bin/blib.a(cpuid_cmd.o)
 .debug_loc     0x000000000000848f      0x1d7 bin/blib.a(ansiesc.o)
 .debug_loc     0x0000000000008666      0x1bb bin/blib.a(console.o)
 .debug_loc     0x0000000000008821       0xc4 bin/blib.a(cpio.o)
 .debug_loc     0x00000000000088e5      0x2d7 bin/blib.a(device.o)
 .debug_loc     0x0000000000008bbc      0xaa5 bin/blib.a(exec.o)
 .debug_loc     0x0000000000009661      0x1f5 bin/blib.a(getopt.o)
 .debug_loc     0x0000000000009856      0x9d8 bin/blib.a(image.o)
 .debug_loc     0x000000000000a22e      0x103 bin/blib.a(init.o)
 .debug_loc     0x000000000000a331      0x627 bin/blib.a(interface.o)
 .debug_loc     0x000000000000a958      0x5d0 bin/blib.a(iobuf.o)
 .debug_loc     0x000000000000af28      0x382 bin/blib.a(list.o)
 .debug_loc     0x000000000000b2aa       0x44 bin/blib.a(main.o)
 .debug_loc     0x000000000000b2ee      0x7d5 bin/blib.a(malloc.o)
 .debug_loc     0x000000000000bac3      0x160 bin/blib.a(memblock.o)
 .debug_loc     0x000000000000bc23      0x363 bin/blib.a(misc.o)
 .debug_loc     0x000000000000bf86      0x599 bin/blib.a(open.o)
 .debug_loc     0x000000000000c51f      0xa16 bin/blib.a(parseopt.o)
 .debug_loc     0x000000000000cf35      0x850 bin/blib.a(posix_io.o)
 .debug_loc     0x000000000000d785      0x28a bin/blib.a(process.o)
 .debug_loc     0x000000000000da0f       0x29 bin/blib.a(refcnt.o)
 .debug_loc     0x000000000000da38     0x4520 bin/blib.a(settings.o)
 .debug_loc     0x0000000000011f58      0x6c6 bin/blib.a(string.o)
 .debug_loc     0x000000000001261e       0x94 bin/blib.a(timer.o)
 .debug_loc     0x00000000000126b2     0x11ab bin/blib.a(uri.o)
 .debug_loc     0x000000000001385d      0x1a0 bin/blib.a(uuid.o)
 .debug_loc     0x00000000000139fd      0xadb bin/blib.a(vsprintf.o)
 .debug_loc     0x00000000000144d8      0x867 bin/blib.a(xfer.o)
 .debug_loc     0x0000000000014d3f      0x691 bin/blib.a(arp.o)
 .debug_loc     0x00000000000153d0      0x4aa bin/blib.a(ethernet.o)
 .debug_loc     0x000000000001587a       0xe0 bin/blib.a(eth_slow.o)
 .debug_loc     0x000000000001595a      0x5b9 bin/blib.a(fakedhcp.o)
 .debug_loc     0x0000000000015f13     0x12c4 bin/blib.a(ipv4.o)
 .debug_loc     0x00000000000171d7      0xf3e bin/blib.a(neighbour.o)
 .debug_loc     0x0000000000018115     0x1bea bin/blib.a(netdevice.o)
 .debug_loc     0x0000000000019cff      0x825 bin/blib.a(netdev_settings.o)
 .debug_loc     0x000000000001a524       0x26 bin/blib.a(nullnet.o)
 .debug_loc     0x000000000001a54a       0x4c bin/blib.a(rarp.o)
 .debug_loc     0x000000000001a596      0x34a bin/blib.a(retry.o)
 .debug_loc     0x000000000001a8e0      0x59b bin/blib.a(tcpip.o)
 .debug_loc     0x000000000001ae7b      0xb25 bin/blib.a(udp.o)
 .debug_loc     0x000000000001b9a0       0x52 bin/blib.a(http.o)
 .debug_loc     0x000000000001b9f2     0x1fff bin/blib.a(httpcore.o)
 .debug_loc     0x000000000001d9f1     0x2d26 bin/blib.a(iscsi.o)
 .debug_loc     0x0000000000020717     0x1fa6 bin/blib.a(dhcp.o)
 .debug_loc     0x00000000000226bd     0x1656 bin/blib.a(dns.o)
 .debug_loc     0x0000000000023d13     0x18ea bin/blib.a(tftp.o)
 .debug_loc     0x00000000000255fd      0x4b2 bin/blib.a(elf.o)
 .debug_loc     0x0000000000025aaf       0x61 bin/blib.a(embedded.o)
 .debug_loc     0x0000000000025b10      0x95b bin/blib.a(script.o)
 .debug_loc     0x000000000002646b      0x217 bin/blib.a(segment.o)
 .debug_loc     0x0000000000026682      0xb09 bin/blib.a(pci.o)
 .debug_loc     0x000000000002718b      0x1ae bin/blib.a(pci_settings.o)
 .debug_loc     0x0000000000027339      0x80e bin/blib.a(ibft.o)
 .debug_loc     0x0000000000027b47     0x160e bin/blib.a(scsi.o)
 .debug_loc     0x0000000000029155      0x3db bin/blib.a(smbios_settings.o)
 .debug_loc     0x0000000000029530      0x243 bin/blib.a(chap.o)
 .debug_loc     0x0000000000029773      0x385 bin/blib.a(md5.o)
 .debug_loc     0x0000000000029af8      0x12c bin/blib.a(strerror.o)
 .debug_loc     0x0000000000029c24       0x4c bin/blib.a(autoboot_cmd.o)
 .debug_loc     0x0000000000029c70       0xbc bin/blib.a(config_cmd.o)
 .debug_loc     0x0000000000029d2c      0x150 bin/blib.a(dhcp_cmd.o)
 .debug_loc     0x0000000000029e7c      0x324 bin/blib.a(ifmgmt_cmd.o)
 .debug_loc     0x000000000002a1a0      0x3f8 bin/blib.a(image_cmd.o)
 .debug_loc     0x000000000002a598       0x8c bin/blib.a(login_cmd.o)
 .debug_loc     0x000000000002a624      0x4a2 bin/blib.a(menu_cmd.o)
 .debug_loc     0x000000000002aac6      0x7e2 bin/blib.a(nvo_cmd.o)
 .debug_loc     0x000000000002b2a8       0xab bin/blib.a(reboot_cmd.o)
 .debug_loc     0x000000000002b353       0x7d bin/blib.a(route_cmd.o)
 .debug_loc     0x000000000002b3d0      0x374 bin/blib.a(sanboot_cmd.o)
 .debug_loc     0x000000000002b744       0x8c bin/blib.a(sync_cmd.o)
 .debug_loc     0x000000000002b7d0      0x1e1 bin/blib.a(login_ui.o)
 .debug_loc     0x000000000002b9b1      0x90a bin/blib.a(menu_ui.o)
 .debug_loc     0x000000000002c2bb      0xba9 bin/blib.a(settings_ui.o)
 .debug_loc     0x000000000002ce64      0x35e bin/blib.a(clear.o)
 .debug_loc     0x000000000002d1c2      0x3ee bin/blib.a(mucurses.o)
 .debug_loc     0x000000000002d5b0      0x12e bin/blib.a(print.o)
 .debug_loc     0x000000000002d6de      0x1f3 bin/blib.a(winattrs.o)
 .debug_loc     0x000000000002d8d1       0x44 bin/blib.a(wininit.o)
 .debug_loc     0x000000000002d915      0x344 bin/blib.a(editbox.o)
 .debug_loc     0x000000000002dc59      0x5d1 bin/blib.a(autoboot.o)
 .debug_loc     0x000000000002e22a      0x108 bin/blib.a(dhcpmgmt.o)
 .debug_loc     0x000000000002e332      0x8f0 bin/blib.a(ifmgmt.o)
 .debug_loc     0x000000000002ec22      0x3a2 bin/blib.a(imgmgmt.o)
 .debug_loc     0x000000000002efc4       0xa4 bin/blib.a(prompt.o)
 .debug_loc     0x000000000002f068      0x543 bin/blib.a(pxemenu.o)
 .debug_loc     0x000000000002f5ab       0xad bin/blib.a(route.o)
 .debug_loc     0x000000000002f658       0x7b bin/blib.a(sync.o)
 .debug_loc     0x000000000002f6d3      0x199 bin/blib.a(relocate.o)
 .debug_loc     0x000000000002f86c       0x8a bin/blib.a(timer2.o)
 .debug_loc     0x000000000002f8f6      0x26a bin/blib.a(librm_mgmt.o)
 .debug_loc     0x000000000002fb60      0x34d bin/blib.a(memmap.o)
 .debug_loc     0x000000000002fead      0x2a0 bin/blib.a(biosint.o)
 .debug_loc     0x000000000003014d       0x13 bin/blib.a(bios_reboot.o)
 .debug_loc     0x0000000000030160      0x195 bin/blib.a(bios_timer.o)
 .debug_loc     0x00000000000302f5     0x28ab bin/blib.a(int13.o)
 .debug_loc     0x0000000000032ba0      0x7a4 bin/blib.a(memtop_umalloc.o)
 .debug_loc     0x0000000000033344      0x1d9 bin/blib.a(pcibios.o)
 .debug_loc     0x000000000003351d      0x2c1 bin/blib.a(cpuid.o)
 .debug_loc     0x00000000000337de      0x1c2 bin/blib.a(x86_tcpip.o)
 .debug_loc     0x00000000000339a0      0x1ad bin/blib.a(acpi.o)
 .debug_loc     0x0000000000033b4d      0x13a bin/blib.a(asprintf.o)
 .debug_loc     0x0000000000033c87      0x377 bin/blib.a(base16.o)
 .debug_loc     0x0000000000033ffe      0x3e5 bin/blib.a(base64.o)
 .debug_loc     0x00000000000343e3       0xc5 bin/blib.a(basename.o)
 .debug_loc     0x00000000000344a8      0x230 bin/blib.a(bitmap.o)
 .debug_loc     0x00000000000346d8      0x475 bin/blib.a(blockdev.o)
 .debug_loc     0x0000000000034b4d       0x20 bin/blib.a(ctype.o)
 .debug_loc     0x0000000000034b6d       0x8f bin/blib.a(cwuri.o)
 .debug_loc     0x0000000000034bfc      0x482 bin/blib.a(downloader.o)
 .debug_loc     0x000000000003507e      0x143 bin/blib.a(edd.o)
 .debug_loc     0x00000000000351c1      0x159 bin/blib.a(getkey.o)
 .debug_loc     0x000000000003531a      0x12a bin/blib.a(job.o)
 .debug_loc     0x0000000000035444      0x20c bin/blib.a(linebuf.o)
 .debug_loc     0x0000000000035650      0x51f bin/blib.a(menu.o)
 .debug_loc     0x0000000000035b6f      0x1a2 bin/blib.a(monojob.o)
 .debug_loc     0x0000000000035d11      0x4db bin/blib.a(params.o)
 .debug_loc     0x00000000000361ec       0x52 bin/blib.a(random.o)
 .debug_loc     0x000000000003623e      0xae8 bin/blib.a(resolv.o)
 .debug_loc     0x0000000000036d26     0x1889 bin/blib.a(aoe.o)
 .debug_loc     0x00000000000385af      0x43a bin/blib.a(dhcppkt.o)
 .debug_loc     0x00000000000389e9      0x525 bin/blib.a(fragment.o)
 .debug_loc     0x0000000000038f0e      0x1b7 bin/blib.a(icmpv4.o)
 .debug_loc     0x00000000000390c5      0x107 bin/blib.a(socket.o)
 .debug_loc     0x00000000000391cc     0x1feb bin/blib.a(tcp.o)
 .debug_loc     0x000000000003b1b7      0xb60 bin/blib.a(ata.o)
 .debug_loc     0x000000000003bd17      0xb52 bin/blib.a(smbios.o)
 .debug_loc     0x000000000003c869      0x44a bin/blib.a(editstring.o)
 .debug_loc     0x000000000003ccb3      0x325 bin/blib.a(readline.o)
 .debug_loc     0x000000000003cfd8      0x24c bin/blib.a(shell.o)
 .debug_loc     0x000000000003d224      0x3ef bin/blib.a(ansi_screen.o)
 .debug_loc     0x000000000003d613      0x104 bin/blib.a(route_ipv4.o)
 .debug_loc     0x000000000003d717      0x11f bin/blib.a(hidemem.o)
 .debug_loc     0x000000000003d836       0xce bin/blib.a(bootsector.o)
 .debug_loc     0x000000000003d904       0x76 bin/blib.a(bios_smbios.o)
 .debug_loc     0x000000000003d97a      0x138 bin/blib.a(ansicol.o)
 .debug_loc     0x000000000003dab2      0xa47 bin/blib.a(dhcpopts.o)
 .debug_loc     0x000000000003e4f9      0x4b7 bin/blib.a(icmp.o)

.debug_aranges  0x0000000000000000     0x2e40
 .debug_aranges
                0x0000000000000000       0xa0 bin/blib.a(intel.o)
 .debug_aranges
                0x00000000000000a0       0x30 bin/blib.a(nvs.o)
 .debug_aranges
                0x00000000000000d0       0x48 bin/blib.a(bios_console.o)
 .debug_aranges
                0x0000000000000118       0x38 bin/blib.a(bzimage.o)
 .debug_aranges
                0x0000000000000150       0x28 bin/blib.a(elfboot.o)
 .debug_aranges
                0x0000000000000178       0x30 bin/blib.a(initrd.o)
 .debug_aranges
                0x00000000000001a8       0x38 bin/blib.a(multiboot.o)
 .debug_aranges
                0x00000000000001e0       0x28 bin/blib.a(pxe_image.o)
 .debug_aranges
                0x0000000000000208       0x58 bin/blib.a(pxe_call.o)
 .debug_aranges
                0x0000000000000260       0x58 bin/blib.a(pxe_file.o)
 .debug_aranges
                0x00000000000002b8       0x20 bin/blib.a(pxe_loader.o)
 .debug_aranges
                0x00000000000002d8       0x50 bin/blib.a(pxe_preboot.o)
 .debug_aranges
                0x0000000000000328       0x60 bin/blib.a(pxe_tftp.o)
 .debug_aranges
                0x0000000000000388       0x40 bin/blib.a(pxe_udp.o)
 .debug_aranges
                0x00000000000003c8       0xd0 bin/blib.a(pxe_undi.o)
 .debug_aranges
                0x0000000000000498       0x48 bin/blib.a(x86_string.o)
 .debug_aranges
                0x00000000000004e0       0x20 bin/blib.a(cpuid_cmd.o)
 .debug_aranges
                0x0000000000000500       0x20 bin/blib.a(ansiesc.o)
 .debug_aranges
                0x0000000000000520       0x40 bin/blib.a(console.o)
 .debug_aranges
                0x0000000000000560       0x20 bin/blib.a(cpio.o)
 .debug_aranges
                0x0000000000000580       0x30 bin/blib.a(device.o)
 .debug_aranges
                0x00000000000005b0       0x88 bin/blib.a(exec.o)
 .debug_aranges
                0x0000000000000638       0x28 bin/blib.a(getopt.o)
 .debug_aranges
                0x0000000000000660       0x88 bin/blib.a(image.o)
 .debug_aranges
                0x00000000000006e8       0x30 bin/blib.a(init.o)
 .debug_aranges
                0x0000000000000718       0x80 bin/blib.a(interface.o)
 .debug_aranges
                0x0000000000000798       0x40 bin/blib.a(iobuf.o)
 .debug_aranges
                0x00000000000007d8       0x78 bin/blib.a(list.o)
 .debug_aranges
                0x0000000000000850       0x20 bin/blib.a(main.o)
 .debug_aranges
                0x0000000000000870       0x68 bin/blib.a(malloc.o)
 .debug_aranges
                0x00000000000008d8       0x20 bin/blib.a(memblock.o)
 .debug_aranges
                0x00000000000008f8       0x30 bin/blib.a(misc.o)
 .debug_aranges
                0x0000000000000928       0x50 bin/blib.a(open.o)
 .debug_aranges
                0x0000000000000978       0x98 bin/blib.a(parseopt.o)
 .debug_aranges
                0x0000000000000a10       0x60 bin/blib.a(posix_io.o)
 .debug_aranges
                0x0000000000000a70       0x40 bin/blib.a(process.o)
 .debug_aranges
                0x0000000000000ab0       0x30 bin/blib.a(refcnt.o)
 .debug_aranges
                0x0000000000000ae0      0x280 bin/blib.a(settings.o)
 .debug_aranges
                0x0000000000000d60       0x80 bin/blib.a(string.o)
 .debug_aranges
                0x0000000000000de0       0x28 bin/blib.a(timer.o)
 .debug_aranges
                0x0000000000000e08       0x70 bin/blib.a(uri.o)
 .debug_aranges
                0x0000000000000e78       0x20 bin/blib.a(uuid.o)
 .debug_aranges
                0x0000000000000e98       0x68 bin/blib.a(vsprintf.o)
 .debug_aranges
                0x0000000000000f00       0x78 bin/blib.a(xfer.o)
 .debug_aranges
                0x0000000000000f78       0x30 bin/blib.a(arp.o)
 .debug_aranges
                0x0000000000000fa8       0x60 bin/blib.a(ethernet.o)
 .debug_aranges
                0x0000000000001008       0x20 bin/blib.a(eth_slow.o)
 .debug_aranges
                0x0000000000001028       0x38 bin/blib.a(fakedhcp.o)
 .debug_aranges
                0x0000000000001060       0xa0 bin/blib.a(ipv4.o)
 .debug_aranges
                0x0000000000001100       0x70 bin/blib.a(neighbour.o)
 .debug_aranges
                0x0000000000001170      0x160 bin/blib.a(netdevice.o)
 .debug_aranges
                0x00000000000012d0       0x70 bin/blib.a(netdev_settings.o)
 .debug_aranges
                0x0000000000001340       0x40 bin/blib.a(nullnet.o)
 .debug_aranges
                0x0000000000001380       0x28 bin/blib.a(rarp.o)
 .debug_aranges
                0x00000000000013a8       0x40 bin/blib.a(retry.o)
 .debug_aranges
                0x00000000000013e8       0x50 bin/blib.a(tcpip.o)
 .debug_aranges
                0x0000000000001438       0x60 bin/blib.a(udp.o)
 .debug_aranges
                0x0000000000001498       0x20 bin/blib.a(http.o)
 .debug_aranges
                0x00000000000014b8      0x108 bin/blib.a(httpcore.o)
 .debug_aranges
                0x00000000000015c0      0x110 bin/blib.a(iscsi.o)
 .debug_aranges
                0x00000000000016d0       0xd0 bin/blib.a(dhcp.o)
 .debug_aranges
                0x00000000000017a0       0x98 bin/blib.a(dns.o)
 .debug_aranges
                0x0000000000001838       0xc8 bin/blib.a(tftp.o)
 .debug_aranges
                0x0000000000001900       0x20 bin/blib.a(elf.o)
 .debug_aranges
                0x0000000000001920       0x20 bin/blib.a(embedded.o)
 .debug_aranges
                0x0000000000001940       0x60 bin/blib.a(script.o)
 .debug_aranges
                0x00000000000019a0       0x20 bin/blib.a(segment.o)
 .debug_aranges
                0x00000000000019c0       0x68 bin/blib.a(pci.o)
 .debug_aranges
                0x0000000000001a28       0x30 bin/blib.a(pci_settings.o)
 .debug_aranges
                0x0000000000001a58       0x30 bin/blib.a(ibft.o)
 .debug_aranges
                0x0000000000001a88       0xd0 bin/blib.a(scsi.o)
 .debug_aranges
                0x0000000000001b58       0x30 bin/blib.a(smbios_settings.o)
 .debug_aranges
                0x0000000000001b88       0x38 bin/blib.a(chap.o)
 .debug_aranges
                0x0000000000001bc0       0x50 bin/blib.a(md5.o)
 .debug_aranges
                0x0000000000001c10       0x20 bin/blib.a(strerror.o)
 .debug_aranges
                0x0000000000001c30       0x28 bin/blib.a(autoboot_cmd.o)
 .debug_aranges
                0x0000000000001c58       0x20 bin/blib.a(config_cmd.o)
 .debug_aranges
                0x0000000000001c78       0x20 bin/blib.a(dhcp_cmd.o)
 .debug_aranges
                0x0000000000001c98       0x60 bin/blib.a(ifmgmt_cmd.o)
 .debug_aranges
                0x0000000000001cf8       0x70 bin/blib.a(image_cmd.o)
 .debug_aranges
                0x0000000000001d68       0x20 bin/blib.a(login_cmd.o)
 .debug_aranges
                0x0000000000001d88       0x30 bin/blib.a(menu_cmd.o)
 .debug_aranges
                0x0000000000001db8       0x60 bin/blib.a(nvo_cmd.o)
 .debug_aranges
                0x0000000000001e18       0x20 bin/blib.a(reboot_cmd.o)
 .debug_aranges
                0x0000000000001e38       0x20 bin/blib.a(route_cmd.o)
 .debug_aranges
                0x0000000000001e58       0x38 bin/blib.a(sanboot_cmd.o)
 .debug_aranges
                0x0000000000001e90       0x20 bin/blib.a(sync_cmd.o)
 .debug_aranges
                0x0000000000001eb0       0x20 bin/blib.a(login_ui.o)
 .debug_aranges
                0x0000000000001ed0       0x30 bin/blib.a(menu_ui.o)
 .debug_aranges
                0x0000000000001f00       0x78 bin/blib.a(settings_ui.o)
 .debug_aranges
                0x0000000000001f78       0x48 bin/blib.a(clear.o)
 .debug_aranges
                0x0000000000001fc0       0x58 bin/blib.a(mucurses.o)
 .debug_aranges
                0x0000000000002018       0x40 bin/blib.a(print.o)
 .debug_aranges
                0x0000000000002058       0x60 bin/blib.a(winattrs.o)
 .debug_aranges
                0x00000000000020b8       0x28 bin/blib.a(wininit.o)
 .debug_aranges
                0x00000000000020e0       0x28 bin/blib.a(editbox.o)
 .debug_aranges
                0x0000000000002108       0x48 bin/blib.a(autoboot.o)
 .debug_aranges
                0x0000000000002150       0x20 bin/blib.a(dhcpmgmt.o)
 .debug_aranges
                0x0000000000002170       0x60 bin/blib.a(ifmgmt.o)
 .debug_aranges
                0x00000000000021d0       0x38 bin/blib.a(imgmgmt.o)
 .debug_aranges
                0x0000000000002208       0x20 bin/blib.a(prompt.o)
 .debug_aranges
                0x0000000000002228       0x38 bin/blib.a(pxemenu.o)
 .debug_aranges
                0x0000000000002260       0x20 bin/blib.a(route.o)
 .debug_aranges
                0x0000000000002280       0x28 bin/blib.a(sync.o)
 .debug_aranges
                0x00000000000022a8       0x20 bin/blib.a(pci_autoboot.o)
 .debug_aranges
                0x00000000000022c8       0x20 bin/blib.a(relocate.o)
 .debug_aranges
                0x00000000000022e8       0x20 bin/blib.a(timer2.o)
 .debug_aranges
                0x0000000000002308       0x40 bin/blib.a(librm_mgmt.o)
 .debug_aranges
                0x0000000000002348       0x28 bin/blib.a(memmap.o)
 .debug_aranges
                0x0000000000002370       0x28 bin/blib.a(biosint.o)
 .debug_aranges
                0x0000000000002398       0x20 bin/blib.a(bios_nap.o)
 .debug_aranges
                0x00000000000023b8       0x20 bin/blib.a(bios_reboot.o)
 .debug_aranges
                0x00000000000023d8       0x20 bin/blib.a(bios_timer.o)
 .debug_aranges
                0x00000000000023f8       0xb8 bin/blib.a(int13.o)
 .debug_aranges
                0x00000000000024b0       0x20 bin/blib.a(memtop_umalloc.o)
 .debug_aranges
                0x00000000000024d0       0x30 bin/blib.a(pcibios.o)
 .debug_aranges
                0x0000000000002500       0x28 bin/blib.a(cpuid.o)
 .debug_aranges
                0x0000000000002528       0x20 bin/blib.a(x86_tcpip.o)
 .debug_aranges
                0x0000000000002548       0x28 bin/blib.a(acpi.o)
 .debug_aranges
                0x0000000000002570       0x28 bin/blib.a(asprintf.o)
 .debug_aranges
                0x0000000000002598       0x30 bin/blib.a(base16.o)
 .debug_aranges
                0x00000000000025c8       0x28 bin/blib.a(base64.o)
 .debug_aranges
                0x00000000000025f0       0x28 bin/blib.a(basename.o)
 .debug_aranges
                0x0000000000002618       0x30 bin/blib.a(bitmap.o)
 .debug_aranges
                0x0000000000002648       0x38 bin/blib.a(blockdev.o)
 .debug_aranges
                0x0000000000002680       0x20 bin/blib.a(ctype.o)
 .debug_aranges
                0x00000000000026a0       0x20 bin/blib.a(cwuri.o)
 .debug_aranges
                0x00000000000026c0       0x40 bin/blib.a(downloader.o)
 .debug_aranges
                0x0000000000002700       0x20 bin/blib.a(edd.o)
 .debug_aranges
                0x0000000000002720       0x28 bin/blib.a(getkey.o)
 .debug_aranges
                0x0000000000002748       0x20 bin/blib.a(job.o)
 .debug_aranges
                0x0000000000002768       0x30 bin/blib.a(linebuf.o)
 .debug_aranges
                0x0000000000002798       0x38 bin/blib.a(menu.o)
 .debug_aranges
                0x00000000000027d0       0x28 bin/blib.a(monojob.o)
 .debug_aranges
                0x00000000000027f8       0x38 bin/blib.a(params.o)
 .debug_aranges
                0x0000000000002830       0x28 bin/blib.a(pending.o)
 .debug_aranges
                0x0000000000002858       0x28 bin/blib.a(random.o)
 .debug_aranges
                0x0000000000002880       0x68 bin/blib.a(resolv.o)
 .debug_aranges
                0x00000000000028e8       0xc0 bin/blib.a(aoe.o)
 .debug_aranges
                0x00000000000029a8       0x58 bin/blib.a(dhcppkt.o)
 .debug_aranges
                0x0000000000002a00       0x28 bin/blib.a(fragment.o)
 .debug_aranges
                0x0000000000002a28       0x20 bin/blib.a(icmpv4.o)
 .debug_aranges
                0x0000000000002a48       0x28 bin/blib.a(socket.o)
 .debug_aranges
                0x0000000000002a70       0xa0 bin/blib.a(tcp.o)
 .debug_aranges
                0x0000000000002b10       0x90 bin/blib.a(ata.o)
 .debug_aranges
                0x0000000000002ba0       0x40 bin/blib.a(smbios.o)
 .debug_aranges
                0x0000000000002be0       0x30 bin/blib.a(editstring.o)
 .debug_aranges
                0x0000000000002c10       0x38 bin/blib.a(readline.o)
 .debug_aranges
                0x0000000000002c48       0x30 bin/blib.a(shell.o)
 .debug_aranges
                0x0000000000002c78       0x60 bin/blib.a(ansi_screen.o)
 .debug_aranges
                0x0000000000002cd8       0x20 bin/blib.a(route_ipv4.o)
 .debug_aranges
                0x0000000000002cf8       0x40 bin/blib.a(hidemem.o)
 .debug_aranges
                0x0000000000002d38       0x20 bin/blib.a(bootsector.o)
 .debug_aranges
                0x0000000000002d58       0x20 bin/blib.a(bios_smbios.o)
 .debug_aranges
                0x0000000000002d78       0x30 bin/blib.a(ansicol.o)
 .debug_aranges
                0x0000000000002da8       0x58 bin/blib.a(dhcpopts.o)
 .debug_aranges
                0x0000000000002e00       0x40 bin/blib.a(icmp.o)

.debug_ranges   0x0000000000000000     0x3668
 .debug_ranges  0x0000000000000000      0x118 bin/blib.a(intel.o)
 .debug_ranges  0x0000000000000118       0x20 bin/blib.a(nvs.o)
 .debug_ranges  0x0000000000000138       0x38 bin/blib.a(bios_console.o)
 .debug_ranges  0x0000000000000170      0x100 bin/blib.a(bzimage.o)
 .debug_ranges  0x0000000000000270       0x18 bin/blib.a(elfboot.o)
 .debug_ranges  0x0000000000000288       0x80 bin/blib.a(initrd.o)
 .debug_ranges  0x0000000000000308       0xa0 bin/blib.a(multiboot.o)
 .debug_ranges  0x00000000000003a8       0x18 bin/blib.a(pxe_image.o)
 .debug_ranges  0x00000000000003c0       0x78 bin/blib.a(pxe_call.o)
 .debug_ranges  0x0000000000000438       0xa8 bin/blib.a(pxe_file.o)
 .debug_ranges  0x00000000000004e0       0x10 bin/blib.a(pxe_loader.o)
 .debug_ranges  0x00000000000004f0       0x58 bin/blib.a(pxe_preboot.o)
 .debug_ranges  0x0000000000000548       0x68 bin/blib.a(pxe_tftp.o)
 .debug_ranges  0x00000000000005b0       0x78 bin/blib.a(pxe_udp.o)
 .debug_ranges  0x0000000000000628      0x120 bin/blib.a(pxe_undi.o)
 .debug_ranges  0x0000000000000748       0x38 bin/blib.a(x86_string.o)
 .debug_ranges  0x0000000000000780       0x10 bin/blib.a(cpuid_cmd.o)
 .debug_ranges  0x0000000000000790       0x40 bin/blib.a(ansiesc.o)
 .debug_ranges  0x00000000000007d0       0x30 bin/blib.a(console.o)
 .debug_ranges  0x0000000000000800       0x10 bin/blib.a(cpio.o)
 .debug_ranges  0x0000000000000810       0x20 bin/blib.a(device.o)
 .debug_ranges  0x0000000000000830       0x78 bin/blib.a(exec.o)
 .debug_ranges  0x00000000000008a8       0x18 bin/blib.a(getopt.o)
 .debug_ranges  0x00000000000008c0       0x78 bin/blib.a(image.o)
 .debug_ranges  0x0000000000000938       0x20 bin/blib.a(init.o)
 .debug_ranges  0x0000000000000958       0x88 bin/blib.a(interface.o)
 .debug_ranges  0x00000000000009e0       0x60 bin/blib.a(iobuf.o)
 .debug_ranges  0x0000000000000a40       0x68 bin/blib.a(list.o)
 .debug_ranges  0x0000000000000aa8       0x10 bin/blib.a(main.o)
 .debug_ranges  0x0000000000000ab8       0x58 bin/blib.a(malloc.o)
 .debug_ranges  0x0000000000000b10       0x10 bin/blib.a(memblock.o)
 .debug_ranges  0x0000000000000b20       0x20 bin/blib.a(misc.o)
 .debug_ranges  0x0000000000000b40       0x70 bin/blib.a(open.o)
 .debug_ranges  0x0000000000000bb0       0x88 bin/blib.a(parseopt.o)
 .debug_ranges  0x0000000000000c38       0x50 bin/blib.a(posix_io.o)
 .debug_ranges  0x0000000000000c88       0x30 bin/blib.a(process.o)
 .debug_ranges  0x0000000000000cb8       0x20 bin/blib.a(refcnt.o)
 .debug_ranges  0x0000000000000cd8      0x2e8 bin/blib.a(settings.o)
 .debug_ranges  0x0000000000000fc0       0x70 bin/blib.a(string.o)
 .debug_ranges  0x0000000000001030       0x18 bin/blib.a(timer.o)
 .debug_ranges  0x0000000000001048       0x90 bin/blib.a(uri.o)
 .debug_ranges  0x00000000000010d8       0x10 bin/blib.a(uuid.o)
 .debug_ranges  0x00000000000010e8       0x58 bin/blib.a(vsprintf.o)
 .debug_ranges  0x0000000000001140       0x68 bin/blib.a(xfer.o)
 .debug_ranges  0x00000000000011a8       0x20 bin/blib.a(arp.o)
 .debug_ranges  0x00000000000011c8       0x50 bin/blib.a(ethernet.o)
 .debug_ranges  0x0000000000001218       0x40 bin/blib.a(eth_slow.o)
 .debug_ranges  0x0000000000001258       0x28 bin/blib.a(fakedhcp.o)
 .debug_ranges  0x0000000000001280       0xd8 bin/blib.a(ipv4.o)
 .debug_ranges  0x0000000000001358       0x60 bin/blib.a(neighbour.o)
 .debug_ranges  0x00000000000013b8      0x180 bin/blib.a(netdevice.o)
 .debug_ranges  0x0000000000001538       0x78 bin/blib.a(netdev_settings.o)
 .debug_ranges  0x00000000000015b0       0x30 bin/blib.a(nullnet.o)
 .debug_ranges  0x00000000000015e0       0x18 bin/blib.a(rarp.o)
 .debug_ranges  0x00000000000015f8       0x60 bin/blib.a(retry.o)
 .debug_ranges  0x0000000000001658       0x40 bin/blib.a(tcpip.o)
 .debug_ranges  0x0000000000001698       0x50 bin/blib.a(udp.o)
 .debug_ranges  0x00000000000016e8       0x10 bin/blib.a(http.o)
 .debug_ranges  0x00000000000016f8      0x190 bin/blib.a(httpcore.o)
 .debug_ranges  0x0000000000001888      0x248 bin/blib.a(iscsi.o)
 .debug_ranges  0x0000000000001ad0      0x108 bin/blib.a(dhcp.o)
 .debug_ranges  0x0000000000001bd8       0x88 bin/blib.a(dns.o)
 .debug_ranges  0x0000000000001c60      0x190 bin/blib.a(tftp.o)
 .debug_ranges  0x0000000000001df0       0x10 bin/blib.a(elf.o)
 .debug_ranges  0x0000000000001e00       0x10 bin/blib.a(embedded.o)
 .debug_ranges  0x0000000000001e10       0x98 bin/blib.a(script.o)
 .debug_ranges  0x0000000000001ea8       0x40 bin/blib.a(segment.o)
 .debug_ranges  0x0000000000001ee8       0x88 bin/blib.a(pci.o)
 .debug_ranges  0x0000000000001f70       0x20 bin/blib.a(pci_settings.o)
 .debug_ranges  0x0000000000001f90       0x80 bin/blib.a(ibft.o)
 .debug_ranges  0x0000000000002010      0x120 bin/blib.a(scsi.o)
 .debug_ranges  0x0000000000002130       0x38 bin/blib.a(smbios_settings.o)
 .debug_ranges  0x0000000000002168       0x28 bin/blib.a(chap.o)
 .debug_ranges  0x0000000000002190       0x40 bin/blib.a(md5.o)
 .debug_ranges  0x00000000000021d0       0x40 bin/blib.a(strerror.o)
 .debug_ranges  0x0000000000002210       0x18 bin/blib.a(autoboot_cmd.o)
 .debug_ranges  0x0000000000002228       0x10 bin/blib.a(config_cmd.o)
 .debug_ranges  0x0000000000002238       0x10 bin/blib.a(dhcp_cmd.o)
 .debug_ranges  0x0000000000002248       0x50 bin/blib.a(ifmgmt_cmd.o)
 .debug_ranges  0x0000000000002298       0x60 bin/blib.a(image_cmd.o)
 .debug_ranges  0x00000000000022f8       0x10 bin/blib.a(login_cmd.o)
 .debug_ranges  0x0000000000002308       0x20 bin/blib.a(menu_cmd.o)
 .debug_ranges  0x0000000000002328       0x50 bin/blib.a(nvo_cmd.o)
 .debug_ranges  0x0000000000002378       0x10 bin/blib.a(reboot_cmd.o)
 .debug_ranges  0x0000000000002388       0x10 bin/blib.a(route_cmd.o)
 .debug_ranges  0x0000000000002398       0x28 bin/blib.a(sanboot_cmd.o)
 .debug_ranges  0x00000000000023c0       0x10 bin/blib.a(sync_cmd.o)
 .debug_ranges  0x00000000000023d0       0x10 bin/blib.a(login_ui.o)
 .debug_ranges  0x00000000000023e0       0x68 bin/blib.a(menu_ui.o)
 .debug_ranges  0x0000000000002448       0x98 bin/blib.a(settings_ui.o)
 .debug_ranges  0x00000000000024e0       0x38 bin/blib.a(clear.o)
 .debug_ranges  0x0000000000002518       0x48 bin/blib.a(mucurses.o)
 .debug_ranges  0x0000000000002560       0x30 bin/blib.a(print.o)
 .debug_ranges  0x0000000000002590       0x68 bin/blib.a(winattrs.o)
 .debug_ranges  0x00000000000025f8       0x18 bin/blib.a(wininit.o)
 .debug_ranges  0x0000000000002610       0x18 bin/blib.a(editbox.o)
 .debug_ranges  0x0000000000002628       0x88 bin/blib.a(autoboot.o)
 .debug_ranges  0x00000000000026b0       0x10 bin/blib.a(dhcpmgmt.o)
 .debug_ranges  0x00000000000026c0       0xb0 bin/blib.a(ifmgmt.o)
 .debug_ranges  0x0000000000002770       0x28 bin/blib.a(imgmgmt.o)
 .debug_ranges  0x0000000000002798       0x10 bin/blib.a(prompt.o)
 .debug_ranges  0x00000000000027a8       0x28 bin/blib.a(pxemenu.o)
 .debug_ranges  0x00000000000027d0       0x10 bin/blib.a(route.o)
 .debug_ranges  0x00000000000027e0       0x18 bin/blib.a(sync.o)
 .debug_ranges  0x00000000000027f8       0x10 bin/blib.a(pci_autoboot.o)
 .debug_ranges  0x0000000000002808       0x10 bin/blib.a(relocate.o)
 .debug_ranges  0x0000000000002818       0x10 bin/blib.a(timer2.o)
 .debug_ranges  0x0000000000002828       0x60 bin/blib.a(librm_mgmt.o)
 .debug_ranges  0x0000000000002888       0x60 bin/blib.a(memmap.o)
 .debug_ranges  0x00000000000028e8       0x18 bin/blib.a(biosint.o)
 .debug_ranges  0x0000000000002900       0x10 bin/blib.a(bios_nap.o)
 .debug_ranges  0x0000000000002910       0x10 bin/blib.a(bios_reboot.o)
 .debug_ranges  0x0000000000002920       0x10 bin/blib.a(bios_timer.o)
 .debug_ranges  0x0000000000002930      0x348 bin/blib.a(int13.o)
 .debug_ranges  0x0000000000002c78       0x10 bin/blib.a(memtop_umalloc.o)
 .debug_ranges  0x0000000000002c88       0x20 bin/blib.a(pcibios.o)
 .debug_ranges  0x0000000000002ca8       0x18 bin/blib.a(cpuid.o)
 .debug_ranges  0x0000000000002cc0       0x10 bin/blib.a(x86_tcpip.o)
 .debug_ranges  0x0000000000002cd0       0x18 bin/blib.a(acpi.o)
 .debug_ranges  0x0000000000002ce8       0x18 bin/blib.a(asprintf.o)
 .debug_ranges  0x0000000000002d00       0x20 bin/blib.a(base16.o)
 .debug_ranges  0x0000000000002d20       0x18 bin/blib.a(base64.o)
 .debug_ranges  0x0000000000002d38       0x18 bin/blib.a(basename.o)
 .debug_ranges  0x0000000000002d50       0x20 bin/blib.a(bitmap.o)
 .debug_ranges  0x0000000000002d70       0x28 bin/blib.a(blockdev.o)
 .debug_ranges  0x0000000000002d98       0x10 bin/blib.a(ctype.o)
 .debug_ranges  0x0000000000002da8       0x10 bin/blib.a(cwuri.o)
 .debug_ranges  0x0000000000002db8       0x90 bin/blib.a(downloader.o)
 .debug_ranges  0x0000000000002e48       0x10 bin/blib.a(edd.o)
 .debug_ranges  0x0000000000002e58       0x18 bin/blib.a(getkey.o)
 .debug_ranges  0x0000000000002e70       0x10 bin/blib.a(job.o)
 .debug_ranges  0x0000000000002e80       0x20 bin/blib.a(linebuf.o)
 .debug_ranges  0x0000000000002ea0       0x28 bin/blib.a(menu.o)
 .debug_ranges  0x0000000000002ec8       0x18 bin/blib.a(monojob.o)
 .debug_ranges  0x0000000000002ee0       0x28 bin/blib.a(params.o)
 .debug_ranges  0x0000000000002f08       0x18 bin/blib.a(pending.o)
 .debug_ranges  0x0000000000002f20       0x18 bin/blib.a(random.o)
 .debug_ranges  0x0000000000002f38       0x58 bin/blib.a(resolv.o)
 .debug_ranges  0x0000000000002f90      0x210 bin/blib.a(aoe.o)
 .debug_ranges  0x00000000000031a0       0x48 bin/blib.a(dhcppkt.o)
 .debug_ranges  0x00000000000031e8       0x18 bin/blib.a(fragment.o)
 .debug_ranges  0x0000000000003200       0x10 bin/blib.a(icmpv4.o)
 .debug_ranges  0x0000000000003210       0x18 bin/blib.a(socket.o)
 .debug_ranges  0x0000000000003228       0xd8 bin/blib.a(tcp.o)
 .debug_ranges  0x0000000000003300       0x80 bin/blib.a(ata.o)
 .debug_ranges  0x0000000000003380       0x88 bin/blib.a(smbios.o)
 .debug_ranges  0x0000000000003408       0x20 bin/blib.a(editstring.o)
 .debug_ranges  0x0000000000003428       0x78 bin/blib.a(readline.o)
 .debug_ranges  0x00000000000034a0       0x20 bin/blib.a(shell.o)
 .debug_ranges  0x00000000000034c0       0x50 bin/blib.a(ansi_screen.o)
 .debug_ranges  0x0000000000003510       0x10 bin/blib.a(route_ipv4.o)
 .debug_ranges  0x0000000000003520       0x30 bin/blib.a(hidemem.o)
 .debug_ranges  0x0000000000003550       0x10 bin/blib.a(bootsector.o)
 .debug_ranges  0x0000000000003560       0x10 bin/blib.a(bios_smbios.o)
 .debug_ranges  0x0000000000003570       0x38 bin/blib.a(ansicol.o)
 .debug_ranges  0x00000000000035a8       0x60 bin/blib.a(dhcpopts.o)
 .debug_ranges  0x0000000000003608       0x60 bin/blib.a(icmp.o)

bin/8086100f.mrom.tmp:     file format elf32-i386

Sections:
Idx Name          Size      VMA       LMA       File off  Algn
  0 .prefix       0000084b  00000000  00000000  00000180  2**4
                  CONTENTS, ALLOC, LOAD, CODE
  1 .text16.early 000002ac  00000000  00000850  000009cc  2**1
                  CONTENTS, ALLOC, LOAD, CODE
  2 .text16.late  000006ac  000002b0  00000c40  00000cb0  2**4
                  CONTENTS, ALLOC, LOAD, CODE
  3 .data16       000000c2  00000000  000012f0  00001360  2**4
                  CONTENTS, ALLOC, LOAD, DATA
  4 .bss.data16   00002bf8  000000d0  00001490  0001ad90  2**4
                  ALLOC
  5 .textdata     00019874  00000000  000013c0  00001424  2**2
                  CONTENTS, ALLOC, LOAD, CODE
  6 .bss.textdata 00082208  00019880  0001ad30  0001ad90  2**4
                  ALLOC
  7 .pprefix      00000038  00000000  00000c00  00000c78  2**0
                  CONTENTS, ALLOC, LOAD, READONLY, CODE
  8 .zinfo        000000f0  00000000  0001ac40  0001ac98  2**0
                  CONTENTS, ALLOC, LOAD, READONLY, DATA
  9 .debug_info   0008c628  00000000  00000000  0001ad88  2**0
                  CONTENTS, READONLY, DEBUGGING
 10 .debug_abbrev 000169f5  00000000  00000000  000a73b0  2**0
                  CONTENTS, READONLY, DEBUGGING
 11 .debug_line   00015672  00000000  00000000  000bdda5  2**0
                  CONTENTS, READONLY, DEBUGGING
 12 .debug_str    0001048b  00000000  00000000  000d3417  2**0
                  CONTENTS, READONLY, DEBUGGING
 13 .debug_frame  0000ac50  00000000  00000000  000e38a4  2**2
                  CONTENTS, READONLY, DEBUGGING
 14 .debug_loc    0003e9b0  00000000  00000000  000ee4f4  2**0
                  CONTENTS, READONLY, DEBUGGING
 15 .debug_aranges 00002e40  00000000  00000000  0012cea4  2**0
                  CONTENTS, READONLY, DEBUGGING
 16 .debug_ranges 00003668  00000000  00000000  0012fce4  2**0
                  CONTENTS, READONLY, DEBUGGING
SYMBOL TABLE:


00000000 l    df *ABS*	00000000 bios_console.c
00000000 l    df *ABS*	00000000 bzimage.c
00000000 l    df *ABS*	00000000 pxe_call.c
00000000 l    df *ABS*	00000000 librm_mgmt.c
00000000 l    df *ABS*	00000000 memmap.c
00000000 l    df *ABS*	00000000 bios_reboot.c
00000000 l    df *ABS*	00000000 int13.c
00000000 l    df *ABS*	00000000 pcibios.c
00000000 l    df *ABS*	00000000 bootsector.c
00000000 l    df *ABS*	00000000 intel.c
00000000 l    df *ABS*	00000000 nvs.c
00000000 l    df *ABS*	00000000 elfboot.c
00000000 l    df *ABS*	00000000 initrd.c
00000000 l    df *ABS*	00000000 multiboot.c
00000000 l    df *ABS*	00000000 pxe_image.c
00000000 l    df *ABS*	00000000 pxe_file.c
00000000 l    df *ABS*	00000000 pxe_preboot.c
00000000 l    df *ABS*	00000000 pxe_tftp.c
00000000 l    df *ABS*	00000000 pxe_udp.c
00000000 l    df *ABS*	00000000 pxe_undi.c
00000000 l    df *ABS*	00000000 x86_string.c
00000000 l    df *ABS*	00000000 cpuid_cmd.c
00000000 l    df *ABS*	00000000 ansiesc.c
00000000 l    df *ABS*	00000000 console.c
00000000 l    df *ABS*	00000000 cpio.c
00000000 l    df *ABS*	00000000 device.c
00000000 l    df *ABS*	00000000 exec.c
00000000 l    df *ABS*	00000000 getopt.c
00000000 l    df *ABS*	00000000 image.c
00000000 l    df *ABS*	00000000 init.c
00000000 l    df *ABS*	00000000 interface.c
00000000 l    df *ABS*	00000000 iobuf.c
00000000 l    df *ABS*	00000000 list.c
00000000 l    df *ABS*	00000000 main.c
00000000 l    df *ABS*	00000000 malloc.c
00000000 l    df *ABS*	00000000 memblock.c
00000000 l    df *ABS*	00000000 misc.c
00000000 l    df *ABS*	00000000 open.c
00000000 l    df *ABS*	00000000 parseopt.c
00000000 l    df *ABS*	00000000 posix_io.c
00000000 l    df *ABS*	00000000 process.c
00000000 l    df *ABS*	00000000 refcnt.c
00000000 l    df *ABS*	00000000 settings.c
00000000 l    df *ABS*	00000000 string.c
00000000 l    df *ABS*	00000000 timer.c
00000000 l    df *ABS*	00000000 uri.c
00000000 l    df *ABS*	00000000 uuid.c
00000000 l    df *ABS*	00000000 vsprintf.c
00000000 l    df *ABS*	00000000 xfer.c
00000000 l    df *ABS*	00000000 arp.c
00000000 l    df *ABS*	00000000 ethernet.c
00000000 l    df *ABS*	00000000 eth_slow.c
00000000 l    df *ABS*	00000000 fakedhcp.c
00000000 l    df *ABS*	00000000 ipv4.c
00000000 l    df *ABS*	00000000 neighbour.c
00000000 l    df *ABS*	00000000 netdevice.c
00000000 l    df *ABS*	00000000 netdev_settings.c
00000000 l    df *ABS*	00000000 nullnet.c
00000000 l    df *ABS*	00000000 rarp.c
00000000 l    df *ABS*	00000000 retry.c
00000000 l    df *ABS*	00000000 tcpip.c
00000000 l    df *ABS*	00000000 udp.c
00000000 l    df *ABS*	00000000 http.c
00000000 l    df *ABS*	00000000 httpcore.c
00000000 l    df *ABS*	00000000 iscsi.c
00000000 l    df *ABS*	00000000 dhcp.c
00000000 l    df *ABS*	00000000 dns.c
00000000 l    df *ABS*	00000000 tftp.c
00000000 l    df *ABS*	00000000 elf.c
00000000 l    df *ABS*	00000000 embedded.c
00000000 l    df *ABS*	00000000 script.c
00000000 l    df *ABS*	00000000 segment.c
00000000 l    df *ABS*	00000000 pci.c
00000000 l    df *ABS*	00000000 pci_settings.c
00000000 l    df *ABS*	00000000 ibft.c
00000000 l    df *ABS*	00000000 scsi.c
00000000 l    df *ABS*	00000000 smbios_settings.c
00000000 l    df *ABS*	00000000 chap.c
00000000 l    df *ABS*	00000000 md5.c
00000000 l    df *ABS*	00000000 strerror.c
00000000 l    df *ABS*	00000000 autoboot_cmd.c
00000000 l    df *ABS*	00000000 config_cmd.c
00000000 l    df *ABS*	00000000 dhcp_cmd.c
00000000 l    df *ABS*	00000000 ifmgmt_cmd.c
00000000 l    df *ABS*	00000000 image_cmd.c
00000000 l    df *ABS*	00000000 login_cmd.c
00000000 l    df *ABS*	00000000 menu_cmd.c
00000000 l    df *ABS*	00000000 nvo_cmd.c
00000000 l    df *ABS*	00000000 reboot_cmd.c
00000000 l    df *ABS*	00000000 route_cmd.c
00000000 l    df *ABS*	00000000 sanboot_cmd.c
00000000 l    df *ABS*	00000000 sync_cmd.c
00000000 l    df *ABS*	00000000 login_ui.c
00000000 l    df *ABS*	00000000 menu_ui.c
00000000 l    df *ABS*	00000000 settings_ui.c
00000000 l    df *ABS*	00000000 clear.c
00000000 l    df *ABS*	00000000 mucurses.c
00000000 l    df *ABS*	00000000 print.c
00000000 l    df *ABS*	00000000 winattrs.c
00000000 l    df *ABS*	00000000 wininit.c
00000000 l    df *ABS*	00000000 editbox.c
00000000 l    df *ABS*	00000000 autoboot.c
00000000 l    df *ABS*	00000000 dhcpmgmt.c
00000000 l    df *ABS*	00000000 ifmgmt.c
00000000 l    df *ABS*	00000000 imgmgmt.c
00000000 l    df *ABS*	00000000 prompt.c
00000000 l    df *ABS*	00000000 pxemenu.c
00000000 l    df *ABS*	00000000 route.c
00000000 l    df *ABS*	00000000 sync.c
00000000 l    df *ABS*	00000000 pci_autoboot.c
00000000 l    df *ABS*	00000000 relocate.c
00000000 l    df *ABS*	00000000 timer2.c
00000000 l    df *ABS*	00000000 biosint.c
00000000 l    df *ABS*	00000000 bios_nap.c
00000000 l    df *ABS*	00000000 bios_timer.c
00000000 l    df *ABS*	00000000 memtop_umalloc.c
00000000 l    df *ABS*	00000000 cpuid.c
00000000 l    df *ABS*	00000000 x86_tcpip.c
00000000 l    df *ABS*	00000000 acpi.c
00000000 l    df *ABS*	00000000 asprintf.c
00000000 l    df *ABS*	00000000 base16.c
00000000 l    df *ABS*	00000000 base64.c
00000000 l    df *ABS*	00000000 basename.c
00000000 l    df *ABS*	00000000 bitmap.c
00000000 l    df *ABS*	00000000 blockdev.c
00000000 l    df *ABS*	00000000 ctype.c
00000000 l    df *ABS*	00000000 cwuri.c
00000000 l    df *ABS*	00000000 downloader.c
00000000 l    df *ABS*	00000000 edd.c
00000000 l    df *ABS*	00000000 getkey.c
00000000 l    df *ABS*	00000000 job.c
00000000 l    df *ABS*	00000000 linebuf.c
00000000 l    df *ABS*	00000000 menu.c
00000000 l    df *ABS*	00000000 monojob.c
00000000 l    df *ABS*	00000000 params.c
00000000 l    df *ABS*	00000000 pending.c
00000000 l    df *ABS*	00000000 random.c
00000000 l    df *ABS*	00000000 resolv.c
00000000 l    df *ABS*	00000000 aoe.c
00000000 l    df *ABS*	00000000 dhcppkt.c
00000000 l    df *ABS*	00000000 fragment.c
00000000 l    df *ABS*	00000000 icmpv4.c
00000000 l    df *ABS*	00000000 socket.c
00000000 l    df *ABS*	00000000 tcp.c
00000000 l    df *ABS*	00000000 ata.c
00000000 l    df *ABS*	00000000 smbios.c
00000000 l    df *ABS*	00000000 editstring.c
00000000 l    df *ABS*	00000000 readline.c
00000000 l    df *ABS*	00000000 shell.c
00000000 l    df *ABS*	00000000 ansi_screen.c
00000000 l    df *ABS*	00000000 route_ipv4.c
00000000 l    df *ABS*	00000000 hidemem.c
00000000 l    df *ABS*	00000000 bios_smbios.c
00000000 l    df *ABS*	00000000 ansicol.c
00000000 l    df *ABS*	00000000 dhcpopts.c
00000000 l    df *ABS*	00000000 icmp.c
00000000 l    df *ABS*	00000000 version.c
00000000 l    df *ABS*	00000000 keymap_us.c
00000000 l    df *ABS*	00000000 config.c
00000000 l    df *ABS*	00000000 pxe_loader.c
00000000 l    df *ABS*	00000000 config_ethernet.c
00000000 l    df *ABS*	00000000 config_route.c
00000000 l    df *ABS*	00000000 basemem_packet.c
00000000 l    df *ABS*	00000000 errno.c
00000000 g       *ABS*	00000000 _prefix_lma
00000001 g       *ABS*	00000000 _assert
00000003 l       *ABS*	00000000 x86_tcpip_loop_step_size
00000007 l       *ABS*	00000000 SegDescCnt
00000008 l       *ABS*	00000000 PM_CS
0000000c l       *ABS*	00000000 ipxeheader_len
00000010 l       *ABS*	00000000 PM_SS
00000010 g       *ABS*	00000000 .hidden _max_align
00000016 l       *ABS*	00000000 undiheader_len
00000018 l       *ABS*	00000000 PM_DS
0000001c l       *ABS*	00000000 pciheader_len
0000001c l       *ABS*	00000000 mpciheader_len
00000020 l       *ABS*	00000000 pnpheader_len
0000002c l       *ABS*	00000000 pxenv_length
00000038 l       *ABS*	00000000 gdt_length
00000038 g       *ABS*	00000000 _pprefix_filesz
00000038 g       *ABS*	00000000 _pprefix_memsz
00000040 g       *ABS*	00000000 _pprefix_skip
00000058 l       *ABS*	00000000 pxe_length
00000096 g       *ABS*	00000000 _text16_memsz_pgh
000000c2 g       *ABS*	00000000 _data16_filesz
000000c4 l       *ABS*	00000000 .hidden embedded_image_1_len
000000f0 g       *ABS*	00000000 _zinfo_memsz
000000f0 g       *ABS*	00000000 _zinfo_filesz
00000200 g       *ABS*	00000000 _payload_align
0000026f g       *ABS*	00000000 _textdata_memsz_kb
000002ac g       *ABS*	00000000 _text16_early_filesz
000002ac g       *ABS*	00000000 _text16_early_memsz
000002cd g       *ABS*	00000000 _data16_memsz_pgh
000006ac g       *ABS*	00000000 _text16_late_filesz
000006ac g       *ABS*	00000000 _text16_late_memsz
0000084b g       *ABS*	00000000 _prefix_memsz
0000084b g       *ABS*	00000000 _prefix_filesz
00000850 g       *ABS*	00000000 _text16_early_lma
0000095c g       *ABS*	00000000 .hidden _text16_memsz
00000c00 g       *ABS*	00000000 _pprefix_lma
00000c40 g       *ABS*	00000000 _text16_late_lma
00000c40 g       *ABS*	00000000 _payload_lma
0000100f g       *ABS*	00000000 pci_device_id
000012f0 g       *ABS*	00000000 _data16_lma
000013c0 g       *ABS*	00000000 _textdata_lma
00002cc8 g       *ABS*	00000000 .hidden _data16_memsz
00008086 g       *ABS*	00000000 pci_vendor_id
00009ba9 g       *ABS*	00000000 _textdata_memsz_pgh
00019874 g       *ABS*	00000000 _textdata_filesz
0001ac34 g       *ABS*	00000000 _filesz
0001ac40 g       *ABS*	00000000 _zinfo_lma
0001ad30 g       *ABS*	00000000 _end_lma
0009ba88 g       *ABS*	00000000 _textdata_memsz
53ba5de5 g       *ABS*	00000000 .hidden _build_timestamp
86613533 g       *ABS*	00000000 .hidden _build_id
00000000 l    d  .prefix	00000000 .prefix
00000000 g       .prefix	00000000 check__mrom_start
00000000 g       .prefix	00000000 _prefix
00000000 g       .prefix	00000000 _mrom_start
00000000 l       .prefix	0000001c romheader
00000002 l       .prefix	00000000 romheader_size
00000006 l       .prefix	00000000 checksum
0000001c l       .prefix	0000001c pciheader
0000002c l       .prefix	00000000 pciheader_image_length
00000032 l       .prefix	00000000 pciheader_runtime_length
00000040 l       .prefix	00000020 pnpheader
00000060 l       .prefix	00000010 mfgstr
00000070 l       .prefix	00000013 prodstr
00000074 l       .prefix	00000000 prodstr_separator
0000007a l       .prefix	00000000 prodstr_pci_id
00000083 g       .prefix	00000016 undiheader
00000099 l       .prefix	0000000c ipxeheader
0000009f l       .prefix	00000000 shrunk_rom_size
000000a1 l       .prefix	00000000 build_id
000000a5 l       .prefix	000001f2 init
00000132 l       .prefix	00000000 pci3_insane
0000013c l       .prefix	00000000 no_pci3
00000148 l       .prefix	00000000 pnp_scan
00000175 l       .prefix	00000000 no_pnp
00000175 l       .prefix	00000000 pnp_done
00000178 l       .prefix	00000000 pmm_scan
0000021c l       .prefix	00000000 no_pmm
00000285 l       .prefix	00000000 no_shell
00000297 l       .prefix	00000054 get_pmm
0000029d l       .prefix	00000000 get_pmm_find
000002bd l       .prefix	00000000 get_pmm_allocate
000002d4 l       .prefix	00000000 get_pmm_done
000002eb l       .prefix	00000017 get_pmm_image_source
00000302 l       .prefix	00000002 get_pmm_decompress_to
00000304 l       .prefix	0000002e init_message
00000332 l       .prefix	00000005 init_message_pci
00000337 l       .prefix	00000005 init_message_pnp
0000033c l       .prefix	00000005 init_message_pmm
00000341 l       .prefix	00000007 init_message_int19
00000348 l       .prefix	0000001c init_message_prompt
00000364 l       .prefix	00000004 init_message_dots
00000368 l       .prefix	00000003 init_message_done
0000036b l       .prefix	00000002 init_pci_busdevfn
0000036d g       .prefix	00000004 image_source
00000371 l       .prefix	00000002 extra_size
00000373 g       .prefix	00000004 decompress_to
00000377 l       .prefix	00000009 bev_entry
00000380 l       .prefix	00000044 int19_entry
000003c4 l       .prefix	00000004 orig_int19
000003c8 l       .prefix	0000001e int19_message_prompt
000003e6 l       .prefix	00000004 int19_message_dots
000003ea l       .prefix	00000003 int19_message_done
000003ed l       .prefix	00000000 exec
00000430 l       .prefix	00000017 exec_message_pre_install
00000447 l       .prefix	00000004 exec_message_post_install
0000044b l       .prefix	0000002c wait_for_key
00000477 l       .prefix	0000001f wait_for_tick
00000496 g       .prefix	0000001f print_character
000004b5 g       .prefix	0000000d print_message
000004c2 g       .prefix	0000000b print_hex_dword
000004cd g       .prefix	00000007 print_hex_word
000004d4 g       .prefix	00000009 print_hex_byte
000004dd g       .prefix	0000000d print_hex_nibble
000004ea g       .prefix	00000021 print_pci_busdevfn
0000050b g       .prefix	00000019 print_kill_line
00000524 l       .prefix	00000008 copy_bytes
0000052c l       .prefix	0000000c zero_bytes
00000538 l       .prefix	00000093 process_bytes
000005cb l       .prefix	00000029 install_block
000005f4 g       .prefix	00000023 alloc_basemem
00000617 g       .prefix	0000001d install
00000634 g       .prefix	00000126 install_prealloc
0000075a l       .prefix	0000002d a20_death_message
00000787 l       .prefix	00000029 payload_death_message
000007b0 g       .prefix	00000000 decompress16
000007c0 l       .prefix	00000000 decompr_literals_n2b
000007c2 l       .prefix	00000000 decompr_loop_n2b
000007c7 l       .prefix	00000000 dcl1_n2b
000007ca l       .prefix	00000000 dcl2_n2b
000007d1 l       .prefix	00000000 loop1_n2b
000007f4 l       .prefix	00000000 decompr_ebpeax_n2b
00000807 l       .prefix	00000000 loop2_n2b
00000816 l       .prefix	00000000 decompr_got_mlen_n2b
00000831 l       .prefix	00000000 getbit1
00000836 l       .prefix	00000000 getbit32
00000842 l       .prefix	00000000 decompr_end_n2b
0000084b g       .prefix	00000000 _mprefix
00000000 l    d  .text16.early	00000000 .text16.early
00000000 l       .text16.early	00000000 pxenv_null_entry
00000000 g       .text16.early	00000000 _text16
00000004 g       .text16.early	00000105 open_payload
00000033 l       .text16.early	00000000 find_mem_bar
00000109 g       .text16.early	00000028 close_payload
00000131 l       .text16.early	00000021 pci_read_bar
00000152 l       .text16.early	0000002b pci_size_mem_bar_low
0000017d l       .text16.early	00000012 pci_read_config_dword
0000018f l       .text16.early	0000000a pci_write_config_dword
00000199 l       .text16.early	0000001b pci_set_mem_access
000001b4 l       .text16.early	0000000a test_a20_short
000001be l       .text16.early	00000032 test_a20_long
000001f0 l       .text16.early	0000000f enable_a20_bios
000001ff l       .text16.early	0000001e enable_a20_kbc
0000021d l       .text16.early	00000020 empty_kbc
0000023d l       .text16.early	0000000e enable_a20_fast
0000024b g       .text16.early	00000000 enable_a20
00000295 g       .text16.early	00000004 access_highmem
00000299 l       .text16.early	00000002 payload_pci_busdevfn
0000029b l       .text16.early	00000004 rom_bar_orig_value
0000029f l       .text16.early	00000004 rom_bar_size
000002a3 l       .text16.early	00000002 stolen_bar_register
000002a5 l       .text16.early	00000004 stolen_bar_orig_value
000002aa l       .text16.early	00000002 enable_a20_method
000002ac g       .text16.early	00000000 _etext16_early
0000084b g       .text16.early	00000000 _eprefix
000002b0 l    d  .text16.late	00000000 .text16.late
000002b0 g       .text16.late	00000000 _text16_late
0000030c g       .text16.late	00000000 init_librm
0000037c l       .text16.late	00000000 set_seg_base
0000038e l       .text16.late	00000000 real_to_prot
000003e8 l       .text16.late	00000000 p2r_rmode
000003f7 l       .text16.late	00000000 p2r_ljmp_rm_cs
000003fa g       .text16.late	00000000 rm_cs
0000040f g       .text16.late	00000000 prot_call
00000438 l       .text16.late	00000000 pc_rmode
0000044c l       .text16.late	00000000 rc_rmode
00000469 g       .text16.late	00000000 flatten_real_mode
0000048b g       .text16.late	00000030 free_basemem
000004bb g       .text16.late	00000004 uninstall
000004ea l       .text16.late	0000000f pxenv_entry
000004f9 l       .text16.late	00000000 pxe_entry_sp
000004f9 l       .text16.late	00000028 pxe_entry
00000501 l       .text16.late	00000000 pxe_entry_esp
00000503 l       .text16.late	00000000 pxe_entry_common
00000521 g       .text16.late	00000000 .hidden pxe_int_1a
0000056f l       .text16.late	00000000 .hidden int13_wrapper
0000062b l       .text16.late	00000000 saved_ebp
0000062f l       .text16.late	00000000 saved_ss
00000631 l       .text16.late	00000000 saved_sp
00000633 l       .text16.late	00000000 saved_retaddr
00000635 l       .text16.late	00000000 .hidden bootsector_exec_fail
0000064c l       .text16.late	0000003b window_region
00000687 l       .text16.late	0000002a patch_1m
000006b1 l       .text16.late	00000026 patch_16m
000006d7 l       .text16.late	0000000e patch_1m_16m
000006e5 l       .text16.late	000000ad get_underlying_e820
00000792 l       .text16.late	00000058 get_windowed_e820
000007ea l       .text16.late	0000002b get_nonempty_e820
00000815 l       .text16.late	0000002a get_mangled_e820
0000083f l       .text16.late	0000000f int15_e820
0000084e l       .text16.late	0000001e int15_e801
0000086c l       .text16.late	00000015 int15_88
00000881 g       .text16.late	00000028 .hidden int15
000008a9 g       .text16.late	00000009 patch_cf
000008b2 g       .text16.late	00000000 rm_ds
000008b4 l       .text16.late	00000000 rm_gdtr
000008ba g       .text16.late	00000002 hooked_bios_interrupts
000008c0 g       .text16.late	00000058 ppxe
000008e0 l       .text16.late	00000000 pxe_segments
00000920 g       .text16.late	0000002c pxenv
0000094c g       .text16.late	00000000 pxe_int_1a_vector
00000950 l     O .text16.late	00000001 num_drives
00000951 l     O .text16.late	00000001 num_fdds
00000954 l     O .text16.late	00000004 int13_vector
00000958 g       .text16.late	00000004 int15_vector
0000095c g       .text16.late	00000000 _mtext16
00000000 l    d  .data16	00000000 .data16
00000000 g       .data16	00000000 _data16
00000010 l       .data16	00000000 gdt
00000010 l       .data16	00000000 gdtr
00000010 l       .data16	00000000 gdt_limit
00000012 l       .data16	00000000 gdt_base
00000018 l       .data16	00000000 virtual_cs
00000020 l       .data16	00000000 virtual_ds
00000028 l       .data16	00000000 physical_cs
00000030 l       .data16	00000000 physical_ds
00000038 l       .data16	00000000 real_cs
00000040 l       .data16	00000000 real_ds
00000048 l       .data16	00000000 gdt_end
00000048 l       .data16	00000000 rc_function
0000004c l       .data16	00000000 rm_virt_offset
00000050 l       .data16	00000000 rm_text16
00000054 l       .data16	00000000 rm_data16
00000058 l       .data16	00000004 init_librm_vector
0000005c l       .data16	00000004 prot_call_vector
00000060 l       .data16	00000004 close_payload_vector
00000064 l     O .data16	0000000b int13_fdd_params
00000070 l     O .data16	00000008 eltorito_cmd
00000080 l       .data16	00000000 memory_windows
00000080 l       .data16	00000000 base_memory_window
00000088 g       .data16	00000000 hidemem_base
00000090 l       .data16	00000000 ext_memory_window
00000098 g       .data16	00000000 hidemem_umalloc
000000a8 g       .data16	00000000 hidemem_textdata
000000c0 l       .data16	00000000 memory_windows_end
000000c0 l       .data16	00000002 underlying_e820_index
000000c2 g       .data16	00000000 _mdata16
0000095c g       .data16	00000000 _etext16
000000d0 l    d  .bss.data16	00000000 .bss.data16
000000d0 l     O .bss.data16	00000058 mbinfo
00000128 l     O .bss.data16	00000080 mbmodules
000001a8 l     O .bss.data16	000000c0 mbmemmap
00000268 l     O .bss.data16	00000020 mb_bootloader_name
00000288 l     O .bss.data16	00000200 mb_cmdlines
00000488 l     O .bss.data16	00000ec4 cached_info
0000134c g     O .bss.data16	000005ea .hidden basemem_packet
00001936 g     O .bss.data16	00000002 .hidden autoboot_busdevfn
00001938 g     O .bss.data16	00000001 .hidden memmap_post
0000193c l     O .bss.data16	00000018 e820buf
00001960 l     O .bss.data16	00000020 eltorito_address
00001980 l     O .bss.data16	00000300 xbftab
00001c80 l       .bss.data16	00000004 underlying_e820_ebx
00001c84 l       .bss.data16	00000040 underlying_e820_cache
00001cc4 l       .bss.data16	00000004 underlying_e820_cache_size
00001cc8 g       .bss.data16	00000000 _stack16
00002cc8 g       .bss.data16	00000000 _estack16
00002cc8 g       .bss.data16	00000000 _edata16
00000000 l    d  .textdata	00000000 .textdata
00000000 g       .textdata	00000000 .hidden _textdata
00000004 g       .textdata	00000000 .hidden setjmp
00000022 g       .textdata	00000000 .hidden longjmp
0000004c g       .textdata	00000000 _virt_to_phys
00000079 g       .textdata	00000000 _phys_to_virt
000000a3 g       .textdata	00000000 _intr_to_virt
000000cc l       .textdata	00000000 r2p_pmode
00000110 l       .textdata	00000000 prot_to_real
00000162 l       .textdata	00000000 pc_pmode
0000017a g       .textdata	00000000 real_call
00000190 l       .textdata	00000000 rc_pmode
00000192 l       .textdata	00000000 flatten_dummy
00000193 g       .textdata	00000000 .hidden interrupt_wrapper
000001b5 l     F .textdata	00000008 intel_write_eeprom
000001bd l     F .textdata	00000022 intel_irq
000001df l     F .textdata	0000001c intel_check_link
000001fb g     F .textdata	00000069 .hidden intel_transmit
00000264 l     F .textdata	00000088 intel_reset.isra.11
000002ec l     F .textdata	00000029 intel_remove
00000315 l     F .textdata	0000018b intel_probe
000004a0 l     F .textdata	00000049 intel_read_eeprom
000004e9 g     F .textdata	00000083 .hidden intel_create_ring
0000056c g     F .textdata	0000004a .hidden intel_destroy_ring
000005b6 g     F .textdata	00000078 .hidden intel_refill_rx
0000062e l     F .textdata	000000b8 intel_open
000006e6 g     F .textdata	00000024 .hidden intel_empty_rx
0000070a l     F .textdata	00000040 intel_close
0000074a g     F .textdata	00000032 .hidden intel_poll_tx
0000077c g     F .textdata	0000005e .hidden intel_poll_rx
000007da l     F .textdata	0000005f intel_poll
00000839 g     F .textdata	00000059 .hidden nvs_read
00000892 l     F .textdata	00000038 bios_handle_cup
000008ca l     F .textdata	00000032 bios_handle_ed
000008fc l     F .textdata	00000068 bios_handle_sgr
00000964 l     F .textdata	00000026 bios_putchar
0000098a l     F .textdata	0000002a bios_iskey
000009b4 l     F .textdata	0000008f bios_getchar
00000a43 l     F .textdata	00000154 bzimage_load_initrd
00000b97 l     F .textdata	0000013b bzimage_parse_header.isra.0
00000cd2 g     F .textdata	0000001a .hidden bzimage_probe
00000cec l     F .textdata	00000444 bzimage_exec
00001130 l     F .textdata	00000039 elfboot_exec
00001169 l     F .textdata	00000034 elfboot_probe
0000119d l     F .textdata	00000016 initrd_startup
000011b3 g     F .textdata	00000175 .hidden initrd_reshuffle
00001328 g     F .textdata	00000030 .hidden initrd_reshuffle_check
00001358 l     F .textdata	00000084 multiboot_add_cmdline
000013dc l     F .textdata	00000079 multiboot_find_header
00001455 l     F .textdata	0000000e multiboot_probe
00001463 l     F .textdata	00000325 multiboot_exec
00001788 l     F .textdata	00000086 pxe_exec
0000180e g     F .textdata	0000001d .hidden pxe_probe
0000182b l     F .textdata	0000000b pxenv_unknown
00001836 l     F .textdata	000000e1 pxe_init_structures
00001917 g     F .textdata	00000087 .hidden pxe_api_call
0000199e g     F .textdata	0000003f .hidden pxe_activate
000019dd g     F .textdata	0000003f .hidden pxe_deactivate
00001a1c g     F .textdata	00000075 .hidden pxe_start_nbp
00001a91 l     F .textdata	0000005c pxenv_file_cmdline
00001aed l     F .textdata	00000072 pxenv_file_exec
00001b5f l     F .textdata	0000002c pxenv_get_file_size
00001b8b l     F .textdata	00000047 pxenv_file_read
00001bd2 l     F .textdata	00000044 pxenv_file_select
00001c16 l     F .textdata	00000015 pxenv_file_close
00001c2b l     F .textdata	00000072 pxenv_file_open
00001c9d l     F .textdata	0000007d pxenv_file_api_check
00001d1a l     F .textdata	00000008 pxenv_unload_stack
00001d22 l     F .textdata	0000000b pxenv_start_base
00001d2d l     F .textdata	00000008 pxenv_stop_base
00001d35 l     F .textdata	00000036 pxenv_stop_undi
00001d6b l     F .textdata	00000069 pxenv_start_undi
00001dd4 l     F .textdata	000000bf pxenv_get_cached_info
00001e93 l     F .textdata	00000042 pxenv_restart_tftp
00001ed5 l     F .textdata	00000004 pxe_tftp_xfer_window
00001ed9 l     F .textdata	0000009d pxenv_tftp_read
00001f76 l     F .textdata	000000ca pxe_tftp_open
00002040 l     F .textdata	00000011 pxe_tftp_close
00002051 l     F .textdata	0000008d pxe_tftp_xfer_deliver
000020de l     F .textdata	00000018 pxenv_tftp_close
000020f6 l     F .textdata	00000082 pxenv_tftp_get_fsize
00002178 l     F .textdata	00000098 pxenv_tftp_open
00002210 g     F .textdata	00000093 .hidden pxenv_tftp_read_file
000022a3 l     F .textdata	0000005b pxenv_udp_read
000022fe l     F .textdata	00000087 pxe_udp_deliver
00002385 l     F .textdata	000000d5 pxenv_udp_write
0000245a l     F .textdata	00000018 pxenv_udp_close
00002472 l     F .textdata	0000003e pxenv_udp_open
000024b0 l     F .textdata	0000001c pxenv_undi_startup
000024cc l     F .textdata	0000001c pxenv_undi_initialize
000024e8 l     F .textdata	0000001c pxenv_undi_set_mcast_address
00002504 l     F .textdata	0000001c pxenv_undi_set_packet_filter
00002520 l     F .textdata	00000038 pxenv_undi_get_statistics
00002558 l     F .textdata	00000040 pxenv_undi_clear_statistics
00002598 l     F .textdata	0000001b pxenv_undi_initiate_diags
000025b3 l     F .textdata	0000001b pxenv_undi_force_interrupt
000025ce l     F .textdata	0000004c pxenv_undi_get_mcast_address
0000261a l     F .textdata	00000095 pxenv_undi_get_nic_type
000026af l     F .textdata	00000086 pxenv_undi_get_information
00002735 l     F .textdata	00000042 pxenv_undi_set_station_address
00002777 l     F .textdata	000001bc pxenv_undi_isr
00002933 l     F .textdata	00000063 pxenv_undi_get_iface_info
00002996 l     F .textdata	000001f0 pxenv_undi_transmit
00002b86 l     F .textdata	0000002b pxe_netdev_close
00002bb1 l     F .textdata	00000026 pxenv_undi_close
00002bd7 l     F .textdata	00000026 pxenv_undi_shutdown
00002bfd l     F .textdata	00000026 pxenv_undi_cleanup
00002c23 l     F .textdata	0000002e pxe_netdev_open
00002c51 l     F .textdata	00000035 pxenv_undi_open
00002c86 l     F .textdata	0000003a pxenv_undi_reset_adapter
00002cc0 g     F .textdata	00000038 .hidden pxe_set_netdev
00002cf8 g     F .textdata	0000001d .hidden __memcpy
00002d15 g     F .textdata	00000011 .hidden __memcpy_reverse
00002d26 g     F .textdata	0000000e .hidden __memmove
00002d34 g     F .textdata	00000011 .hidden memswap
00002d45 g     F .textdata	00000011 .hidden strlen
00002d56 g     F .textdata	0000001c .hidden strncmp
00002d72 l     F .textdata	0000006d cpuid_exec
00002ddf g     F .textdata	000000c9 .hidden ansiesc_process
00002ea8 l     F .textdata	0000002b has_input
00002ed3 g     F .textdata	00000043 .hidden putchar
00002f16 g     F .textdata	0000002b .hidden getchar
00002f41 g     F .textdata	0000000e .hidden iskey
00002f4f g     F .textdata	00000051 .hidden console_configure
00002fa0 g     F .textdata	0000002a .hidden cpio_set_field
00002fca l     F .textdata	00000052 probe_devices
0000301c g     F .textdata	00000031 .hidden identify_device
0000304d l     F .textdata	00000040 remove_devices
0000308d l     F .textdata	00000009 process_on_success
00003096 l     F .textdata	00000009 process_on_failure
0000309f l     F .textdata	00000006 process_always
000030a5 l     F .textdata	0000004f exit_exec
000030f4 l     F .textdata	00000049 split_command
0000313d l     F .textdata	0000002f isset_exec
0000316c l     F .textdata	00000079 sleep_exec
000031e5 l     F .textdata	0000003c iseq_exec
00003221 g     F .textdata	0000008f .hidden execv
000032b0 g     F .textdata	00000006 .hidden shell_stop
000032b6 g     F .textdata	0000001c .hidden shell_stopped
000032d2 g     F .textdata	00000192 .hidden system
00003464 g     F .textdata	00000066 .hidden concat_args
000034ca l     F .textdata	00000061 echo_exec
0000352b l     F .textdata	00000024 get_argv_argument
0000354f g     F .textdata	00000223 .hidden getopt_long
00003772 l     F .textdata	00000035 free_image
000037a7 g     F .textdata	00000028 .hidden image_set_name
000037cf g     F .textdata	00000050 .hidden alloc_image
0000381f g     F .textdata	00000035 .hidden image_set_cmdline
00003854 g     F .textdata	00000022 .hidden unregister_image
00003876 g     F .textdata	0000002f .hidden find_image
000038a5 g     F .textdata	00000034 .hidden image_probe
000038d9 g     F .textdata	00000039 .hidden image_replace
00003912 g     F .textdata	0000003c .hidden image_select
0000394e g     F .textdata	000000a1 .hidden image_exec
000039ef g     F .textdata	0000001d .hidden image_find_selected
00003a0c g     F .textdata	0000006a .hidden register_image
00003a76 g     F .textdata	00000017 .hidden initialise
00003a8d g     F .textdata	00000030 .hidden startup
00003abd g     F .textdata	0000003e .hidden shutdown
00003afb l     F .textdata	00000001 null_intf_close
00003afc g     F .textdata	0000001d .hidden intf_plug
00003b19 g     F .textdata	00000016 .hidden intf_plug_plug
00003b2f g     F .textdata	0000000a .hidden intf_unplug
00003b39 g     F .textdata	00000008 .hidden intf_nullify
00003b41 g     F .textdata	00000008 .hidden intf_put
00003b49 g     F .textdata	00000006 .hidden intf_object
00003b4f g     F .textdata	00000035 .hidden intf_get_dest_op_no_passthru_untyped
00003b84 g     F .textdata	00000034 .hidden intf_get_dest_op_untyped
00003bb8 g     F .textdata	00000012 .hidden intf_restart
00003bca g     F .textdata	0000003b .hidden intf_close
00003c05 g     F .textdata	00000017 .hidden intf_shutdown
00003c1c g     F .textdata	00000078 .hidden alloc_iob_raw
00003c94 g     F .textdata	00000013 .hidden alloc_iob
00003ca7 g     F .textdata	0000002d .hidden free_iob
00003cd4 g     F .textdata	00000012 .hidden iob_ensure_headroom
00003ce6 g     F .textdata	0000000d .hidden extern_list_add
00003cf3 g     F .textdata	0000000e .hidden extern_list_add_tail
00003d01 g     F .textdata	00000037 .hidden main
00003d38 l     F .textdata	0000001d discard_cache
00003d55 l     F .textdata	0000000a shutdown_cache
00003d5f g     F .textdata	0000008b .hidden alloc_memblock
00003dea g     F .textdata	00000098 .hidden free_memblock
00003e82 g     F .textdata	0000005b .hidden realloc
00003edd g     F .textdata	00000009 .hidden malloc
00003ee6 g     F .textdata	00000007 .hidden free
00003eed g     F .textdata	0000001c .hidden zalloc
00003f09 g     F .textdata	00000008 .hidden mpopulate
00003f11 l     F .textdata	0000000f init_heap
00003f20 g     F .textdata	0000006e .hidden largest_memblock
00003f8e g     F .textdata	0000001b .hidden strtoul_charval
00003fa9 g     F .textdata	0000007a .hidden strtoul
00004023 g     F .textdata	00000063 .hidden inet_aton
00004086 g     F .textdata	0000002a .hidden xfer_uri_opener
000040b0 g     F .textdata	00000045 .hidden xfer_open_uri
000040f5 g     F .textdata	0000002f .hidden xfer_open_uri_string
00004124 g     F .textdata	00000037 .hidden xfer_open_socket
0000415b g     F .textdata	00000038 .hidden xfer_vopen
00004193 g     F .textdata	00000020 .hidden xfer_vreopen
000041b3 g     F .textdata	00000005 .hidden parse_string
000041b8 g     F .textdata	00000032 .hidden parse_integer
000041ea g     F .textdata	00000027 .hidden parse_timeout
00004211 g     F .textdata	0000002a .hidden parse_netdev
0000423b g     F .textdata	0000002a .hidden parse_netdev_configurator
00004265 g     F .textdata	0000003b .hidden parse_menu
000042a0 g     F .textdata	00000009 .hidden parse_flag
000042a9 g     F .textdata	00000019 .hidden parse_key
000042c2 g     F .textdata	0000002a .hidden parse_settings
000042ec g     F .textdata	0000002d .hidden parse_setting
00004319 g     F .textdata	0000000a .hidden parse_existing_setting
00004323 g     F .textdata	0000000a .hidden parse_autovivified_setting
0000432d g     F .textdata	000000ab .hidden print_usage
000043d8 g     F .textdata	0000019f .hidden reparse_options
00004577 g     F .textdata	0000002b .hidden parse_options
000045a2 l     F .textdata	00000020 posix_fd_to_file
000045c2 l     F .textdata	00000014 posix_file_finished
000045d6 l     F .textdata	0000003d posix_file_xfer_deliver
00004613 l     F .textdata	00000030 posix_file_free
00004643 g     F .textdata	000000b9 .hidden open
000046fc g     F .textdata	00000066 .hidden select
00004762 g     F .textdata	0000008a .hidden read_user
000047ec g     F .textdata	00000013 .hidden fsize
000047ff g     F .textdata	00000030 .hidden close
0000482f g     F .textdata	0000001e .hidden process_add
0000484d l     F .textdata	0000001c init_processes
00004869 g     F .textdata	0000001c .hidden process_del
00004885 g     F .textdata	0000005d .hidden step
000048e2 g     F .textdata	00000007 .hidden ref_increment
000048e9 g     F .textdata	0000001c .hidden ref_decrement
00004905 g     F .textdata	00000001 .hidden ref_no_free
00004906 l     F .textdata	0000001d apply_settings
00004923  w    F .textdata	00000008 .hidden parse_ipv6_setting
0000492b  w    F .textdata	00000008 .hidden format_ipv6_setting
00004933 l     F .textdata	0000000d builtin_applies
00004940 l     F .textdata	00000012 platform_fetch
00004952 l     F .textdata	00000012 buildarch_fetch
00004964 l     F .textdata	00000016 version_fetch
0000497a l     F .textdata	0000002e format_string_setting
000049a8 l     F .textdata	00000031 parse_string_setting
000049d9 l     F .textdata	00000028 errno_fetch
00004a01 l     F .textdata	0000003f denumerate_int_setting
00004a40 l     F .textdata	0000002e format_uint_setting
00004a6e l     F .textdata	0000002e format_int_setting
00004a9c l     F .textdata	00000068 format_hex_setting
00004b04 l     F .textdata	0000000a format_hex_raw_setting
00004b0e l     F .textdata	0000000a format_hex_hyphen_setting
00004b18 l     F .textdata	0000000a format_hex_colon_setting
00004b22 l     F .textdata	00000009 parse_hex_raw_setting
00004b2b l     F .textdata	0000000c parse_hex_hyphen_setting
00004b37 l     F .textdata	0000000c parse_hex_setting
00004b43 g     F .textdata	00000028 .hidden generic_settings_clear
00004b6b l     F .textdata	00000013 autovivified_settings_free
00004b7e l     F .textdata	00000066 parse_settings_name
00004be4 l     F .textdata	00000006 fetch_string_setting_copy_alloc
00004bea l     F .textdata	00000068 numeric_setting_value
00004c52 l     F .textdata	00000021 numerate_int_setting
00004c73 l     F .textdata	0000003f format_busdevfn_setting
00004cb2 l     F .textdata	0000002d format_uuid_setting
00004cdf l     F .textdata	00000034 parse_int_setting
00004d13 g     F .textdata	0000000a .hidden find_settings
00004d1d g     F .textdata	00000054 .hidden unregister_settings
00004d71 g     F .textdata	00000015 .hidden settings_target
00004d86 g     F .textdata	0000005b .hidden settings_name
00004de1 g     F .textdata	00000045 .hidden find_child_settings
00004e26 g     F .textdata	00000025 .hidden setting_applies
00004e4b g     F .textdata	00000012 .hidden clear_settings
00004e5d g     F .textdata	00000039 .hidden setting_cmp
00004e96 l     F .textdata	0000003c builtin_fetch
00004ed2 g     F .textdata	00000139 .hidden fetch_setting
0000500b l     F .textdata	00000065 fetch_setting_alloc
00005070 g     F .textdata	00000010 .hidden fetch_string_setting_copy
00005080 g     F .textdata	00000015 .hidden fetch_setting_copy
00005095 g     F .textdata	0000000b .hidden fetch_raw_setting_copy
000050a0 g     F .textdata	00000011 .hidden fetch_raw_setting
000050b1 g     F .textdata	00000016 .hidden fetch_uuid_setting
000050c7 g     F .textdata	0000002e .hidden fetch_numeric_setting
000050f5 g     F .textdata	00000011 .hidden fetch_uintz_setting
00005106 g     F .textdata	00000011 .hidden fetch_intz_setting
00005117 l     F .textdata	0000006f reprioritise_settings
00005186 g     F .textdata	00000051 .hidden register_settings
000051d7 l     F .textdata	00000011 builtin_init
000051e8 g     F .textdata	0000009b .hidden autovivify_child_settings
00005283 g     F .textdata	0000001f .hidden fetch_ipv6_array_setting
000052a2 g     F .textdata	00000008 .hidden fetch_ipv6_setting
000052aa g     F .textdata	0000001f .hidden fetch_ipv4_array_setting
000052c9 g     F .textdata	00000008 .hidden fetch_ipv4_setting
000052d1 g     F .textdata	00000030 .hidden fetch_string_setting
00005301 g     F .textdata	00000080 .hidden store_setting
00005381 g     F .textdata	00000062 .hidden generic_settings_fetch
000053e3 g     F .textdata	000000db .hidden generic_settings_store
000054be g     F .textdata	0000001d .hidden setting_format
000054db g     F .textdata	00000019 .hidden setting_parse
000054f4 g     F .textdata	00000019 .hidden setting_numerate
0000550d g     F .textdata	00000019 .hidden setting_denumerate
00005526 g     F .textdata	0000004d .hidden fetchf_setting
00005573 g     F .textdata	00000073 .hidden fetchf_setting_copy
000055e6 g     F .textdata	0000007a .hidden storef_setting
00005660 g     F .textdata	00000049 .hidden fetchn_setting
000056a9 g     F .textdata	0000005e .hidden storen_setting
00005707 g     F .textdata	00000153 .hidden parse_setting_name
0000585a g     F .textdata	00000043 .hidden setting_name
0000589d g     F .textdata	000000d8 .hidden expand_settings
00005975 g     F .textdata	00000010 .hidden strcpy
00005985 g     F .textdata	00000018 .hidden strncpy
0000599d g     F .textdata	00000024 .hidden strcmp
000059c1 g     F .textdata	0000002a .hidden strcasecmp
000059eb g     F .textdata	00000011 .hidden strchr
000059fc g     F .textdata	0000001f .hidden strrchr
00005a1b g     F .textdata	00000014 .hidden strnlen
00005a2f g     F .textdata	00000021 .hidden memcmp
00005a50 g     F .textdata	0000003e .hidden strstr
00005a8e g     F .textdata	00000015 .hidden memchr
00005aa3 g     F .textdata	0000002d .hidden strndup
00005ad0 g     F .textdata	00000008 .hidden strdup
00005ad8 g     F .textdata	00000016 .hidden mdelay
00005aee g     F .textdata	00000018 .hidden sleep
00005b06 l     F .textdata	0000005e uri_copy_fields
00005b64 l     F .textdata	00000013 uri_free
00005b77 g     F .textdata	00000074 .hidden uri_encode
00005beb g     F .textdata	00000208 .hidden parse_uri
00005df3 g     F .textdata	00000017 .hidden uri_port
00005e0a g     F .textdata	000000e6 .hidden format_uri
00005ef0 g     F .textdata	0000002f .hidden format_uri_alloc
00005f1f g     F .textdata	00000038 .hidden uri_dup
00005f57 g     F .textdata	000000c2 .hidden resolve_path
00006019 g     F .textdata	000000a0 .hidden resolve_uri
000060b9 g     F .textdata	0000003b .hidden tftp_uri
000060f4 g     F .textdata	00000063 .hidden uuid_ntoa
00006157 l     F .textdata	0000006e format_hex
000061c5 l     F .textdata	0000000f printf_sputc
000061d4 l     F .textdata	00000007 printf_putchar
000061db g     F .textdata	00000268 .hidden vcprintf
00006443 g     F .textdata	0000003e .hidden vsnprintf
00006481 g     F .textdata	00000017 .hidden snprintf
00006498 g     F .textdata	00000012 .hidden vssnprintf
000064aa g     F .textdata	00000017 .hidden ssnprintf
000064c1 g     F .textdata	00000019 .hidden vprintf
000064da g     F .textdata	0000000e .hidden printf
000064e8 g     F .textdata	00000047 .hidden xfer_deliver
0000652f g     F .textdata	00000029 .hidden xfer_window_changed
00006558 g     F .textdata	00000032 .hidden xfer_window
0000658a g     F .textdata	0000003c .hidden xfer_alloc_iob
000065c6 g     F .textdata	00000088 .hidden xfer_vredirect
0000664e g     F .textdata	00000012 .hidden xfer_redirect
00006660 g     F .textdata	0000000a .hidden xfer_deliver_iob
0000666a g     F .textdata	00000046 .hidden xfer_deliver_raw_meta
000066b0 g     F .textdata	0000000b .hidden xfer_deliver_raw
000066bb g     F .textdata	0000002e .hidden xfer_vprintf
000066e9 g     F .textdata	00000012 .hidden xfer_printf
000066fb g     F .textdata	00000042 .hidden xfer_seek
0000673d l     F .textdata	00000006 arp_ntoa
00006743 l     F .textdata	0000010a arp_rx
0000684d l     F .textdata	000000da arp_tx_request
00006927 g     F .textdata	00000038 .hidden eth_push
0000695f g     F .textdata	0000000c .hidden eth_init_addr
0000696b g     F .textdata	0000000e .hidden eth_eth_addr
00006979 g     F .textdata	00000021 .hidden eth_eui64
0000699a g     F .textdata	00000037 .hidden eth_ntoa
000069d1 g     F .textdata	0000005e .hidden eth_pull
00006a2f g     F .textdata	00000044 .hidden eth_mc_hash
00006a73 g     F .textdata	0000001f .hidden alloc_etherdev
00006a92 l     F .textdata	00000111 eth_slow_rx
00006ba3 l     F .textdata	0000009d copy_encap_settings
00006c40 g     F .textdata	00000021 .hidden create_fakedhcpdiscover
00006c61 g     F .textdata	00000049 .hidden create_fakedhcpack
00006caa g     F .textdata	00000092 .hidden create_fakepxebsack
00006d3c l     F .textdata	00000042 ipv4_route
00006d7e l     F .textdata	0000001b ipv4_netdev
00006d99 l     F .textdata	00000024 ipv4_is_fragment
00006dbd l     F .textdata	0000000b ipv4_more_fragments
00006dc8 l     F .textdata	00000012 ipv4_fragment_offset
00006dda l     F .textdata	0000015c ipv4_create_routes
00006f36 l     F .textdata	00000053 ipv4_pshdr_chksum
00006f89 l     F .textdata	000001be ipv4_tx
00007147 l     F .textdata	00000029 ipv4_arp_check
00007170 l     F .textdata	00000021 ipv4_sock_aton
00007191 g     F .textdata	00000020 .hidden ipv4_has_any_addr
000071b1 l     F .textdata	000001a2 ipv4_rx
00007353 g     F .textdata	00000031 .hidden inet_ntoa
00007384 l     F .textdata	00000008 ipv4_sock_ntoa
0000738c l     F .textdata	00000007 ipv4_ntoa
00007393 g     F .textdata	00000039 .hidden parse_ipv4_setting
000073cc g     F .textdata	0000002d .hidden format_ipv4_setting
000073f9 l     F .textdata	00000048 neighbour_destroy
00007441 l     F .textdata	0000002b neighbour_discard
0000746c l     F .textdata	00000065 neighbour_find
000074d1 l     F .textdata	00000071 neighbour_create
00007542 l     F .textdata	0000003c neighbour_expired
0000757e l     F .textdata	00000013 neighbour_free
00007591 l     F .textdata	00000070 neighbour_discovered
00007601 l     F .textdata	00000032 neighbour_flush
00007633 g     F .textdata	0000008c .hidden neighbour_tx
000076bf g     F .textdata	0000001f .hidden neighbour_update
000076de l     F .textdata	00000024 netdev_notify
00007702 l     F .textdata	00000040 net_discard
00007742 l     F .textdata	00000014 netdev_config_close
00007756 l     F .textdata	00000040 netdev_record_stat
00007796 g     F .textdata	00000009 .hidden netdev_rx_freeze
0000779f g     F .textdata	00000009 .hidden netdev_rx_unfreeze
000077a8 g     F .textdata	00000008 .hidden netdev_link_err
000077b0 g     F .textdata	0000001c .hidden netdev_link_down
000077cc g     F .textdata	00000015 .hidden netdev_tx_err
000077e1 g     F .textdata	00000039 .hidden netdev_tx_complete_err
0000781a g     F .textdata	0000003f .hidden netdev_tx
00007859 g     F .textdata	0000001b .hidden netdev_tx_complete_next_err
00007874 l     F .textdata	0000001d netdev_tx_flush
00007891 g     F .textdata	0000001b .hidden netdev_rx
000078ac g     F .textdata	0000001c .hidden netdev_rx_err
000078c8 g     F .textdata	0000000d .hidden netdev_poll
000078d5 g     F .textdata	0000001f .hidden netdev_rx_dequeue
000078f4 l     F .textdata	00000020 netdev_rx_flush
00007914 l     F .textdata	00000022 free_netdev
00007936 g     F .textdata	000000f4 .hidden alloc_netdev
00007a2a g     F .textdata	000000fa .hidden register_netdev
00007b24 g     F .textdata	0000003f .hidden netdev_open
00007b63 g     F .textdata	0000006f .hidden netdev_close
00007bd2 g     F .textdata	0000004e .hidden unregister_netdev
00007c20 g     F .textdata	0000002a .hidden netdev_irq
00007c4a g     F .textdata	00000028 .hidden find_netdev_by_location
00007c72 g     F .textdata	00000014 .hidden last_opened_netdev
00007c86 g     F .textdata	00000042 .hidden find_netdev
00007cc8 g     F .textdata	00000044 .hidden net_tx
00007d0c g     F .textdata	00000038 .hidden net_rx
00007d44 g     F .textdata	00000097 .hidden net_poll
00007ddb l     F .textdata	00000005 net_step
00007de0  w    F .textdata	00000003 .hidden vlan_tag
00007de3 g     F .textdata	0000002a .hidden find_netdev_configurator
00007e0d g     F .textdata	00000059 .hidden netdev_configure
00007e66 g     F .textdata	00000037 .hidden netdev_configure_all
00007e9d g     F .textdata	00000035 .hidden netdev_configuration_in_progress
00007ed2 g     F .textdata	00000032 .hidden netdev_configuration_ok
00007f04 l     F .textdata	00000011 netdev_redirect_settings_init
00007f15 l     F .textdata	00000016 netdev_redirect
00007f2b l     F .textdata	00000005 netdev_clear
00007f30 l     F .textdata	0000006c netdev_fetch
00007f9c l     F .textdata	0000001c netdev_fetch_chip
00007fb8 l     F .textdata	00000023 netdev_fetch_bustype
00007fdb l     F .textdata	0000002e netdev_store_mac
00008009 l     F .textdata	00000023 netdev_fetch_mac
0000802c l     F .textdata	00000043 netdev_fetch_busid
0000806f l     F .textdata	0000002a netdev_fetch_busloc
00008099 l     F .textdata	0000007b netdev_store
00008114 l     F .textdata	00000006 null_open
0000811a l     F .textdata	00000001 null_close
0000811b l     F .textdata	00000006 null_transmit
00008121 l     F .textdata	00000001 null_poll
00008122 l     F .textdata	00000001 null_irq
00008123 l     F .textdata	00000006 rarp_ntoa
00008129 l     F .textdata	0000000a rarp_rx
00008133 g     F .textdata	00000051 .hidden start_timer
00008184 g     F .textdata	00000011 .hidden start_timer_fixed
00008195 g     F .textdata	00000050 .hidden stop_timer
000081e5 g     F .textdata	0000006f .hidden retry_poll
00008254 l     F .textdata	00000005 retry_step
00008259 g     F .textdata	00000049 .hidden tcpip_rx
000082a2 g     F .textdata	00000046 .hidden tcpip_tx
000082e8 g     F .textdata	00000042 .hidden tcpip_mtu
0000832a g     F .textdata	0000000e .hidden tcpip_chksum
00008338 g     F .textdata	0000006e .hidden tcpip_bind
000083a6 l     F .textdata	0000013e udp_rx
000084e4 l     F .textdata	0000001e udp_close
00008502 l     F .textdata	00000015 udp_xfer_alloc_iob
00008517 l     F .textdata	0000009f udp_xfer_deliver
000085b6 l     F .textdata	000000a4 udp_open_common
0000865a g     F .textdata	00000008 .hidden udp_open
00008662 l     F .textdata	00000050 udp_open_uri
000086b2 l     F .textdata	0000002a udp_port_available
000086dc g     F .textdata	0000000c .hidden udp_open_promisc
000086e8 l     F .textdata	0000000d http_open
000086f5 l     F .textdata	00000004 http_socket_window
000086f9 l     F .textdata	0000000b http_xfer_window
00008704 l     F .textdata	00000003 http_acpi_describe
00008707 l     F .textdata	0000001b http_rx_connection
00008722 l     F .textdata	0000001e http_rx_transfer_encoding
00008740 l     F .textdata	00000039 http_free
00008779 l     F .textdata	0000003a http_digest_param
000087b3 l     F .textdata	000000a8 http_rx_content_length
0000885b l     F .textdata	00000010 http_rx_location
0000886b l     F .textdata	0000005c http_rx_response
000088c7 l     F .textdata	00000255 http_digest_auth
00008b1c l     F .textdata	00000062 http_socket_open
00008b7e l     F .textdata	00000039 http_close
00008bb7 l     F .textdata	00000023 http_rx_basic_auth
00008bda l     F .textdata	0000003a http_rx_retry_after
00008c14 l     F .textdata	0000006e http_rx_chunk_len
00008c82 l     F .textdata	00000050 http_rx_www_authenticate
00008cd2 l     F .textdata	0000008d http_rx_digest_auth
00008d5f l     F .textdata	00000006 http_partial_read.part.13
00008d65 l     F .textdata	0000004f http_block_read_capacity
00008db4 l     F .textdata	00000060 http_block_read
00008e14 l     F .textdata	000000aa http_basic_auth.isra.16
00008ebe l     F .textdata	00000089 http_post_params.isra.17
00008f47 l     F .textdata	00000088 http_done
00008fcf l     F .textdata	0000000e http_socket_close
00008fdd l     F .textdata	000000f4 http_rx_header
000090d1 l     F .textdata	0000013a http_socket_deliver
0000920b l     F .textdata	0000029b http_step
000094a6 l     F .textdata	00000050 http_retry
000094f6 g     F .textdata	000000e3 .hidden http_open_filter
000095d9 l     F .textdata	00000003 iscsi_tx_nothing
000095dc l     F .textdata	00000005 iscsi_rx_discard
000095e1 l     F .textdata	0000001c iscsi_scsi_window
000095fd l     F .textdata	00000019 iscsi_rx_bhs
00009616 l     F .textdata	00000030 iscsi_vredirect
00009646 l     F .textdata	0000000a iscsi_tx_resume
00009650 l     F .textdata	000000cb iscsi_start_data_out
0000971b l     F .textdata	00000051 iscsi_rx_buffered_data
0000976c l     F .textdata	0000001e iscsi_handle_authmethod_value
0000978a l     F .textdata	00000038 iscsi_large_binary_decode
000097c2 l     F .textdata	000000d7 iscsi_handle_chap_r_value
00009899 l     F .textdata	00000076 iscsi_handle_chap_c_value
0000990f l     F .textdata	0000007a iscsi_handle_chap_i_value
00009989 l     F .textdata	0000006b iscsi_free
000099f4 l     F .textdata	00000150 iscsi_build_login_request_strings
00009b44 l     F .textdata	00000092 iscsi_start_login
00009bd6 l     F .textdata	00000117 iscsi_scsi_command
00009ced l     F .textdata	000000ed iscsi_tx_data
00009dda l     F .textdata	00000013 iscsi_tx_bhs
00009ded l     F .textdata	000000b3 iscsi_parse_root_path
00009ea0 l     F .textdata	0000003a iscsi_close
00009eda l     F .textdata	0000010b iscsi_socket_deliver
00009fe5 l     F .textdata	0000002e iscsi_command_close
0000a013 l     F .textdata	000000ee iscsi_tx_step
0000a101 l     F .textdata	0000001c iscsi_handle_chap_n_value
0000a11d l     F .textdata	0000001a iscsi_handle_chap_a_value
0000a137 l     F .textdata	0000004f iscsi_handle_targetaddress_value
0000a186 l     F .textdata	0000007e iscsi_open_connection
0000a204 l     F .textdata	000001f6 iscsi_open
0000a3fa l     F .textdata	00000045 iscsi_scsi_done.constprop.11
0000a43f l     F .textdata	000003d4 iscsi_rx_data
0000a813 l     F .textdata	00000010 dhcp_discovery_tx
0000a823 l     F .textdata	000000ca dhcp_deliver
0000a8ed l     F .textdata	00000042 dhcp_pxebs_tx
0000a92f l     F .textdata	0000002a dhcp_proxy_tx
0000a959 l     F .textdata	00000046 dhcp_set_state
0000a99f l     F .textdata	00000024 dhcp_finished
0000a9c3 l     F .textdata	0000009f dhcp_pxebs_rx
0000aa62 l     F .textdata	0000001a dhcp_timer_expired
0000aa7c l     F .textdata	0000004e dhcp_proxy_rx
0000aaca l     F .textdata	0000001b dhcp_free
0000aae5 g     F .textdata	000000c8 .hidden start_dhcp
0000abad l     F .textdata	0000012d dhcp_discovery_rx
0000acda l     F .textdata	00000044 dhcp_request_tx
0000ad1e l     F .textdata	000000c9 dhcp_request_rx
0000ade7 g     F .textdata	000000db .hidden dhcp_create_packet
0000aec2 g     F .textdata	0000014b .hidden dhcp_create_request
0000b00d l     F .textdata	000000f3 dhcp_tx
0000b100 l     F .textdata	00000044 dhcp_pxebs_expired
0000b144 l     F .textdata	00000030 dhcp_discovery_expired
0000b174 l     F .textdata	00000005 dhcp_request_expired
0000b179 l     F .textdata	00000025 dhcp_proxy_expired
0000b19e g     F .textdata	0000021e .hidden start_pxebs
0000b3bc l     F .textdata	0000004d dns_label
0000b409 l     F .textdata	00000026 dns_send_packet
0000b42f l     F .textdata	00000024 dns_done
0000b453 l     F .textdata	0000000e dns_xfer_close
0000b461 l     F .textdata	00000016 dns_timer_expired
0000b477 g     F .textdata	00000079 .hidden dns_encode
0000b4f0 l     F .textdata	000000d2 apply_dns_settings
0000b5c2 g     F .textdata	000000ae .hidden dns_decode
0000b670 g     F .textdata	000000dd .hidden dns_compare
0000b74d g     F .textdata	00000084 .hidden dns_copy
0000b7d1 l     F .textdata	00000079 dns_question
0000b84a l     F .textdata	0000016b dns_resolv
0000b9b5 g     F .textdata	00000043 .hidden dns_skip
0000b9f8 l     F .textdata	00000020 dns_skip_search
0000ba18 l     F .textdata	0000006b format_dnssl_setting
0000ba83 l     F .textdata	00000286 dns_xfer_deliver
0000bd09 l     F .textdata	00000004 tftp_xfer_window
0000bd0d l     F .textdata	00000057 tftp_reopen
0000bd64 l     F .textdata	00000023 tftp_reopen_mc
0000bd87 l     F .textdata	000000ec tftp_process_multicast
0000be73 l     F .textdata	00000158 tftp_send_packet
0000bfcb l     F .textdata	0000002e tftp_done
0000bff9 l     F .textdata	00000101 tftp_core_open
0000c0fa l     F .textdata	00000012 mtftp_open
0000c10c l     F .textdata	0000000f tftm_open
0000c11b l     F .textdata	0000000f tftpsize_open
0000c12a l     F .textdata	0000000f tftp_open
0000c139 l     F .textdata	00000084 tftp_timer_expired
0000c1bd l     F .textdata	0000001b tftp_free
0000c1d8 l     F .textdata	00000071 tftp_apply_settings
0000c249 l     F .textdata	00000027 tftp_process_tsize
0000c270 l     F .textdata	00000027 tftp_process_blksize
0000c297 l     F .textdata	00000032 tftp_presize.part.7
0000c2c9 l     F .textdata	00000072 tftp_send_error.constprop.9
0000c33b l     F .textdata	00000293 tftp_rx
0000c5ce l     F .textdata	00000009 tftp_socket_deliver
0000c5d7 g     F .textdata	00000141 .hidden elf_load
0000c718 l     F .textdata	00000019 embedded_init
0000c731 l     F .textdata	00000009 terminate_on_label_found
0000c73a l     F .textdata	00000054 prompt_exec
0000c78e l     F .textdata	0000015d process_script
0000c8eb l     F .textdata	0000003c script_exec
0000c927 l     F .textdata	00000021 terminate_on_exit_or_failure
0000c948 l     F .textdata	0000000c script_exec_line
0000c954 l     F .textdata	00000063 script_probe
0000c9b7 l     F .textdata	00000085 goto_exec
0000ca3c l     F .textdata	0000002c goto_find_label
0000ca68 g     F .textdata	00000081 .hidden prep_segment
0000cae9 l     F .textdata	0000004a pci_bar
0000cb33 g     F .textdata	00000054 .hidden adjust_pci_device
0000cb87 g     F .textdata	00000140 .hidden pci_read_config
0000ccc7 g     F .textdata	00000055 .hidden pci_find_next
0000cd1c g     F .textdata	0000005d .hidden pci_find_driver
0000cd79 g     F .textdata	00000007 .hidden pci_probe
0000cd80 g     F .textdata	00000007 .hidden pci_remove
0000cd87 l     F .textdata	0000003f pcibus_remove
0000cdc6 l     F .textdata	00000086 pcibus_probe
0000ce4c l     F .textdata	0000000d pci_settings_applies
0000ce59 l     F .textdata	00000011 pci_settings_init
0000ce6a l     F .textdata	0000007e pci_settings_fetch
0000cee8 l     F .textdata	00000064 ibft_set_ipaddr_setting
0000cf4c l     F .textdata	00000049 ibft_set_string
0000cf95 g     F .textdata	0000030e .hidden ibft_describe
0000d2a3 l     F .textdata	00000032 scsicmd_read_capacity_cmd
0000d2d5 l     F .textdata	00000005 scsicmd_test_unit_ready_cmd
0000d2da l     F .textdata	0000001a scsicmd_close
0000d2f4 l     F .textdata	00000069 scsidev_close
0000d35d l     F .textdata	00000054 scsicmd_write_cmd
0000d3b1 l     F .textdata	00000054 scsicmd_read_cmd
0000d405 l     F .textdata	0000001e scsicmd_free
0000d423 g     F .textdata	0000002f .hidden scsi_response
0000d452 g     F .textdata	00000040 .hidden scsi_command
0000d492 l     F .textdata	0000004b scsicmd_command
0000d4dd l     F .textdata	00000091 scsicmd_read_capacity_done
0000d56e l     F .textdata	000000bb scsidev_command
0000d629 l     F .textdata	00000015 scsidev_read_capacity
0000d63e l     F .textdata	0000000c scsidev_write
0000d64a l     F .textdata	0000000c scsidev_read
0000d656 l     F .textdata	0000003a scsicmd_done
0000d690 l     F .textdata	00000011 scsidev_window
0000d6a1 l     F .textdata	0000002b scsidev_ready
0000d6cc l     F .textdata	00000042 scsidev_step
0000d70e l     F .textdata	00000020 scsicmd_response
0000d72e g     F .textdata	0000005f .hidden scsi_parse_lun
0000d78d g     F .textdata	00000039 .hidden scsi_parse_sense
0000d7c6 g     F .textdata	000000a3 .hidden scsi_open
0000d869 l     F .textdata	0000000d smbios_applies
0000d876 l     F .textdata	00000011 smbios_init
0000d887 l     F .textdata	00000102 smbios_fetch
0000d989 g     F .textdata	00000037 .hidden chap_init
0000d9c0 g     F .textdata	0000000f .hidden chap_update
0000d9cf g     F .textdata	00000010 .hidden chap_respond
0000d9df g     F .textdata	00000016 .hidden chap_finish
0000d9f5 l     F .textdata	00000010 md5_f_0_15
0000da05 l     F .textdata	00000010 md5_f_16_31
0000da15 l     F .textdata	0000000c md5_f_32_47
0000da21 l     F .textdata	0000000e md5_f_48_63
0000da2f l     F .textdata	00000023 md5_init
0000da52 l     F .textdata	000000c6 md5_update
0000db18 l     F .textdata	0000005a md5_final
0000db72 g     F .textdata	0000006c .hidden strerror
0000dbde l     F .textdata	0000000a autoboot_exec
0000dbe8 l     F .textdata	00000005 autoboot_payload
0000dbed l     F .textdata	00000069 config_exec
0000dc56 l     F .textdata	00000080 pxebs_exec
0000dcd6 l     F .textdata	00000008 ifstat_payload
0000dcde l     F .textdata	00000008 ifclose_payload
0000dce6 l     F .textdata	00000005 ifopen_payload
0000dceb l     F .textdata	0000001d ifconf_payload
0000dd08 g     F .textdata	000000ae .hidden ifcommon_exec
0000ddb6 l     F .textdata	0000000a ifstat_exec
0000ddc0 l     F .textdata	0000000a ifclose_exec
0000ddca l     F .textdata	0000000a ifopen_exec
0000ddd4 g     F .textdata	0000000a .hidden ifconf_exec
0000ddde l     F .textdata	00000007 image_clear_cmdline
0000dde5 l     F .textdata	00000141 imgsingle_exec
0000df26 l     F .textdata	0000000a imgargs_exec
0000df30 l     F .textdata	0000000a imgexec_exec
0000df3a l     F .textdata	0000000a imgselect_exec
0000df44 l     F .textdata	0000000a imgfetch_exec
0000df4e l     F .textdata	00000005 imgselect
0000df53 l     F .textdata	00000094 imgmulti_exec
0000dfe7 l     F .textdata	0000000a imgfree_exec
0000dff1 l     F .textdata	0000000a imgstat_exec
0000dffb l     F .textdata	00000028 imgexec
0000e023 l     F .textdata	00000039 login_exec
0000e05c l     F .textdata	000000bd choose_exec
0000e119 l     F .textdata	000000b4 item_exec
0000e1cd l     F .textdata	00000067 menu_exec
0000e234 l     F .textdata	00000009 clear_value
0000e23d l     F .textdata	000000d0 inc_exec
0000e30d l     F .textdata	00000032 read_value
0000e33f l     F .textdata	00000096 set_core_exec
0000e3d5 l     F .textdata	00000010 read_exec
0000e3e5 l     F .textdata	00000010 clear_exec
0000e3f5 l     F .textdata	00000010 set_exec
0000e405 l     F .textdata	0000001b set_value
0000e420 l     F .textdata	000000a7 show_exec
0000e4c7 l     F .textdata	00000023 reboot_exec
0000e4ea l     F .textdata	00000025 route_exec
0000e50f l     F .textdata	0000009a sanboot_core_exec
0000e5a9 l     F .textdata	0000000f sanunhook_exec
0000e5b8 l     F .textdata	0000000f sanboot_exec
0000e5c7 l     F .textdata	0000000f sanhook_exec
0000e5d6 l     F .textdata	0000003b sync_exec
0000e611 g     F .textdata	00000239 .hidden login_ui
0000e84a l     F .textdata	00000190 draw_menu_item
0000e9da l     F .textdata	000000ee draw_menu_items
0000eac8 g     F .textdata	00000377 .hidden show_menu
0000ee3f l     F .textdata	00000018 clearmsg
0000ee57 l     F .textdata	0000005b vmsg
0000eeb2 l     F .textdata	00000012 msg
0000eec4 l     F .textdata	0000002d string_copy
0000eef1 l     F .textdata	00000107 draw_setting_row
0000eff8 l     F .textdata	00000138 select_setting_row
0000f130 l     F .textdata	000000de reveal_setting_row.part.1
0000f20e l     F .textdata	0000009b init_widget
0000f2a9 l     F .textdata	0000000e colour_set.constprop.2
0000f2b7 l     F .textdata	0000004e alert
0000f305 l     F .textdata	00000355 main_loop
0000f65a g     F .textdata	00000030 .hidden settings_ui
0000f68a g     F .textdata	00000031 .hidden wclrtoeol
0000f6bb g     F .textdata	00000014 .hidden erase
0000f6cf l     F .textdata	00000016 _wupdcurs
0000f6e5 g     F .textdata	0000004e .hidden _wputch
0000f733 g     F .textdata	0000000b .hidden _wputc
0000f73e g     F .textdata	0000002f .hidden _wputstr
0000f76d g     F .textdata	0000001f .hidden wmove
0000f78c g     F .textdata	00000010 .hidden curs_set
0000f79c l     F .textdata	0000000d _printw_handler
0000f7a9 g     F .textdata	0000000b .hidden waddnstr
0000f7b4 g     F .textdata	0000001b .hidden vw_printw
0000f7cf g     F .textdata	00000012 .hidden wprintw
0000f7e1 g     F .textdata	00000008 .hidden wattroff
0000f7e9 g     F .textdata	00000006 .hidden wattron
0000f7ef g     F .textdata	00000011 .hidden wattrset
0000f800 g     F .textdata	0000001f .hidden wcolour_set
0000f81f g     F .textdata	00000033 .hidden initscr
0000f852 g     F .textdata	0000005a .hidden endwin
0000f8ac g     F .textdata	00000055 .hidden init_editbox
0000f901 g     F .textdata	000000ef .hidden draw_editbox
0000f9f0 l     F .textdata	00000028 shell_banner
0000fa18 g     F .textdata	00000155 .hidden uriboot
0000fb6d g     F .textdata	000000e5 .hidden fetch_next_server_and_filename
0000fc52 g     F .textdata	0000022a .hidden netboot
0000fe7c g     F .textdata	000000d5 .hidden ipxe
0000ff51 g     F .textdata	0000003b .hidden pxebs
0000ff8c l     F .textdata	00000006 ifpoller_progress
0000ff92 l     F .textdata	00000036 ifstat_errors
0000ffc8 l     F .textdata	0000004f ifconf_progress
00010017 l     F .textdata	00000016 iflinkwait_progress
0001002d g     F .textdata	0000002b .hidden ifopen
00010058 g     F .textdata	00000005 .hidden ifclose
0001005d g     F .textdata	000000c3 .hidden ifstat
00010120 g     F .textdata	0000006d .hidden iflinkwait
0001018d g     F .textdata	000000e8 .hidden ifconf
00010275 g     F .textdata	000000ec .hidden imgdownload
00010361 g     F .textdata	0000003b .hidden imgdownload_string
0001039c g     F .textdata	00000031 .hidden imgacquire
000103cd g     F .textdata	0000007f .hidden imgstat
0001044c g     F .textdata	00000053 .hidden prompt
0001049f l     F .textdata	00000160 pxe_menu_parse
000105ff l     F .textdata	000000b2 pxe_menu_draw_item
000106b1 l     F .textdata	000000f2 pxe_menu_select
000107a3 g     F .textdata	00000161 .hidden pxe_menu_boot
00010904 g     F .textdata	00000031 .hidden route
00010935 l     F .textdata	00000013 sync_progress
00010948 g     F .textdata	0000001c .hidden sync
00010964 l     F .textdata	00000024 pci_autoboot_init
00010988 g     F .textdata	000000d0 .hidden relocate
00010a58 g     F .textdata	00000033 .hidden timer2_udelay
00010a8b g     F .textdata	0000002c .hidden set_interrupt_vector
00010ab7 g     F .textdata	0000004f .hidden init_idt
00010b06 g     F .textdata	0000000e .hidden interrupt
00010b14 g     F .textdata	00000070 .hidden extmemsize
00010b84 g     F .textdata	000001d6 .hidden get_memmap
00010b84 g     F .textdata	000001d6 .hidden x86_get_memmap
00010d5a g     F .textdata	00000048 .hidden hook_bios_interrupt
00010da2 g     F .textdata	00000051 .hidden unhook_bios_interrupt
00010df3 l     F .textdata	00000004 bios_cpu_nap
00010df3 g     F .textdata	00000004 .hidden cpu_nap
00010df7 l     F .textdata	00000027 bios_reboot
00010df7 g     F .textdata	00000027 .hidden reboot
00010e1e l     F .textdata	0000003e bios_currticks
00010e1e g     F .textdata	0000003e .hidden currticks
00010e5c l     F .textdata	00000011 int13_command_capacity
00010e6d l     F .textdata	000000f1 int13_sync_num_drives
00010f5e l     F .textdata	00000003 int13_block_window
00010f61 l     F .textdata	00000020 int13_find
00010f81 l     F .textdata	00000014 int13_block_close
00010f95 l     F .textdata	00000023 int13_reopen_block
00010fb8 l     F .textdata	00000013 int13_free
00010fcb l     F .textdata	0000001b int13_command_close
00010fe6 l     F .textdata	0000000d int13_command_expired
00010ff3 l     F .textdata	00000014 int13_command_wait.isra.6.constprop.10
00011007 l     F .textdata	00000065 int13_command_start.constprop.11
0001106c l     F .textdata	000000d7 int13_rw
00011143 l     F .textdata	000000b6 int13_rw_sectors
000111f9 l     F .textdata	00000103 int13_extended_rw
000112fc l     F .textdata	00000042 int13_read_capacity
0001133e l     F .textdata	000004d4 int13
00011812 l     F .textdata	000002f9 int13_hook
00011812 g     F .textdata	000002f9 .hidden san_hook
00011b0b l     F .textdata	00000058 int13_unhook
00011b0b g     F .textdata	00000058 .hidden san_unhook
00011b63 l     F .textdata	0000015c int13_boot
00011b63 g     F .textdata	0000015c .hidden san_boot
00011cbf l     F .textdata	0000009e int13_describe
00011cbf g     F .textdata	0000009e .hidden san_describe
00011d5d l     F .textdata	0000012b memtop_urealloc
00011d5d g     F .textdata	0000012b .hidden urealloc
00011e88 l     F .textdata	0000001d pcibios_num_bus
00011e88 g     F .textdata	0000001d .hidden pci_num_bus
00011ea5 g     F .textdata	0000002d .hidden pcibios_read
00011ed2 g     F .textdata	00000024 .hidden pcibios_write
00011ef6 g     F .textdata	00000018 .hidden cpuid_is_supported
00011f0e g     F .textdata	0000005b .hidden x86_features
00011f69 g     F .textdata	000000ca .hidden x86_tcpip_continue_chksum
00011fcf l       .textdata	00000000 x86_tcpip_loop_start
00011fff l       .textdata	00000000 .hidden x86_tcpip_loop_end
00012033 g     F .textdata	00000040 .hidden acpi_describe
00012073 g     F .textdata	00000017 .hidden acpi_fix_checksum
0001208a g     F .textdata	0000003c .hidden vasprintf
000120c6 g     F .textdata	00000012 .hidden asprintf
000120d8 g     F .textdata	00000040 .hidden base16_encode
00012118 g     F .textdata	00000070 .hidden hex_decode
00012188 g     F .textdata	0000000c .hidden base16_decode
00012194 g     F .textdata	0000007e .hidden base64_encode
00012212 g     F .textdata	000000c6 .hidden base64_decode
000122d8 g     F .textdata	00000018 .hidden basename
000122f0 g     F .textdata	0000002a .hidden dirname
0001231a g     F .textdata	0000005a .hidden bitmap_resize
00012374 g     F .textdata	00000024 .hidden bitmap_test
00012398 g     F .textdata	00000032 .hidden bitmap_set
000123ca g     F .textdata	0000002f .hidden block_capacity
000123f9 g     F .textdata	0000003a .hidden block_read_capacity
00012433 g     F .textdata	00000050 .hidden block_write
00012483 g     F .textdata	00000050 .hidden block_read
000124d3 g     F .textdata	0000001f .hidden isspace
000124f2 g     F .textdata	00000027 .hidden churi
00012519 l     F .textdata	00000011 downloader_progress
0001252a l     F .textdata	0000001a downloader_finished
00012544 l     F .textdata	0000007e downloader_xfer_deliver
000125c2 l     F .textdata	00000013 downloader_free
000125d5 g     F .textdata	00000084 .hidden create_downloader
00012659 g     F .textdata	00000040 .hidden edd_describe
00012699 l     F .textdata	0000003c getchar_timeout
000126d5 g     F .textdata	0000004a .hidden getkey
0001271f g     F .textdata	00000048 .hidden job_progress
00012767 g     F .textdata	0000000d .hidden buffered_line
00012774 g     F .textdata	00000020 .hidden empty_line_buffer
00012794 g     F .textdata	000000aa .hidden line_buffer
0001283e g     F .textdata	0000009a .hidden add_menu_item
000128d8 g     F .textdata	0000003a .hidden destroy_menu
00012912 g     F .textdata	0000002f .hidden find_menu
00012941 g     F .textdata	00000097 .hidden create_menu
000129d8 l     F .textdata	0000000b monojob_close
000129e3 g     F .textdata	00000182 .hidden monojob_wait
00012b65 g     F .textdata	00000033 .hidden find_parameters
00012b98 g     F .textdata	00000009 .hidden pending_get
00012ba1 g     F .textdata	0000000e .hidden pending_put
00012baf g     F .textdata	00000006 .hidden srandom
00012bb5 g     F .textdata	00000054 .hidden random
00012c09 l     F .textdata	00000003 named_window
00012c0c l     F .textdata	0000001a named_close
00012c26 l     F .textdata	00000083 numeric_resolv
00012ca9 l     F .textdata	00000045 named_resolv_done
00012cee l     F .textdata	0000004a resmux_child_close
00012d38 g     F .textdata	0000002f .hidden resolv_done
00012d67 l     F .textdata	00000020 numeric_step
00012d87 l     F .textdata	00000008 resmux_child_resolv_done
00012d8f g     F .textdata	000000ab .hidden resolv
00012e3a g     F .textdata	00000096 .hidden xfer_open_named_socket
00012ed0 l     F .textdata	00000007 aoecmd_ata_cmd_len
00012ed7 l     F .textdata	00000006 aoecmd_cfg_cmd_len
00012edd l     F .textdata	00000013 aoecmd_cfg_cmd
00012ef0 l     F .textdata	00000020 aoecmd_find_tag
00012f10 l     F .textdata	00000009 aoedev_window
00012f19 l     F .textdata	00000007 aoedev_identify_device
00012f20 l     F .textdata	00000044 aoecmd_close
00012f64 l     F .textdata	00000092 aoecmd_create
00012ff6 l     F .textdata	0000005a aoedev_close
00013050 l     F .textdata	00000013 aoecmd_free
00013063 l     F .textdata	00000013 aoedev_free
00013076 l     F .textdata	000000aa aoecmd_tx
00013120 l     F .textdata	00000016 aoecmd_expired
00013136 l     F .textdata	00000074 aoecmd_ata_cmd
000131aa l     F .textdata	0000003e aoecmd_ata_rsp
000131e8 l     F .textdata	0000002b aoecmd_cfg_rsp
00013213 l     F .textdata	00000055 aoedev_ata_command
00013268 l     F .textdata	000000dc aoe_rx
00013344 l     F .textdata	0000003c aoedev_describe
00013380 l     F .textdata	0000002e aoedev_config_done
000133ae l     F .textdata	00000145 aoe_open
000134f3 l     F .textdata	0000000b used_len_ipv4
000134fe l     F .textdata	00000019 dhcppkt_settings_applies
00013517 l     F .textdata	00000005 used_len_string
0001351c g     F .textdata	0000008e .hidden dhcppkt_store
000135aa l     F .textdata	0000000b dhcppkt_settings_store
000135b5 g     F .textdata	00000083 .hidden dhcppkt_fetch
00013638 l     F .textdata	0000000b dhcppkt_settings_fetch
00013643 g     F .textdata	00000044 .hidden dhcppkt_init
00013687 l     F .textdata	00000028 fragment_expired
000136af g     F .textdata	0000017e .hidden fragment_reassemble
0001382d l     F .textdata	00000061 icmpv4_rx
0001388e g     F .textdata	00000036 .hidden sock_aton
000138c4 l     F .textdata	00000020 tcp_demux
000138e4 l     F .textdata	00000023 tcp_rx_seq
00013907 l     F .textdata	0000004f tcp_discard
00013956 l     F .textdata	0000009e tcp_process_tx_queue
000139f4 l     F .textdata	000000af tcp_rx_ack
00013aa3 l     F .textdata	00000106 tcp_close
00013ba9 l     F .textdata	0000001a tcp_wait_expired
00013bc3 l     F .textdata	00000030 tcp_shutdown
00013bf3 l     F .textdata	0000012c tcp_open
00013d1f l     F .textdata	0000002e tcp_xfer_window
00013d4d l     F .textdata	00000015 tcp_port_available
00013d62 l     F .textdata	00000050 tcp_open_uri
00013db2 l     F .textdata	000001f0 tcp_xmit
00013fa2 l     F .textdata	00000010 tcp_xfer_close
00013fb2 l     F .textdata	00000023 tcp_xfer_deliver
00013fd5 l     F .textdata	00000029 tcp_expired
00013ffe l     F .textdata	00000460 tcp_rx
0001445e l     F .textdata	00000007 atacmd_done
00014465 l     F .textdata	0000000f atacmd_data_buffer
00014474 l     F .textdata	00000003 atacmd_data_none
00014477 l     F .textdata	00000018 atacmd_data_priv
0001448f l     F .textdata	00000017 atadev_edd_describe
000144a6 l     F .textdata	0000001a atacmd_close
000144c0 l     F .textdata	0000005a atadev_close
0001451a l     F .textdata	0000006e atacmd_identify_done
00014588 l     F .textdata	0000001e atacmd_free
000145a6 g     F .textdata	00000040 .hidden ata_command
000145e6 l     F .textdata	0000014a atadev_command
00014730 l     F .textdata	00000018 atadev_read_capacity
00014748 l     F .textdata	0000000c atadev_write
00014754 l     F .textdata	0000000c atadev_read
00014760 g     F .textdata	00000073 .hidden ata_open
000147d3 g     F .textdata	00000074 .hidden find_smbios_entry
00014847 g     F .textdata	000000c8 .hidden find_smbios_structure
0001490f g     F .textdata	00000021 .hidden read_smbios_structure
00014930 g     F .textdata	0000006d .hidden read_smbios_string
0001499d g     F .textdata	0000001f .hidden smbios_version
000149bc l     F .textdata	000000a5 insert_delete
00014a61 g     F .textdata	00000011 .hidden replace_string
00014a72 g     F .textdata	00000117 .hidden edit_string
00014b89 l     F .textdata	0000007c sync_console
00014c05 g     F .textdata	00000017 .hidden history_free
00014c1c g     F .textdata	000001d5 .hidden readline_history
00014df1 l     F .textdata	00000066 help_exec
00014e57 g     F .textdata	0000005e .hidden shell
00014eb5 l     F .textdata	0000001b shell_exec
00014ed0 l     F .textdata	00000019 ansiscr_cursor
00014ee9 l     F .textdata	00000030 ansiscr_movetoyx
00014f19 l     F .textdata	00000005 ansiscr_peek
00014f1e l     F .textdata	00000005 ansiscr_getc
00014f23 l     F .textdata	0000003c ansiscr_exit
00014f5f l     F .textdata	00000048 ansiscr_init
00014fa7 l     F .textdata	00000031 ansiscr_attrs.isra.0
00014fd8 l     F .textdata	00000014 ansiscr_erase
00014fec l     F .textdata	00000035 ansiscr_putc
00015021 l     F .textdata	00000087 route_ipv4_print
000150a8 l     F .textdata	00000039 unhide_etherboot
000150e1 g     F .textdata	00000028 .hidden hide_basemem
00015109 g     F .textdata	0000003a .hidden hide_umalloc
00015143 g     F .textdata	00000047 .hidden hide_textdata
0001518a l     F .textdata	0000008b hide_etherboot
00015215 g     F .textdata	0000007a .hidden call_bootsector
0001528f l     F .textdata	00000057 bios_find_smbios
0001528f g     F .textdata	00000057 .hidden find_smbios
000152e6  w    F .textdata	00000010 .hidden ansicol_set
000152f6 g     F .textdata	00000029 .hidden ansicol_set_pair
0001531f l     F .textdata	0000008b find_dhcp_option_with_encap
000153aa l     F .textdata	000001d6 set_dhcp_option
00015580 g     F .textdata	0000000f .hidden dhcpopt_no_realloc
0001558f g     F .textdata	0000000d .hidden dhcpopt_applies
0001559c g     F .textdata	00000017 .hidden dhcpopt_store
000155b3 g     F .textdata	00000036 .hidden dhcpopt_fetch
000155e9 g     F .textdata	00000050 .hidden dhcpopt_update_used_len
00015639 g     F .textdata	00000014 .hidden dhcpopt_init
0001564d l     F .textdata	00000043 icmp_tx_echo
00015690 g     F .textdata	00000028 .hidden icmp_rx_echo_request
000156b8  w    F .textdata	00000008 .hidden ping_rx
000156c0 g     F .textdata	0000001b .hidden icmp_rx_echo_reply
000156e8 l       .textdata	00000000 .hidden embedded_image_1_data
000157ac l       .textdata	00000000 embedded_image_1_end
000157ac g     O .textdata	00000005 .hidden product_short_name
000157b4 g     O .textdata	0000000e .hidden product_version
00015b1c l     O .textdata	00000058 ansi_sequences
00015b74 l     O .textdata	0000000a bios_attr_fcols.1592
00015b80 l     O .textdata	0000000a bios_attr_bcols.1593
00015bb8 l     O .textdata	00000007 e_ident.2531
00015fd8 l     O .textdata	00000018 setting_type_int_name
00015ff0 l     O .textdata	00000005 buildarch.4102
00015ff8 l     O .textdata	00000007 platform.4109
00016024 l     O .textdata	00000024 escaped.1416
00016048 l     O .textdata	00000009 prefixes.1510
000160c8 l     O .textdata	00000006 eth_slow_address
000161bc l     O .textdata	0000001c bustypes.2436
000161ec l     O .textdata	00000020 empty_sockaddr.2296
00016400 l     O .textdata	00000001 colon.2922
000166b8 l     O .textdata	00000009 dhcp_op
00016768 l     O .textdata	00000005 e_ident.1713
000167c4 l     O .textdata	00000007 ipxe_magic.2167
000167cc l     O .textdata	00000007 gpxe_magic.2168
000168ac l     O .textdata	00000040 r
000168ec l     O .textdata	00000100 k
00017634 l     O .textdata	00000006 primary_check.3015
0001763c l     O .textdata	00000027 boot_check.3017
00017664 l     O .textdata	00000028 int13_fdd_geometries
0001768c l     O .textdata	00000040 base64
00017764 l     O .textdata	00000007 shell_prompt
000177b4 l     O .textdata	00000001 empty_encap.2517
000177b8 l       .textdata	00000000 rm_default_gdtr_idtr
000177c4 g       .textdata	00000000 .hidden rm_sp
000177c6 g       .textdata	00000000 .hidden rm_ss
000177c8 l       .textdata	00000000 pm_esp
000177cc g       .textdata	00000000 .hidden virt_offset
000177d0 g       .textdata	00000000 .hidden text16
000177d4 g       .textdata	00000000 .hidden data16
000177d8 l     O .textdata	00000014 intel_operations
000177ec l     O .textdata	00000570 intel_nics
00017d5c l     O .textdata	00000004 ansi_input
00017d60 l     O .textdata	00000020 bios_ansiesc_ctx
00017d80 l     O .textdata	00000004 bios_attr
00017d84 l     O .textdata	00000020 bios_ansiesc_handlers
00017da4 l     O .textdata	0000000c pxe_dhcp_packet_creators
00017db0 l     O .textdata	0000002c pxe_tftp
00017ddc l     O .textdata	00000010 pxe_tftp_xfer_desc
00017dec l     O .textdata	00000018 pxe_tftp_xfer_ops
00017e04 l     O .textdata	00000030 pxe_udp
00017e34 l     O .textdata	00000010 pxe_udp_xfer_desc
00017e44 l     O .textdata	00000008 pxe_udp_xfer_operations
00017e4c l     O .textdata	0000000c cpuid_cmd
00017e58 l     O .textdata	00000024 cpuid_opts
00017e7c g     O .textdata	00000004 .hidden console_height
00017e80 g     O .textdata	00000004 .hidden console_width
00017e84 g     O .textdata	00000004 .hidden console_usage
00017e88 l     O .textdata	00000008 devices
00017e90 l     O .textdata	0000000c echo_cmd
00017e9c l     O .textdata	0000000c exit_cmd
00017ea8 l     O .textdata	0000000c isset_cmd
00017eb4 l     O .textdata	0000000c iseq_cmd
00017ec0 l     O .textdata	0000000c sleep_cmd
00017ecc l     O .textdata	0000000c echo_opts
00017ed8 g     O .textdata	00000008 .hidden images
00017ee0 g     O .textdata	0000000c .hidden null_intf
00017eec g     O .textdata	00000010 .hidden null_intf_desc
00017efc l     O .textdata	00000008 null_intf_op
00017f04 l     O .textdata	00000008 free_blocks
00017f0c l     O .textdata	00000010 posix_file_xfer_desc
00017f1c l     O .textdata	00000008 posix_files
00017f24 l     O .textdata	00000010 posix_file_xfer_operations
00017f34 l     O .textdata	00000008 run_queue
00017f3c g     O .textdata	0000002c .hidden generic_settings_root
00017f68 g     O .textdata	00000014 .hidden generic_settings_operations
00017f7c l     O .textdata	00000024 builtin_settings
00017fa0 l     O .textdata	00000014 builtin_settings_operations
00017fb4 l     O .textdata	00000006 type_sizes
00017fbc g     O .textdata	00000008 .hidden arp_discovery
00017fc4 g     O .textdata	00000006 .hidden eth_broadcast
00017fcc g     O .textdata	00000008 .hidden ipv4_miniroutes
00017fd4 l     O .textdata	00000018 ipv4_reassembler
00017fec g     O .textdata	00000008 .hidden neighbours
00017ff4 g     O .textdata	00000008 .hidden net_devices
00017ffc l     O .textdata	00000010 netdev_config_desc
0001800c l     O .textdata	00000008 open_net_devices
00018014 l     O .textdata	0000000c net_process_desc
00018020 l     O .textdata	00000008 netdev_config_ops
00018028 g     O .textdata	00000014 .hidden netdev_settings_operations
0001803c l     O .textdata	00000024 netdev_redirect_settings
00018060 l     O .textdata	0000003c netdev_setting_operations
0001809c l     O .textdata	00000014 netdev_redirect_settings_operations
000180b0 g     O .textdata	00000014 .hidden null_netdev_operations
000180c4 l     O .textdata	00000008 timers
000180cc l     O .textdata	0000000c retry_process_desc
000180d8 g     O .textdata	00000004 .hidden udp_sock_dgram
000180dc l     O .textdata	00000010 udp_xfer_desc
000180ec l     O .textdata	00000008 udp_conns
000180f4 l     O .textdata	00000018 udp_xfer_operations
0001810c l     O .textdata	00000010 http_xfer_desc
0001811c l     O .textdata	00000010 http_partial_desc
0001812c l     O .textdata	00000010 http_socket_desc
0001813c l     O .textdata	0000000c http_process_desc
00018148 l     O .textdata	00000014 http_line_handlers
0001815c l     O .textdata	00000038 http_header_handlers
00018194 l     O .textdata	00000018 http_auth_header_handlers
000181ac l     O .textdata	00000028 http_xfer_operations
000181d4 l     O .textdata	00000008 http_partial_operations
000181dc l     O .textdata	00000020 http_socket_operations
000181fc l     O .textdata	00000010 iscsi_control_desc
0001820c l     O .textdata	00000010 iscsi_data_desc
0001821c l     O .textdata	00000010 iscsi_socket_desc
0001822c l     O .textdata	0000000c iscsi_process_desc
00018238 l     O .textdata	00000040 iscsi_string_types
00018278 l     O .textdata	00000020 iscsi_control_op
00018298 l     O .textdata	00000008 iscsi_data_op
000182a0 l     O .textdata	00000020 iscsi_socket_operations
000182c0 l     O .textdata	00000051 dhcp_request_options_data
00018314 l     O .textdata	00000010 dhcp_job_desc
00018324 l     O .textdata	00000010 dhcp_xfer_desc
00018334 l     O .textdata	00000020 dhcp_peer
00018354 l     O .textdata	00000014 dhcp_state_discover
00018368 l     O .textdata	00000014 dhcp_state_request
0001837c l     O .textdata	00000014 dhcp_state_proxy
00018390 l     O .textdata	00000020 peer.3189
000183b0 l     O .textdata	00000014 dhcp_state_pxebs
000183c4 l     O .textdata	00000008 dhcp_job_op
000183cc l     O .textdata	00000008 dhcp_xfer_operations
000183d4 l     O .textdata	00000020 nameserver
000183f4 l     O .textdata	00000010 dns_resolv_desc
00018404 l     O .textdata	00000010 dns_socket_desc
00018414 l     O .textdata	0000000c search_root.2952
00018420 l     O .textdata	00000008 dns_resolv_op
00018428 l     O .textdata	00000010 dns_socket_operations
00018438 l     O .textdata	00000020 tftp_mtftp_socket
00018458 l     O .textdata	00000010 tftp_xfer_desc
00018468 l     O .textdata	00000010 tftp_socket_desc
00018478 l     O .textdata	00000010 tftp_mc_socket_desc
00018488 l     O .textdata	00000020 tftp_options
000184a8 l     O .textdata	00000010 tftp_xfer_operations
000184b8 l     O .textdata	00000008 tftp_socket_operations
000184c0 l     O .textdata	00000008 tftp_mc_socket_operations
000184c8 l     O .textdata	00000030 embedded_images
000184f8 l     O .textdata	0000000c goto_cmd
00018504 l     O .textdata	0000000c prompt_cmd
00018510 l     O .textdata	00000018 prompt_opts
00018528 l     O .textdata	00000008 pci_root_driver
00018530 l     O .textdata	00000024 pci_settings
00018554 l     O .textdata	00000014 pci_settings_operations
00018568 l     O .textdata	00000010 scsidev_block_desc
00018578 l     O .textdata	00000010 scsidev_scsi_desc
00018588 l     O .textdata	00000010 scsidev_ready_desc
00018598 l     O .textdata	0000000c scsidev_process_desc
000185a4 l     O .textdata	00000010 scsicmd_read_capacity
000185b4 l     O .textdata	00000010 scsicmd_block_desc
000185c4 l     O .textdata	00000010 scsicmd_scsi_desc
000185d4 l     O .textdata	00000010 scsicmd_write
000185e4 l     O .textdata	00000010 scsicmd_read
000185f4 l     O .textdata	00000010 scsicmd_test_unit_ready
00018604 l     O .textdata	00000028 scsidev_block_op
0001862c l     O .textdata	00000010 scsidev_scsi_op
0001863c l     O .textdata	00000008 scsidev_ready_op
00018644 l     O .textdata	00000008 scsicmd_block_op
0001864c l     O .textdata	00000010 scsicmd_scsi_op
0001865c l     O .textdata	00000024 smbios_settings
00018680 l     O .textdata	00000014 smbios_settings_operations
00018694 g     O .textdata	0000001c .hidden md5_algorithm
000186b0 l     O .textdata	00000020 md5_steps
000186d0 l     O .textdata	00000008 oid_md5
000186d8 l     O .textdata	00000014 autoboot_cmd
000186ec l     O .textdata	0000000c config_cmd
000186f8 l     O .textdata	0000000c pxebs_cmd
00018704 l     O .textdata	00000014 ifstat_cmd
00018718 l     O .textdata	00000014 ifclose_cmd
0001872c l     O .textdata	00000014 ifopen_cmd
00018740 l     O .textdata	00000014 ifconf_cmd
00018754 l     O .textdata	0000000c ifconf_opts
00018760 g     O .textdata	00000014 .hidden imgargs_desc
00018774 g     O .textdata	00000014 .hidden imgexec_desc
00018788 g     O .textdata	00000014 .hidden imgselect_desc
0001879c g     O .textdata	00000014 .hidden imgfetch_desc
000187b0 l     O .textdata	0000000c imgmulti_cmd
000187bc l     O .textdata	0000000c imgargs_cmd
000187c8 l     O .textdata	0000000c imgexec_cmd
000187d4 l     O .textdata	0000000c imgselect_cmd
000187e0 l     O .textdata	0000000c imgfetch_cmd
000187ec l     O .textdata	00000030 opts
0001881c l     O .textdata	0000000c login_cmd
00018828 l     O .textdata	0000000c choose_cmd
00018834 l     O .textdata	0000000c item_cmd
00018840 l     O .textdata	0000000c menu_cmd
0001884c l     O .textdata	00000030 choose_opts
0001887c l     O .textdata	00000030 item_opts
000188ac l     O .textdata	00000018 menu_opts
000188c4 l     O .textdata	0000000c inc_cmd
000188d0 l     O .textdata	0000000c clear_read_cmd
000188dc l     O .textdata	0000000c set_cmd
000188e8 l     O .textdata	0000000c show_cmd
000188f4 l     O .textdata	0000000c reboot_cmd
00018900 l     O .textdata	0000000c reboot_opts
0001890c l     O .textdata	0000000c route_cmd
00018918 l     O .textdata	0000000c sanunhook_cmd
00018924 l     O .textdata	0000000c sanboot_cmd
00018930 l     O .textdata	0000000c sanhook_cmd
0001893c l     O .textdata	00000024 opts
00018960 l     O .textdata	0000000c sync_cmd
0001896c l     O .textdata	0000000c sync_opts
00018978 g     O .textdata	00000024 .hidden _stdscr
0001899c l     O .textdata	00000018 ifpoller.1965
000189b4 l     O .textdata	00000010 ifpoller_job_desc
000189c4 l     O .textdata	00000008 ifpoller_job_op
000189cc l     O .textdata	0000000c sync_intf
000189d8 l     O .textdata	00000010 sync_intf_desc
000189e8 l     O .textdata	00000008 sync_intf_op
000189f0 g     O .textdata	00000006 .hidden idtr
000189f8 l     O .textdata	00000008 int13s
00018a00 l     O .textdata	00000010 int13_block_desc
00018a10 l     O .textdata	0000003c int13_command
00018a4c l     O .textdata	00000010 int13_block_op
00018a5c l     O .textdata	00000010 int13_command_desc
00018a6c l     O .textdata	00000010 int13_command_op
00018a7c l     O .textdata	00000010 downloader_job_desc
00018a8c l     O .textdata	00000010 downloader_xfer_desc
00018a9c l     O .textdata	00000010 downloader_job_op
00018aac l     O .textdata	00000010 downloader_xfer_operations
00018abc l     O .textdata	00000008 menus
00018ac4 g     O .textdata	0000000c .hidden monojob
00018ad0 l     O .textdata	00000010 monojob_intf_desc
00018ae0 l     O .textdata	00000008 monojob_intf_op
00018ae8 l     O .textdata	00000008 parameters
00018af0 l     O .textdata	0000000c numeric_process_desc
00018afc l     O .textdata	00000010 resmux_child_desc
00018b0c l     O .textdata	00000010 named_xfer_desc
00018b1c l     O .textdata	00000010 named_resolv_desc
00018b2c l     O .textdata	00000010 resmux_child_op
00018b3c l     O .textdata	00000010 named_xfer_ops
00018b4c l     O .textdata	00000010 named_resolv_op
00018b5c l     O .textdata	00000010 aoedev_ata_desc
00018b6c l     O .textdata	00000010 aoedev_config_desc
00018b7c l     O .textdata	0000000c aoecmd_cfg
00018b88 l     O .textdata	0000000c aoecmd_ata
00018b94 l     O .textdata	00000008 aoe_commands
00018b9c l     O .textdata	00000010 aoecmd_ata_desc
00018bac l     O .textdata	00000028 aoedev_ata_op
00018bd4 l     O .textdata	00000008 aoedev_config_op
00018bdc l     O .textdata	00000008 aoecmd_ata_op
00018be4 l     O .textdata	00000030 dhcp_packet_fields
00018c14 l     O .textdata	00000014 dhcppkt_settings_operations
00018c28 g     O .textdata	00000004 .hidden tcp_sock_stream
00018c2c l     O .textdata	00000008 tcp_conns
00018c34 l     O .textdata	00000010 tcp_xfer_desc
00018c44 l     O .textdata	0000000c tcp_process_desc
00018c50 l     O .textdata	00000018 tcp_xfer_operations
00018c68 l     O .textdata	00000010 atadev_block_desc
00018c78 l     O .textdata	00000010 atadev_ata_desc
00018c88 l     O .textdata	00000008 ata_commands
00018c90 l     O .textdata	00000018 atacmd_identify
00018ca8 l     O .textdata	00000010 atacmd_block_desc
00018cb8 l     O .textdata	00000010 atacmd_ata_desc
00018cc8 l     O .textdata	00000018 atacmd_write
00018ce0 l     O .textdata	00000018 atacmd_read
00018cf8 l     O .textdata	00000028 atadev_block_op
00018d20 l     O .textdata	00000008 atadev_ata_op
00018d28 l     O .textdata	00000008 atacmd_block_op
00018d30 l     O .textdata	00000008 atacmd_ata_op
00018d38 l     O .textdata	0000000c shell_cmd
00018d44 g     O .textdata	0000002c .hidden _ansi_screen
00018d70 l     O .textdata	00000010 ansicol_pairs
00018d80 l     O .textdata	00000000 __table_entries.2041
00018d80 g     O .textdata	00000008 .hidden ipv4_arp_protocol
00018d88 l     O .textdata	00000000 __table_entries.2043
00018d88 g     O .textdata	00000014 .hidden oid_md5_algorithm
00018d9c l     O .textdata	00000000 __table_entries.4125
00018d9c g     O .textdata	00000008 .hidden version_builtin_setting
00018da4 g     O .textdata	00000008 .hidden platform_builtin_setting
00018dac g     O .textdata	00000008 .hidden buildarch_builtin_setting
00018db4 g     O .textdata	00000008 .hidden errno_builtin_setting
00018dbc l     O .textdata	00000000 __table_entries.1990
00018dbc l     O .textdata	00000000 __table_entries.4127
00018dbc g     O .textdata	00000004 .hidden net_discarder
00018dc0 g     O .textdata	00000004 .hidden tcp_discarder
00018dc4 g     O .textdata	00000004 .hidden neighbour_discarder
00018dc8 l     O .textdata	00000000 __table_entries.1787
00018dc8 l     O .textdata	00000000 __table_entries.1992
00018dc8 l     O .textdata	00000000 __table_entries.1649
00018dc8 g     O .textdata	00000008 .hidden cpuid_command
00018dd0 g     O .textdata	00000008 .hidden sleep_command
00018dd8 g     O .textdata	00000008 .hidden iseq_command
00018de0 g     O .textdata	00000008 .hidden isset_command
00018de8 g     O .textdata	00000008 .hidden exit_command
00018df0 g     O .textdata	00000008 .hidden echo_command
00018df8 g     O .textdata	00000008 .hidden prompt_command
00018e00 g     O .textdata	00000008 .hidden goto_command
00018e08 g     O .textdata	00000008 .hidden autoboot_commands
00018e10 g     O .textdata	00000008 .hidden config_command
00018e18 g     O .textdata	00000010 .hidden dhcp_commands
00018e28 g     O .textdata	00000020 .hidden ifmgmt_commands
00018e48 g     O .textdata	00000060 .hidden image_commands
00018ea8 g     O .textdata	00000008 .hidden login_command
00018eb0 g     O .textdata	00000018 .hidden menu_commands
00018ec8 g     O .textdata	00000028 .hidden nvo_commands
00018ef0 g     O .textdata	00000008 .hidden reboot_command
00018ef8 g     O .textdata	00000008 .hidden route_commands
00018f00 g     O .textdata	00000018 .hidden sanboot_commands
00018f18 g     O .textdata	00000008 .hidden sync_command
00018f20 g     O .textdata	00000008 .hidden shell_command
00018f28 g     O .textdata	00000008 .hidden help_command
00018f30 l     O .textdata	00000000 __table_entries.1101
00018f30 l     O .textdata	00000000 __table_entries.1090
00018f30 l     O .textdata	00000000 __table_entries.1123
00018f30 l     O .textdata	00000000 __table_entries.1789
00018f30 l     O .textdata	00000000 __table_entries.1651
00018f30 g     O .textdata	00000018 .hidden bios_console
00018f48 l     O .textdata	00000000 __table_entries.1103
00018f48 l     O .textdata	00000000 __table_entries.1092
00018f48 l     O .textdata	00000000 __table_entries.1125
00018f48 l     O .textdata	00000000 __table_entries.3179
00018f48 l     O .textdata	00000000 __table_entries.3175
00018f48 g     O .textdata	00000005 .hidden __dhcp_feature_version
00018f4d g     O .textdata	00000003 .hidden __dhcp_feature_bzimage
00018f50 g     O .textdata	00000003 .hidden __dhcp_feature_elfboot
00018f53 g     O .textdata	00000003 .hidden __dhcp_feature_multiboot
00018f56 g     O .textdata	00000003 .hidden __dhcp_feature_pxe_image
00018f59 g     O .textdata	00000003 .hidden __dhcp_feature_pxe_file
00018f5c g     O .textdata	00000003 .hidden __dhcp_feature_http
00018f5f g     O .textdata	00000003 .hidden __dhcp_feature_iscsi
00018f62 g     O .textdata	00000003 .hidden __dhcp_feature_dns
00018f65 g     O .textdata	00000003 .hidden __dhcp_feature_tftp
00018f68 g     O .textdata	00000003 .hidden __dhcp_feature_menu_cmd
00018f6b g     O .textdata	00000003 .hidden __dhcp_feature_aoe
00018f6e l     O .textdata	00000000 __table_entries.3177
00018f70 l     O .textdata	00000000 __table_entries.1054
00018f70 g     O .textdata	00000020 .hidden netdev_errors
00018f90 g     O .textdata	00000008 .hidden segment_errors
00018f98 g     O .textdata	00000088 .hidden common_errors
00019020 l     O .textdata	00000000 __table_entries.1056
00019020 g     O .textdata	00000004 .hidden __feature_http
00019024 g     O .textdata	00000004 .hidden __feature_iscsi
00019028 g     O .textdata	00000004 .hidden __feature_dns
0001902c g     O .textdata	00000004 .hidden __feature_tftp
00019030 g     O .textdata	00000004 .hidden __feature_aoe
00019034 g     O .textdata	00000004 .hidden __feature_bzimage
00019038 g     O .textdata	00000004 .hidden __feature_elfboot
0001903c g     O .textdata	00000004 .hidden __feature_multiboot
00019040 g     O .textdata	00000004 .hidden __feature_pxe_image
00019044 g     O .textdata	00000004 .hidden __feature_pxe_file
00019048 g     O .textdata	00000004 .hidden __feature_menu_cmd
0001904c l     O .textdata	00000000 __table_entries.1381
0001904c g     O .textdata	0000000c .hidden icmpv4_echo_protocol
00019058 l     O .textdata	00000000 __table_entries.1921
00019058 l     O .textdata	00000000 __table_entries.1383
00019058 g     O .textdata	00000010 .hidden multiboot_image_type
00019068 g     O .textdata	00000010 .hidden bzimage_image_type
00019078 g     O .textdata	00000010 .hidden elfboot_image_type
00019088 g     O .textdata	00000010 .hidden script_image_type
00019098 g     O .textdata	00000010 .hidden pxe_image_type
000190a8 l     O .textdata	00000000 __table_entries.1923
000190a8 l     O .textdata	00000000 __table_entries.1080
000190a8 g     O .textdata	00000004 .hidden heap_init_fn
000190ac g     O .textdata	00000004 .hidden pxe_init_fn
000190b0 g     O .textdata	00000004 .hidden process_init_fn
000190b4 g     O .textdata	00000004 .hidden builtin_init_fn
000190b8 g     O .textdata	00000004 .hidden pci_settings_init_fn
000190bc g     O .textdata	00000004 .hidden smbios_init_fn
000190c0 g     O .textdata	00000004 .hidden pci_autoboot_init_fn
000190c4 g     O .textdata	00000004 .hidden netdev_redirect_settings_init_fn
000190c8 g     O .textdata	00000004 .hidden embedded_init_fn
000190cc l     O .textdata	00000000 __table_entries.1082
000190cc g     O .textdata	00000008 .hidden ipv4_stats_family
000190d4 l     O .textdata	00000000 __table_entries.1620
000190d4 l     O .textdata	00000000 __table_entries.1622
000190d4 g     O .textdata	00000000 .hidden us_mapping
000190d4 g     O .textdata	0000002c .hidden ethernet_protocol
00019100 l     O .textdata	00000000 __table_entries.2358
00019100 l     O .textdata	00000000 __table_entries.2361
00019100 l     O .textdata	00000000 __table_entries.2423
00019100 l     O .textdata	00000000 __table_entries.2595
00019100 l     O .textdata	00000000 __table_entries.2052
00019100 l     O .textdata	00000000 __table_entries.2628
00019100 l     O .textdata	00000000 __table_entries.2644
00019100 l     O .textdata	00000000 __table_entries.1753
00019100 g     O .textdata	0000000c .hidden dhcp_configurator
0001910c l     O .textdata	00000000 __table_entries.2186
0001910c l     O .textdata	00000000 __table_entries.2356
0001910c l     O .textdata	00000000 __table_entries.2363
0001910c l     O .textdata	00000000 __table_entries.2386
0001910c l     O .textdata	00000000 __table_entries.2398
0001910c l     O .textdata	00000000 __table_entries.2421
0001910c l     O .textdata	00000000 __table_entries.2435
0001910c l     O .textdata	00000000 __table_entries.2597
0001910c l     O .textdata	00000000 __table_entries.2630
0001910c l     O .textdata	00000000 __table_entries.2642
0001910c g     O .textdata	00000010 .hidden neighbour_net_driver
0001911c l     O .textdata	00000000 __table_entries.2188
0001911c l     O .textdata	00000000 __table_entries.2388
0001911c l     O .textdata	00000000 __table_entries.2433
0001911c l     O .textdata	00000000 __table_entries.2514
0001911c g     O .textdata	00000010 .hidden arp_protocol
0001912c g     O .textdata	00000010 .hidden eth_slow_protocol
0001913c g     O .textdata	00000010 .hidden ipv4_protocol
0001914c g     O .textdata	00000010 .hidden rarp_protocol
0001915c g     O .textdata	00000010 .hidden aoe_protocol
0001916c l     O .textdata	00000000 __table_entries.2516
0001916c l     O .textdata	00000000 __table_entries.2201
0001916c g     O .textdata	00000010 .hidden intel_driver
0001917c l     O .textdata	00000000 __table_entries.1064
0001917c l     O .textdata	00000000 __table_entries.2203
0001917c g     O .textdata	00000010 .hidden net_process
0001918c g     O .textdata	00000010 .hidden retry_process
0001919c l     O .textdata	00000000 __table_entries.2229
0001919c l     O .textdata	00000000 __table_entries.3089
0001919c l     O .textdata	00000000 __table_entries.1066
0001919c g     O .textdata	00000008 .hidden pxenv_unknown_api
000191a4 g     O .textdata	00000040 .hidden pxe_file_api
000191e4 g     O .textdata	00000038 .hidden pxe_preboot_api
0001921c g     O .textdata	00000028 .hidden pxe_tftp_api
00019244 g     O .textdata	00000020 .hidden pxe_udp_api
00019264 g     O .textdata	000000a0 .hidden pxe_undi_api
00019304 l     O .textdata	00000000 __table_entries.2231
00019304 l     O .textdata	00000000 __table_entries.3091
00019304 l     O .textdata	00000000 __table_entries.1502
00019304 g     O .textdata	00000008 .hidden numeric_resolver
0001930c g     O .textdata	00000008 .hidden dns_resolver
00019314 l     O .textdata	00000000 __table_entries.1243
00019314 l     O .textdata	00000000 __table_entries.1481
00019314 g     O .textdata	00000048 .hidden pci_root_device
0001935c l     O .textdata	00000000 __table_entries.1245
0001935c l     O .textdata	00000000 __table_entries.1597
0001935c g     O .textdata	00000004 .hidden ipv4_routing_family
00019360 l     O .textdata	00000000 __table_entries.3836
00019360 l     O .textdata	00000000 __table_entries.1599
00019360 g     O .textdata	00000014 .hidden setting_type_busdevfn
00019374 g     O .textdata	00000014 .hidden setting_type_uuid
00019388 g     O .textdata	00000014 .hidden setting_type_hexraw
0001939c g     O .textdata	00000014 .hidden setting_type_hexhyp
000193b0 g     O .textdata	00000014 .hidden setting_type_hex
000193c4 g     O .textdata	00000014 .hidden setting_type_uint32
000193d8 g     O .textdata	00000014 .hidden setting_type_uint16
000193ec g     O .textdata	00000014 .hidden setting_type_uint8
00019400 g     O .textdata	00000014 .hidden setting_type_int32
00019414 g     O .textdata	00000014 .hidden setting_type_int16
00019428 g     O .textdata	00000014 .hidden setting_type_int8
0001943c g     O .textdata	00000014 .hidden setting_type_ipv6
00019450 g     O .textdata	00000014 .hidden setting_type_ipv4
00019464 g     O .textdata	00000014 .hidden setting_type_uristring
00019478 g     O .textdata	00000014 .hidden setting_type_string
0001948c g     O .textdata	00000014 .hidden setting_type_dnssl
000194a0 l     O .textdata	00000000 __table_entries.3549
000194a0 l     O .textdata	00000000 __table_entries.3819
000194a0 l     O .textdata	00000000 __table_entries.3856
000194a0 l     O .textdata	00000000 __table_entries.3838
000194a0 l     O .textdata	00000000 __table_entries.2339
000194a0 g     O .textdata	00000014 .hidden busid_setting
000194b4 g     O .textdata	00000014 .hidden busloc_setting
000194c8 g     O .textdata	00000014 .hidden bustype_setting
000194dc g     O .textdata	00000014 .hidden chip_setting
000194f0 g     O .textdata	00000014 .hidden mac_setting
00019504 g     O .textdata	00000014 .hidden gateway_setting
00019518 g     O .textdata	00000014 .hidden ip_setting
0001952c g     O .textdata	00000014 .hidden netmask_setting
00019540 g     O .textdata	00000014 .hidden dns_setting
00019554 g     O .textdata	00000014 .hidden dns6_setting
00019568 g     O .textdata	00000014 .hidden dnssl_setting
0001957c g     O .textdata	00000014 .hidden domain_setting
00019590 g     O .textdata	00000014 .hidden filename_setting
000195a4 g     O .textdata	00000014 .hidden next_server_setting
000195b8 g     O .textdata	00000014 .hidden root_path_setting
000195cc g     O .textdata	00000014 .hidden initiator_iqn_setting
000195e0 g     O .textdata	00000014 .hidden keep_san_setting
000195f4 g     O .textdata	00000014 .hidden skip_san_boot_setting
00019608 g     O .textdata	00000014 .hidden hostname_setting
0001961c g     O .textdata	00000014 .hidden uuid_setting
00019630 g     O .textdata	00000014 .hidden asset_setting
00019644 g     O .textdata	00000014 .hidden board_serial_setting
00019658 g     O .textdata	00000014 .hidden manufacturer_setting
0001966c g     O .textdata	00000014 .hidden product_setting
00019680 g     O .textdata	00000014 .hidden serial_setting
00019694 g     O .textdata	00000014 .hidden user_class_setting
000196a8 g     O .textdata	00000014 .hidden password_setting
000196bc g     O .textdata	00000014 .hidden username_setting
000196d0 g     O .textdata	00000014 .hidden reverse_password_setting
000196e4 g     O .textdata	00000014 .hidden reverse_username_setting
000196f8 g     O .textdata	00000014 .hidden buildarch_setting
0001970c g     O .textdata	00000014 .hidden dhcp_server_setting
00019720 g     O .textdata	00000014 .hidden errno_setting
00019734 g     O .textdata	00000014 .hidden platform_setting
00019748 g     O .textdata	00000014 .hidden priority_setting
0001975c g     O .textdata	00000014 .hidden scriptlet_setting
00019770 g     O .textdata	00000014 .hidden version_setting
00019784 l     O .textdata	00000000 __table_entries.3481
00019784 l     O .textdata	00000000 __table_entries.3551
00019784 l     O .textdata	00000000 __table_entries.3821
00019784 l     O .textdata	00000000 __table_entries.3858
00019784 l     O .textdata	00000000 __table_entries.2341
00019784 g     O .textdata	00000004 .hidden ipv4_settings_applicator
00019788 g     O .textdata	00000004 .hidden dns_applicator
0001978c g     O .textdata	00000004 .hidden tftp_settings_applicator
00019790 l     O .textdata	00000000 __table_entries.3483
00019790 l     O .textdata	00000000 __table_entries.885
00019790 l     O .textdata	00000000 __table_entries.897
00019790 g     O .textdata	0000000c .hidden ipv4_sockaddr_converter
0001979c l     O .textdata	00000000 __table_entries.1426
0001979c l     O .textdata	00000000 __table_entries.887
0001979c l     O .textdata	00000000 __table_entries.899
0001979c g     O .textdata	0000000c .hidden udp_ipv6_socket_opener
000197a8 g     O .textdata	0000000c .hidden udp_ipv4_socket_opener
000197b4 g     O .textdata	0000000c .hidden tcp_ipv6_socket_opener
000197c0 g     O .textdata	0000000c .hidden tcp_ipv4_socket_opener
000197cc l     O .textdata	00000000 __table_entries.1091
000197cc l     O .textdata	00000000 __table_entries.1104
000197cc l     O .textdata	00000000 __table_entries.1428
000197cc g     O .textdata	00000008 .hidden heap_startup_fn
000197d4 g     O .textdata	00000008 .hidden tcp_startup_fn
000197dc g     O .textdata	00000008 .hidden hide_etherboot_startup_fn
000197e4 g     O .textdata	00000008 .hidden startup_devices
000197ec g     O .textdata	00000008 .hidden startup_initrd
000197f4 l     O .textdata	00000000 __table_entries.1093
000197f4 l     O .textdata	00000000 __table_entries.1102
000197f4 l     O .textdata	00000000 __table_entries.2063
000197f4 g     O .textdata	00000014 .hidden ipv4_tcpip_protocol
00019808 l     O .textdata	00000000 __table_entries.2051
00019808 l     O .textdata	00000000 __table_entries.2065
00019808 g     O .textdata	0000000c .hidden udp_protocol
00019814 g     O .textdata	0000000c .hidden icmpv4_protocol
00019820 g     O .textdata	0000000c .hidden tcp_protocol
0001982c l     O .textdata	00000000 __table_entries.1373
0001982c l     O .textdata	00000000 __table_entries.2053
0001982c g     O .textdata	00000008 .hidden udp_uri_opener
00019834 g     O .textdata	00000008 .hidden http_uri_opener
0001983c g     O .textdata	00000008 .hidden iscsi_uri_opener
00019844 g     O .textdata	00000008 .hidden mtftp_uri_opener
0001984c g     O .textdata	00000008 .hidden tftm_uri_opener
00019854 g     O .textdata	00000008 .hidden tftpsize_uri_opener
0001985c g     O .textdata	00000008 .hidden tftp_uri_opener
00019864 g     O .textdata	00000008 .hidden aoe_uri_opener
0001986c g     O .textdata	00000008 .hidden tcp_uri_opener
00019874 l     O .textdata	00000000 __table_entries.1375
00019874 g       .textdata	00000000 .hidden __licence__gpl2_or_later__pxe_entry
00019874 g     O .textdata	00000000 .hidden obj_edd
00019874 g     O .textdata	00000000 .hidden __licence__gpl2_or_later__acpi
00019874 g     O .textdata	00000000 .hidden __licence__gpl2_or_later__netdevice
00019874 g     O .textdata	00000000 .hidden __licence__gpl2_only__bios_nap
00019874 g     O .textdata	00000000 .hidden obj_timer
00019874 g     O .textdata	00000000 .hidden obj_udp
00019874 g     O .textdata	00000000 .hidden __licence__gpl2_or_later__pxe_file
00019874 g     O .textdata	00000000 .hidden __licence__gpl2_only__pxe_image
00019874 g     O .textdata	00000000 .hidden __licence__gpl2_or_later__readline
00019874 g     O .textdata	00000000 .hidden __licence__gpl2_or_later__main
00019874 g     O .textdata	00000000 .hidden __licence__gpl2_or_later__route_cmd
00019874 g     O .textdata	00000000 .hidden __licence__gpl2_only__smbios
00019874 g     O .textdata	00000000 .hidden __licence__gpl2_or_later__dhcppkt
00019874 g     O .textdata	00000000 .hidden __licence__gpl2_or_later__bootsector
00019874 g     O .textdata	00000000 .hidden __licence__gpl2_or_later__ibft
00019874 g       .textdata	00000000 .hidden __licence__gpl2_or_later__liba20
00019874 g     O .textdata	00000000 .hidden obj_basename
00019874 g     O .textdata	00000000 .hidden obj_readline
00019874 g     O .textdata	00000000 .hidden __licence__gpl2_only__base64
00019874 g     O .textdata	00000000 .hidden obj_chap
00019874 g     O .textdata	00000000 .hidden __licence__gpl2_or_later__elfboot
00019874 g     O .textdata	00000000 .hidden __licence__gpl2_only__uri
00019874 g     O .textdata	00000000 .hidden __licence__gpl2_or_later__iobuf
00019874 g     O .textdata	00000000 .hidden __licence__gpl2_or_later__console
00019874 g       .textdata	00000000 .hidden obj_virtaddr
00019874 g     O .textdata	00000000 .hidden __licence__gpl2_only__vsprintf
00019874 g     O .textdata	00000000 .hidden __licence__gpl2_or_later__menu_ui
00019874 g     O .textdata	00000000 .hidden __licence__gpl2_only__monojob
00019874 g     O .textdata	00000000 .hidden __licence__gpl2_or_later__cpio
00019874 g     O .textdata	00000000 .hidden __licence__gpl2_or_later__ipv4
00019874 g     O .textdata	00000000 .hidden __licence__gpl2_or_later__pxe_tftp
00019874 g     O .textdata	00000000 .hidden __licence__gpl2_only__reboot_cmd
00019874 g     O .textdata	00000000 .hidden __licence__gpl2_or_later__vsprintf
00019874 g     O .textdata	00000000 .hidden __licence__gpl2_only__dhcpmgmt
00019874 g       .textdata	00000000 .hidden __licence__gpl2_or_later__libprefix
00019874 g     O .textdata	00000000 .hidden __licence__gpl2_only__parseopt
00019874 g     O .textdata	00000000 .hidden __licence__gpl2_or_later__ifmgmt
00019874 g     O .textdata	00000000 .hidden obj_elf
00019874 g     O .textdata	00000000 .hidden __licence__gpl2_only__iscsi
00019874 g     O .textdata	00000000 .hidden obj_bitmap
00019874 g     O .textdata	00000000 .hidden obj_md5
00019874 g     O .textdata	00000000 .hidden __licence__gpl2_or_later__config_ethernet
00019874 g     O .textdata	00000000 .hidden obj_refcnt
00019874 g     O .textdata	00000000 .hidden obj_ansiesc
00019874 g     O .textdata	00000000 .hidden __licence__gpl2_only__readline
00019874 g     O .textdata	00000000 .hidden __licence__gpl2_or_later__dns
00019874 g     O .textdata	00000000 .hidden __licence__gpl2_only__settings
00019874 g     O .textdata	00000000 .hidden __licence__bsd2__ibft
00019874 g     O .textdata	00000000 .hidden __licence__gpl2_only__sanboot_cmd
00019874 g     O .textdata	00000000 .hidden obj_pxe_udp
00019874 g     O .textdata	00000000 .hidden __licence__gpl2_or_later__editbox
00019874 g     O .textdata	00000000 .hidden obj_bios_timer
00019874 g     O .textdata	00000000 .hidden __licence__gpl2_or_later__aoe
00019874 g     O .textdata	00000000 .hidden __licence__gpl2_or_later__autoboot_cmd
00019874 g     O .textdata	00000000 .hidden __licence__gpl2_or_later__login_ui
00019874 g     O .textdata	00000000 .hidden obj_editbox
00019874 g     O .textdata	00000000 .hidden __licence__gpl2_or_later__prompt
00019874 g     O .textdata	00000000 .hidden obj_dns
00019874 g     O .textdata	00000000 .hidden obj_editstring
00019874 g     O .textdata	00000000 .hidden obj_menu_cmd
00019874 g     O .textdata	00000000 .hidden __licence__gpl2_or_later__nullnet
00019874 g     O .textdata	00000000 .hidden __licence__gpl2_or_later__relocate
00019874 g     O .textdata	00000000 .hidden obj_nvo_cmd
00019874 g     O .textdata	00000000 .hidden obj_aoe
00019874 g     O .textdata	00000000 .hidden __licence__gpl2_only__bootsector
00019874 g     O .textdata	00000000 .hidden __licence__gpl2_only__route_ipv4
00019874 g     O .textdata	00000000 .hidden __licence__gpl2_or_later__sanboot_cmd
00019874 g     O .textdata	00000000 .hidden __licence__gpl2_only__nullnet
00019874 g     O .textdata	00000000 .hidden __licence__gpl2_only__rarp
00019874 g     O .textdata	00000000 .hidden obj_print
00019874 g       .textdata	00000000 .hidden __licence__gpl2_or_later__setjmp
00019874 g     O .textdata	00000000 .hidden __licence__gpl2_or_later__downloader
00019874 g     O .textdata	00000000 .hidden obj_intel
00019874 g     O .textdata	00000000 .hidden obj_pending
00019874 g     O .textdata	00000000 .hidden __licence__gpl2_or_later__biosint
00019874 g     O .textdata	00000000 .hidden __licence__gpl2_or_later__malloc
00019874 g     O .textdata	00000000 .hidden obj_monojob
00019874 g     O .textdata	00000000 .hidden __licence__gpl2_or_later__basename
00019874 g     O .textdata	00000000 .hidden __licence__gpl2_or_later__random
00019874 g     O .textdata	00000000 .hidden __licence__gpl2_only__mucurses
00019874 g     O .textdata	00000000 .hidden __licence__gpl2_or_later__cwuri
00019874 g     O .textdata	00000000 .hidden obj_wininit
00019874 g     O .textdata	00000000 .hidden obj_base64
00019874 g     O .textdata	00000000 .hidden obj_login_cmd
00019874 g     O .textdata	00000000 .hidden __licence__gpl2_only__memmap
00019874 g     O .textdata	00000000 .hidden obj_httpcore
00019874 g     O .textdata	00000000 .hidden obj_biosint
00019874 g     O .textdata	00000000 .hidden __licence__gpl2_or_later__memblock
00019874 g     O .textdata	00000000 .hidden __licence__gpl2_or_later__fakedhcp
00019874 g     O .textdata	00000000 .hidden __licence__gpl2_only__pci_settings
00019874 g     O .textdata	00000000 .hidden __licence__gpl2_only__pxe_call
00019874 g     O .textdata	00000000 .hidden __licence__gpl2_or_later__resolv
00019874 g     O .textdata	00000000 .hidden __licence__gpl2_or_later__tftp
00019874 g     O .textdata	00000000 .hidden __licence__gpl2_only__dhcpopts
00019874 g     O .textdata	00000000 .hidden __licence__gpl2_only__print
00019874 g     O .textdata	00000000 .hidden __licence__gpl2_or_later__sync
00019874 g     O .textdata	00000000 .hidden __licence__gpl2_only__basemem_packet
00019874 g     O .textdata	00000000 .hidden __licence__gpl2_or_later__x86_string
00019874 g     O .textdata	00000000 .hidden obj_blockdev
00019874 g     O .textdata	00000000 .hidden __licence__gpl2_only__relocate
00019874 g     O .textdata	00000000 .hidden obj_timer2
00019874 g     O .textdata	00000000 .hidden __licence__gpl2_only__ifmgmt
00019874 g     O .textdata	00000000 .hidden __licence__gpl2_or_later__ethernet
00019874 g     O .textdata	00000000 .hidden __licence__gpl2_only__downloader
00019874 g     O .textdata	00000000 .hidden __licence__gpl2_or_later__md5
00019874 g     O .textdata	00000000 .hidden obj_xfer
00019874 g     O .textdata	00000000 .hidden __licence__public_domain__keymap_us
00019874 g     O .textdata	00000000 .hidden __licence__gpl2_or_later__init
00019874 g     O .textdata	00000000 .hidden obj_ibft
00019874 g     O .textdata	00000000 .hidden obj_pxe_loader
00019874 g     O .textdata	00000000 .hidden obj_image
00019874 g     O .textdata	00000000 .hidden __licence__gpl2_only__version
00019874 g     O .textdata	00000000 .hidden obj_menu_ui
00019874 g     O .textdata	00000000 .hidden obj_strerror
00019874 g     O .textdata	00000000 .hidden __licence__gpl2_or_later__posix_io
00019874 g     O .textdata	00000000 .hidden obj_uri
00019874 g     O .textdata	00000000 .hidden obj_sanboot_cmd
00019874 g     O .textdata	00000000 .hidden obj_ifmgmt
00019874 g     O .textdata	00000000 .hidden __licence__gpl2_or_later__open
00019874 g     O .textdata	00000000 .hidden __licence__gpl2_only__asprintf
00019874 g     O .textdata	00000000 .hidden __licence__gpl2_or_later__librm_mgmt
00019874 g     O .textdata	00000000 .hidden __licence__gpl2_or_later__menu
00019874 g     O .textdata	00000000 .hidden obj_login_ui
00019874 g     O .textdata	00000000 .hidden obj_bios_nap
00019874 g     O .textdata	00000000 .hidden __licence__gpl2_only__netdev_settings
00019874 g     O .textdata	00000000 .hidden obj_ctype
00019874 g     O .textdata	00000000 .hidden __licence__gpl2_only__iobuf
00019874 g     O .textdata	00000000 .hidden __licence__gpl2_only__init
00019874 g     O .textdata	00000000 .hidden obj_cpuid
00019874 g     O .textdata	00000000 .hidden __licence__gpl2_only__cpio
00019874 g     O .textdata	00000000 .hidden __licence__gpl2_only__process
00019874 g     O .textdata	00000000 .hidden __licence__gpl2_or_later__route_ipv4
00019874 g       .textdata	00000000 .hidden obj_patch_cf
00019874 g     O .textdata	00000000 .hidden __licence__gpl2_only__elfboot
00019874 g     O .textdata	00000000 .hidden __licence__gpl2_only__getopt
00019874 g     O .textdata	00000000 .hidden __licence__gpl2_only__route
00019874 g     O .textdata	00000000 .hidden __licence__gpl2_or_later__blockdev
00019874 g     O .textdata	00000000 .hidden obj_pci
00019874 g     O .textdata	00000000 .hidden __licence__gpl2_or_later__pxe_preboot
00019874 g     O .textdata	00000000 .hidden __licence__gpl2_only__netdevice
00019874 g     O .textdata	00000000 .hidden __licence__gpl2_or_later__pxe_image
00019874 g     O .textdata	00000000 .hidden __licence__gpl2_or_later__pxe_loader
00019874 g     O .textdata	00000000 .hidden __licence__gpl2_or_later__xfer
00019874 g     O .textdata	00000000 .hidden obj_memtop_umalloc
00019874 g     O .textdata	00000000 .hidden __licence__gpl2_only__multiboot
00019874 g     O .textdata	00000000 .hidden __licence__gpl2_only__bios_smbios
00019874 g     O .textdata	00000000 .hidden __licence__gpl2_only__int13
00019874 g     O .textdata	00000000 .hidden obj_iobuf
00019874 g     O .textdata	00000000 .hidden __licence__gpl2_only__login_cmd
00019874 g     O .textdata	00000000 .hidden __licence__gpl2_or_later__getkey
00019874 g     O .textdata	00000000 .hidden obj_clear
00019874 g     O .textdata	00000000 .hidden __licence__gpl2_or_later__sync_cmd
00019874 g     O .textdata	00000000 .hidden __licence__gpl2_only__job
00019874 g     O .textdata	00000000 .hidden __licence__gpl2_only__basename
00019874 g     O .textdata	00000000 .hidden __licence__gpl2_or_later__bios_console
00019874 g     O .textdata	00000000 .hidden obj_route
00019874 g     O .textdata	00000000 .hidden __licence__gpl2_or_later__eth_slow
00019874 g     O .textdata	00000000 .hidden __licence__gpl2_or_later__hidemem
00019874 g       .textdata	00000000 .hidden obj_unnrv2b16
00019874 g     O .textdata	00000000 .hidden __licence__gpl2_or_later__pci_autoboot
00019874 g     O .textdata	00000000 .hidden __licence__gpl2_only__params
00019874 g     O .textdata	00000000 .hidden __licence__gpl2_only__posix_io
00019874 g     O .textdata	00000000 .hidden __licence__gpl2_only__hidemem
00019874 g     O .textdata	00000000 .hidden obj_malloc
00019874 g       .textdata	00000000 .hidden __licence__gpl2_or_later__unnrv2b16
00019874 g     O .textdata	00000000 .hidden __licence__gpl2_or_later__script
00019874 g     O .textdata	00000000 .hidden __licence__gpl2_only__string
00019874 g     O .textdata	00000000 .hidden __licence__gpl2_only__acpi
00019874 g     O .textdata	00000000 .hidden obj_acpi
00019874 g     O .textdata	00000000 .hidden __licence__gpl2_or_later__udp
00019874 g     O .textdata	00000000 .hidden __licence__gpl2_or_later__bios_reboot
00019874 g       .textdata	00000000 .hidden obj_mromprefix
00019874 g     O .textdata	00000000 .hidden __licence__gpl2_only__autoboot
00019874 g     O .textdata	00000000 .hidden __licence__gpl2_or_later__editstring
00019874 g     O .textdata	00000000 .hidden obj_tcp
00019874 g     O .textdata	00000000 .hidden __licence__gpl2_only__imgmgmt
00019874 g     O .textdata	00000000 .hidden __licence__gpl2_or_later__device
00019874 g     O .textdata	00000000 .hidden obj_basemem_packet
00019874 g     O .textdata	00000000 .hidden obj_segment
00019874 g     O .textdata	00000000 .hidden __licence__gpl2_only__chap
00019874 g     O .textdata	00000000 .hidden __licence__gpl2_only__winattrs
00019874 g     O .textdata	00000000 .hidden __licence__bsd3__netdevice
00019874 g     O .textdata	00000000 .hidden __licence__gpl2_only__menu_ui
00019874 g     O .textdata	00000000 .hidden __licence__gpl2_or_later__pending
00019874 g     O .textdata	00000000 .hidden obj_eth_slow
00019874 g     O .textdata	00000000 .hidden __licence__gpl2_or_later__nvo_cmd
00019874 g     O .textdata	00000000 .hidden obj_string
00019874 g     O .textdata	00000000 .hidden __licence__gpl2_or_later__settings
00019874 g       .textdata	00000000 .hidden obj_stack
00019874 g     O .textdata	00000000 .hidden __licence__gpl2_or_later__ansicol
00019874 g     O .textdata	00000000 .hidden __licence__gpl2_only__bios_reboot
00019874 g     O .textdata	00000000 .hidden __licence__gpl2_or_later__nvs
00019874 g     O .textdata	00000000 .hidden obj_autoboot_cmd
00019874 g     O .textdata	00000000 .hidden __licence__gpl2_or_later__dhcpopts
00019874 g     O .textdata	00000000 .hidden __licence__gpl2_only__pxe_udp
00019874 g     O .textdata	00000000 .hidden __licence__gpl2_or_later__shell
00019874 g     O .textdata	00000000 .hidden obj_x86_string
00019874 g     O .textdata	00000000 .hidden obj_retry
00019874 g     O .textdata	00000000 .hidden __licence__gpl2_only__md5
00019874 g     O .textdata	00000000 .hidden __licence__gpl2_only__http
00019874 g     O .textdata	00000000 .hidden __licence__gpl2_only__pxe_tftp
00019874 g     O .textdata	00000000 .hidden __licence__gpl2_or_later__httpcore
00019874 g     O .textdata	00000000 .hidden obj_smbios_settings
00019874 g     O .textdata	00000000 .hidden obj_initrd
00019874 g     O .textdata	00000000 .hidden __licence__gpl2_or_later__socket
00019874 g     O .textdata	00000000 .hidden obj_open
00019874 g     O .textdata	00000000 .hidden __licence__gpl2_only__ansi_screen
00019874 g     O .textdata	00000000 .hidden obj_elfboot
00019874 g     O .textdata	00000000 .hidden __licence__gpl2_only__memtop_umalloc
00019874 g     O .textdata	00000000 .hidden obj_console
00019874 g     O .textdata	00000000 .hidden __licence__gpl2_only__exec
00019874 g     O .textdata	00000000 .hidden __licence__gpl2_only__ipv4
00019874 g     O .textdata	00000000 .hidden obj_init
00019874 g     O .textdata	00000000 .hidden obj_fakedhcp
00019874 g     O .textdata	00000000 .hidden __licence__bsd3__malloc
00019874 g     O .textdata	00000000 .hidden __licence__gpl2_or_later__dhcp
00019874 g     O .textdata	00000000 .hidden __licence__gpl2_only__bios_console
00019874 g     O .textdata	00000000 .hidden __licence__gpl2_or_later__misc
00019874 g     O .textdata	00000000 .hidden __licence__gpl2_only__x86_string
00019874 g     O .textdata	00000000 .hidden obj_cpio
00019874 g     O .textdata	00000000 .hidden obj_settings_ui
00019874 g     O .textdata	00000000 .hidden __licence__gpl2_or_later__pci_settings
00019874 g     O .textdata	00000000 .hidden obj_neighbour
00019874 g     O .textdata	00000000 .hidden __licence__gpl2_or_later__asprintf
00019874 g     O .textdata	00000000 .hidden __licence__gpl2_only__autoboot_cmd
00019874 g     O .textdata	00000000 .hidden __licence__gpl2_only__tftp
00019874 g     O .textdata	00000000 .hidden __licence__gpl2_or_later__getopt
00019874 g     O .textdata	00000000 .hidden obj_posix_io
00019874 g     O .textdata	00000000 .hidden __licence__gpl2_only__pending
00019874 g     O .textdata	00000000 .hidden __licence__gpl2_only__socket
00019874 g     O .textdata	00000000 .hidden obj_nullnet
00019874 g     O .textdata	00000000 .hidden obj_main
00019874 g     O .textdata	00000000 .hidden obj_tcpip
00019874 g     O .textdata	00000000 .hidden __licence__gpl2_only__pxe_file
00019874 g     O .textdata	00000000 .hidden __licence__gpl2_only__menu
00019874 g     O .textdata	00000000 .hidden __licence__gpl2_or_later__pxe_udp
00019874 g     O .textdata	00000000 .hidden __licence__gpl2_or_later__netdev_settings
00019874 g     O .textdata	00000000 .hidden obj_pxe_undi
00019874 g     O .textdata	00000000 .hidden __licence__gpl2_only__editstring
00019874 g     O .textdata	00000000 .hidden __licence__gpl2_or_later__pxe_call
00019874 g     O .textdata	00000000 .hidden __licence__gpl2_only__blockdev
00019874 g     O .textdata	00000000 .hidden __licence__gpl2_only__image
00019874 g     O .textdata	00000000 .hidden obj_ethernet
00019874 g     O .textdata	00000000 .hidden __licence__gpl2_only__ansicol
00019874 g     O .textdata	00000000 .hidden __licence__gpl2_or_later__bios_timer
00019874 g     O .textdata	00000000 .hidden __licence__gpl2_or_later__pci
00019874 g     O .textdata	00000000 .hidden obj_cpuid_cmd
00019874 g     O .textdata	00000000 .hidden obj_version
00019874 g     O .textdata	00000000 .hidden obj_getopt
00019874 g     O .textdata	00000000 .hidden obj_pcibios
00019874 g     O .textdata	00000000 .hidden obj_image_cmd
00019874 g     O .textdata	00000000 .hidden __licence__gpl2_or_later__ansi_screen
00019874 g       .textdata	00000000 .hidden __licence__gpl2_or_later__patch_cf
00019874 g     O .textdata	00000000 .hidden __licence__gpl2_or_later__pxemenu
00019874 g     O .textdata	00000000 .hidden __licence__gpl2_or_later__tcp
00019874 g     O .textdata	00000000 .hidden __licence__gpl2_or_later__edd
00019874 g     O .textdata	00000000 .hidden obj_nvs
00019874 g     O .textdata	00000000 .hidden __licence__gpl2_only__interface
00019874 g     O .textdata	00000000 .hidden obj_ifmgmt_cmd
00019874 g     O .textdata	00000000 .hidden obj_list
00019874 g     O .textdata	00000000 .hidden obj_dhcppkt
00019874 g       .textdata	00000000 .hidden __licence__gpl2_or_later__e820mangler
00019874 g     O .textdata	00000000 .hidden obj_pxemenu
00019874 g     O .textdata	00000000 .hidden obj_getkey
00019874 g     O .textdata	00000000 .hidden __licence__gpl2_or_later__basemem_packet
00019874 g     O .textdata	00000000 .hidden __licence__gpl2_or_later__strerror
00019874 g     O .textdata	00000000 .hidden __licence__gpl2_only__prompt
00019874 g     O .textdata	00000000 .hidden __licence__gpl2_or_later__mucurses
00019874 g     O .textdata	00000000 .hidden __licence__gpl2_or_later__monojob
00019874 g     O .textdata	00000000 .hidden __licence__gpl2_only__ethernet
00019874 g     O .textdata	00000000 .hidden __licence__gpl2_only__neighbour
00019874 g     O .textdata	00000000 .hidden obj_interface
00019874 g     O .textdata	00000000 .hidden __licence__gpl2_only__ansiesc
00019874 g       .textdata	00000000 .hidden obj_stack16
00019874 g     O .textdata	00000000 .hidden __licence__gpl2_only__main
00019874 g     O .textdata	00000000 .hidden __licence__gpl2_only__initrd
00019874 g     O .textdata	00000000 .hidden __licence__gpl2_or_later__list
00019874 g     O .textdata	00000000 .hidden __licence__gpl2_or_later__wininit
00019874 g     O .textdata	00000000 .hidden __licence__gpl2_or_later__cpuid
00019874 g     O .textdata	00000000 .hidden obj_pci_settings
00019874 g     O .textdata	00000000 .hidden obj_icmpv4
00019874 g     O .textdata	00000000 .hidden __licence__gpl2_or_later__clear
00019874 g     O .textdata	00000000 .hidden __licence__gpl2_or_later__scsi
00019874 g     O .textdata	00000000 .hidden obj_bios_console
00019874 g     O .textdata	00000000 .hidden __licence__gpl2_or_later__iscsi
00019874 g     O .textdata	00000000 .hidden __licence__gpl2_or_later__segment
00019874 g     O .textdata	00000000 .hidden __licence__gpl2_only__fakedhcp
00019874 g     O .textdata	00000000 .hidden __licence__gpl2_or_later__int13
00019874 g     O .textdata	00000000 .hidden obj_ipv4
00019874 g     O .textdata	00000000 .hidden __licence__gpl2_or_later__tcpip
00019874 g     O .textdata	00000000 .hidden obj_settings
00019874 g     O .textdata	00000000 .hidden __licence__gpl2_only__dns
00019874 g     O .textdata	00000000 .hidden __licence__gpl2_only__bios_timer
00019874 g     O .textdata	00000000 .hidden __licence__gpl2_only__pxemenu
00019874 g     O .textdata	00000000 .hidden __licence__gpl2_only__nvs
00019874 g     O .textdata	00000000 .hidden __licence__gpl2_or_later__base64
00019874 g     O .textdata	00000000 .hidden obj_dhcpopts
00019874 g     O .textdata	00000000 .hidden obj_mucurses
00019874 g     O .textdata	00000000 .hidden __licence__bsd2__iscsi
00019874 g     O .textdata	00000000 .hidden __licence__gpl2_or_later__neighbour
00019874 g     O .textdata	00000000 .hidden __licence__bsd3__intel
00019874 g     O .textdata	00000000 .hidden __licence__gpl2_or_later__bios_nap
00019874 g     O .textdata	00000000 .hidden __licence__gpl2_or_later__ansiesc
00019874 g     O .textdata	00000000 .hidden __licence__gpl2_or_later__errno
00019874 g     O .textdata	00000000 .hidden __licence__gpl2_only__settings_ui
00019874 g     O .textdata	00000000 .hidden __licence__gpl2_or_later__timer2
00019874 g     O .textdata	00000000 .hidden obj_x86_tcpip
00019874 g     O .textdata	00000000 .hidden __licence__gpl2_only__elf
00019874 g     O .textdata	00000000 .hidden obj_pxe_file
00019874 g     O .textdata	00000000 .hidden obj_smbios
00019874 g     O .textdata	00000000 .hidden obj_autoboot
00019874 g     O .textdata	00000000 .hidden __licence__gpl2_only__nvo_cmd
00019874 g     O .textdata	00000000 .hidden __licence__gpl2_only__bitmap
00019874 g     O .textdata	00000000 .hidden __licence__gpl2_only__edd
00019874 g     O .textdata	00000000 .hidden __licence__gpl2_only__aoe
00019874 g     O .textdata	00000000 .hidden __licence__gpl2_only__linebuf
00019874 g     O .textdata	00000000 .hidden obj_icmp
00019874 g     O .textdata	00000000 .hidden __licence__gpl2_only__icmpv4
00019874 g     O .textdata	00000000 .hidden __licence__gpl2_only__biosint
00019874 g     O .textdata	00000000 .hidden obj_prompt
00019874 g     O .textdata	00000000 .hidden obj_ansi_screen
00019874 g     O .textdata	00000000 .hidden obj_exec
00019874 g     O .textdata	00000000 .hidden __licence__gpl2_or_later__elf
00019874 g     O .textdata	00000000 .hidden __licence__gpl2_only__fragment
00019874 g     O .textdata	00000000 .hidden __licence__gpl2_or_later__image_cmd
00019874 g     O .textdata	00000000 .hidden __licence__gpl2_or_later__intel
00019874 g     O .textdata	00000000 .hidden __licence__gpl2_or_later__ata
00019874 g     O .textdata	00000000 .hidden obj_bzimage
00019874 g     O .textdata	00000000 .hidden __licence__gpl2_only__sync
00019874 g     O .textdata	00000000 .hidden obj_resolv
00019874 g     O .textdata	00000000 .hidden obj_script
00019874 g       .textdata	00000000 .hidden obj_e820mangler
00019874 g     O .textdata	00000000 .hidden obj_scsi
00019874 g     O .textdata	00000000 .hidden __licence__gpl2_only__dhcp
00019874 g     O .textdata	00000000 .hidden __licence__gpl2_or_later__smbios
00019874 g     O .textdata	00000000 .hidden __licence__gpl2_or_later__memmap
00019874 g     O .textdata	00000000 .hidden obj_dhcp_cmd
00019874 g     O .textdata	00000000 .hidden obj_cwuri
00019874 g       .textdata	00000000 .hidden __licence__gpl2_or_later__librm
00019874 g     O .textdata	00000000 .hidden __licence__gpl2_or_later__imgmgmt
00019874 g     O .textdata	00000000 .hidden __licence__gpl2_or_later__http
00019874 g       .textdata	00000000 .hidden obj_librm
00019874 g     O .textdata	00000000 .hidden __licence__gpl2_only__tcp
00019874 g     O .textdata	00000000 .hidden __licence__gpl2_only__timer
00019874 g     O .textdata	00000000 .hidden __licence__gpl2_or_later__cpuid_cmd
00019874 g       .textdata	00000000 .hidden obj_pxe_entry
00019874 g     O .textdata	00000000 .hidden __licence__bsd3__iobuf
00019874 g     O .textdata	00000000 .hidden __licence__gpl2_only__memblock
00019874 g     O .textdata	00000000 .hidden __licence__gpl2_or_later__job
00019874 g     O .textdata	00000000 .hidden __licence__gpl2_only__open
00019874 g     O .textdata	00000000 .hidden __licence__gpl2_or_later__refcnt
00019874 g     O .textdata	00000000 .hidden __licence__gpl2_or_later__icmpv4
00019874 g     O .textdata	00000000 .hidden __licence__gpl2_or_later__linebuf
00019874 g     O .textdata	00000000 .hidden __licence__gpl2_only__librm_mgmt
00019874 g     O .textdata	00000000 .hidden __licence__gpl2_or_later__ifmgmt_cmd
00019874 g     O .textdata	00000000 .hidden __licence__gpl2_or_later__pcibios
00019874 g     O .textdata	00000000 .hidden obj_pxe_preboot
00019874 g     O .textdata	00000000 .hidden __licence__gpl2_only__console
00019874 g     O .textdata	00000000 .hidden obj_config_cmd
00019874 g     O .textdata	00000000 .hidden __licence__gpl2_only__pcibios
00019874 g     O .textdata	00000000 .hidden __licence__gpl2_only__clear
00019874 g     O .textdata	00000000 .hidden __licence__gpl2_or_later__x86_tcpip
00019874 g     O .textdata	00000000 .hidden obj_ansicol
00019874 g     O .textdata	00000000 .hidden obj_tftp
00019874 g     O .textdata	00000000 .hidden __licence__gpl2_only__httpcore
00019874 g     O .textdata	00000000 .hidden obj_errno
00019874 g     O .textdata	00000000 .hidden __licence__gpl2_or_later__pxe_undi
00019874 g     O .textdata	00000000 .hidden obj_fragment
00019874 g     O .textdata	00000000 .hidden __licence__gpl2_or_later__multiboot
00019874 g     O .textdata	00000000 .hidden obj_pci_autoboot
00019874 g     O .textdata	00000000 .hidden __licence__gpl2_only__scsi
00019874 g     O .textdata	00000000 .hidden obj_vsprintf
00019874 g     O .textdata	00000000 .hidden __licence__gpl2_or_later__uri
00019874 g     O .textdata	00000000 .hidden __licence__gpl2_or_later__config
00019874 g     O .textdata	00000000 .hidden __licence__gpl2_only__intel
00019874 g     O .textdata	00000000 .hidden __licence__gpl2_only__cpuid_cmd
00019874 g     O .textdata	00000000 .hidden __licence__gpl2_only__cpuid
00019874 g     O .textdata	00000000 .hidden __licence__gpl2_only__smbios_settings
00019874 g     O .textdata	00000000 .hidden __licence__gpl2_only__cwuri
00019874 g     O .textdata	00000000 .hidden obj_config_ethernet
00019874 g     O .textdata	00000000 .hidden __licence__gpl2_only__route_cmd
00019874 g     O .textdata	00000000 .hidden __licence__gpl2_only__refcnt
00019874 g     O .textdata	00000000 .hidden obj_config
00019874 g     O .textdata	00000000 .hidden obj_menu
00019874 g     O .textdata	00000000 .hidden __licence__bsd3__tcp
00019874 g     O .textdata	00000000 .hidden obj_asprintf
00019874 g     O .textdata	00000000 .hidden __licence__gpl2_or_later__retry
00019874 g     O .textdata	00000000 .hidden __licence__gpl2_or_later__chap
00019874 g     O .textdata	00000000 .hidden __licence__gpl2_only__eth_slow
00019874 g       .textdata	00000000 .hidden obj_liba20
00019874 g     O .textdata	00000000 .hidden obj_route_cmd
00019874 g     O .textdata	00000000 .hidden __licence__gpl2_only__malloc
00019874 g     O .textdata	00000000 .hidden obj_params
00019874 g     O .textdata	00000000 check_obj_intel
00019874 g     O .textdata	00000000 .hidden __licence__gpl2_or_later__initrd
00019874 g     O .textdata	00000000 .hidden __licence__gpl2_or_later__bitmap
00019874 g     O .textdata	00000000 .hidden __licence__gpl2_only__pxe_loader
00019874 g     O .textdata	00000000 .hidden __licence__gpl2_or_later__icmp
00019874 g     O .textdata	00000000 .hidden obj_int13
00019874 g     O .textdata	00000000 .hidden __licence__gpl2_or_later__config_route
00019874 g     O .textdata	00000000 .hidden obj_pxe_image
00019874 g     O .textdata	00000000 .hidden __licence__gpl2_or_later__route
00019874 g     O .textdata	00000000 .hidden __licence__gpl2_only__segment
00019874 g     O .textdata	00000000 .hidden __licence__gpl2_or_later__menu_cmd
00019874 g       .textdata	00000000 .hidden __licence__gpl2_or_later__stack
00019874 g     O .textdata	00000000 .hidden __licence__gpl2_or_later__string
00019874 g     O .textdata	00000000 .hidden obj_dhcp
00019874 g     O .textdata	00000000 .hidden obj_bootsector
00019874 g     O .textdata	00000000 .hidden obj_winattrs
00019874 g     O .textdata	00000000 .hidden obj_memblock
00019874 g     O .textdata	00000000 .hidden __licence__gpl2_only__editbox
00019874 g     O .textdata	00000000 .hidden obj_keymap_us
00019874 g     O .textdata	00000000 .hidden obj_netdev_settings
00019874 g     O .textdata	00000000 .hidden __licence__gpl2_or_later__image
00019874 g     O .textdata	00000000 .hidden obj_sync_cmd
00019874 g     O .textdata	00000000 .hidden __licence__gpl2_only__timer2
00019874 g     O .textdata	00000000 .hidden __licence__gpl2_only__dhcppkt
00019874 g     O .textdata	00000000 .hidden __licence__gpl2_or_later__process
00019874 g     O .textdata	00000000 .hidden obj_parseopt
00019874 g     O .textdata	00000000 .hidden __licence__gpl2_or_later__version
00019874 g     O .textdata	00000000 .hidden obj_reboot_cmd
00019874 g     O .textdata	00000000 .hidden __licence__gpl2_or_later__login_cmd
00019874 g     O .textdata	00000000 .hidden __licence__gpl2_or_later__bzimage
00019874 g     O .textdata	00000000 .hidden __licence__gpl2_or_later__print
00019874 g     O .textdata	00000000 .hidden obj_process
00019874 g     O .textdata	00000000 .hidden __licence__gpl2_only__device
00019874 g     O .textdata	00000000 .hidden obj_embedded
00019874 g     O .textdata	00000000 .hidden __licence__gpl2_only__config_cmd
00019874 g     O .textdata	00000000 .hidden obj_memmap
00019874 g     O .textdata	00000000 .hidden __licence__gpl2_or_later__ctype
00019874 g     O .textdata	00000000 .hidden __licence__gpl2_only__pxe_preboot
00019874 g     O .textdata	00000000 .hidden obj_pxe_call
00019874 g     O .textdata	00000000 .hidden __licence__gpl2_only__shell
00019874 g     O .textdata	00000000 .hidden __licence__gpl2_only__script
00019874 g     O .textdata	00000000 .hidden __licence__gpl2_or_later__parseopt
00019874 g     O .textdata	00000000 .hidden __licence__gpl2_only__ata
00019874 g     O .textdata	00000000 .hidden __licence__gpl2_only__tcpip
00019874 g       .textdata	00000000 .hidden obj_libprefix
00019874 g     O .textdata	00000000 .hidden obj_bios_reboot
00019874 g     O .textdata	00000000 .hidden obj_base16
00019874 g     O .textdata	00000000 .hidden __licence__gpl2_only__resolv
00019874 g     O .textdata	00000000 .hidden obj_netdevice
00019874 g     O .textdata	00000000 .hidden __licence__gpl2_only__sync_cmd
00019874 g     O .textdata	00000000 .hidden obj_uuid
00019874 g     O .textdata	00000000 .hidden __licence__gpl2_only__pxe_undi
00019874 g     O .textdata	00000000 .hidden __licence__gpl2_only__ifmgmt_cmd
00019874 g     O .textdata	00000000 .hidden __licence__gpl2_only__xfer
00019874 g     O .textdata	00000000 .hidden __licence__gpl2_or_later__settings_ui
00019874 g     O .textdata	00000000 .hidden __licence__gpl2_only__base16
00019874 g     O .textdata	00000000 .hidden obj_route_ipv4
00019874 g     O .textdata	00000000 .hidden obj_iscsi
00019874 g     O .textdata	00000000 .hidden obj_sync
00019874 g     O .textdata	00000000 .hidden obj_hidemem
00019874 g     O .textdata	00000000 .hidden __licence__gpl2_or_later__dhcpmgmt
00019874 g     O .textdata	00000000 .hidden __licence__gpl2_or_later__bios_smbios
00019874 g     O .textdata	00000000 .hidden __licence__gpl2_or_later__dhcp_cmd
00019874 g     O .textdata	00000000 .hidden __licence__gpl2_only__embedded
00019874 g     O .textdata	00000000 .hidden obj_linebuf
00019874 g     O .textdata	00000000 .hidden __licence__gpl2_only__strerror
00019874 g     O .textdata	00000000 .hidden __licence__gpl2_only__icmp
00019874 g     O .textdata	00000000 .hidden __licence__gpl2_or_later__uuid
00019874 g     O .textdata	00000000 .hidden __licence__gpl2_only__list
00019874 g     O .textdata	00000000 .hidden obj_ata
00019874 g     O .textdata	00000000 .hidden obj_config_route
00019874 g     O .textdata	00000000 .hidden __licence__gpl2_or_later__smbios_settings
00019874 g     O .textdata	00000000 .hidden __licence__gpl2_only__ibft
00019874 g     O .textdata	00000000 .hidden __licence__gpl2_only__bzimage
00019874 g     O .textdata	00000000 .hidden __licence__gpl2_only__arp
00019874 g     O .textdata	00000000 .hidden __licence__gpl2_or_later__fragment
00019874 g     O .textdata	00000000 .hidden obj_dhcpmgmt
00019874 g     O .textdata	00000000 .hidden obj_shell
00019874 g     O .textdata	00000000 .hidden __licence__gpl2_only__udp
00019874 g     O .textdata	00000000 .hidden __licence__gpl2_or_later__memtop_umalloc
00019874 g       .textdata	00000000 _mtextdata
00019874 g     O .textdata	00000000 .hidden obj_relocate
00019874 g       .textdata	00000000 .hidden obj_setjmp
00019874 g     O .textdata	00000000 .hidden __licence__gpl2_only__menu_cmd
00019874 g     O .textdata	00000000 .hidden obj_downloader
00019874 g     O .textdata	00000000 .hidden obj_misc
00019874 g     O .textdata	00000000 .hidden __licence__gpl2_only__image_cmd
00019874 g     O .textdata	00000000 .hidden obj_http
00019874 g     O .textdata	00000000 .hidden __licence__gpl2_or_later__autoboot
00019874 g     O .textdata	00000000 .hidden __licence__gpl2_only__retry
00019874 g     O .textdata	00000000 .hidden obj_device
00019874 g     O .textdata	00000000 .hidden __licence__gpl2_or_later__arp
00019874 g     O .textdata	00000000 .hidden __licence__gpl2_or_later__timer
00019874 g     O .textdata	00000000 .hidden __licence__gpl2_or_later__exec
00019874 g     O .textdata	00000000 .hidden __licence__gpl2_only__wininit
00019874 g     O .textdata	00000000 .hidden obj_rarp
00019874 g     O .textdata	00000000 .hidden __licence__gpl2_or_later__params
00019874 g     O .textdata	00000000 .hidden obj_job
00019874 g     O .textdata	00000000 .hidden __licence__gpl2_or_later__config_cmd
00019874 g     O .textdata	00000000 .hidden obj_librm_mgmt
00019874 g     O .textdata	00000000 check_obj_config
00019874 g     O .textdata	00000000 .hidden __licence__gpl2_only__pci_autoboot
00019874 g       .textdata	00000000 .hidden __licence__gpl2_or_later__mromprefix
00019874 g     O .textdata	00000000 .hidden __licence__gpl2_or_later__rarp
00019874 g     O .textdata	00000000 .hidden obj_imgmgmt
00019874 g     O .textdata	00000000 .hidden obj_multiboot
00019874 g     O .textdata	00000000 .hidden __licence__gpl2_or_later__embedded
00019874 g     O .textdata	00000000 .hidden __licence__bsd3__neighbour
00019874 g     O .textdata	00000000 .hidden obj_socket
00019874 g     O .textdata	00000000 .hidden __licence__gpl2_only__login_ui
00019874 g     O .textdata	00000000 .hidden obj_bios_smbios
00019874 g       .textdata	00000000 .hidden __licence__gpl2_or_later__stack16
00019874 g     O .textdata	00000000 .hidden __licence__gpl2_or_later__keymap_us
00019874 g     O .textdata	00000000 .hidden __licence__gpl2_or_later__base16
00019874 g     O .textdata	00000000 .hidden __licence__gpl2_only__pci
00019874 g     O .textdata	00000000 .hidden obj_pxe_tftp
00019874 g     O .textdata	00000000 .hidden obj_arp
00019874 g     O .textdata	00000000 .hidden __licence__gpl2_or_later__reboot_cmd
00019874 g     O .textdata	00000000 .hidden obj_random
00019874 g     O .textdata	00000000 .hidden __licence__gpl2_only__dhcp_cmd
00019874 g     O .textdata	00000000 .hidden __licence__gpl2_or_later__interface
00019874 g     O .textdata	00000000 .hidden __licence__gpl2_only__getkey
00019874 g       .textdata	00000000 .hidden __licence__gpl2_or_later__virtaddr
00019874 g     O .textdata	00000000 .hidden __licence__gpl2_or_later__winattrs
00019880 l    d  .bss.textdata	00000000 .bss.textdata
00019880 l     O .bss.textdata	00000004 mb_cmdline_offset
00019884 l     O .bss.textdata	00000004 int_1a_hooked
00019888 g     O .bss.textdata	00000004 .hidden pxe_netdev
0001988c l     O .bss.textdata	00000004 undi_tx_count
00019890 g     O .bss.textdata	00000004 .hidden device_keep_count
00019894 l     O .bss.textdata	00000004 stop_state
00019898 l     O .bss.textdata	00000000 exit_opts
00019898 l     O .bss.textdata	00000000 isset_opts
00019898 l     O .bss.textdata	00000000 iseq_opts
00019898 l     O .bss.textdata	00000000 sleep_opts
00019898 l     O .bss.textdata	00000004 imgindex.1889
0001989c l     O .bss.textdata	00000004 require_trusted_images
000198a0 l     O .bss.textdata	00000004 started
000198a4 l     O .bss.textdata	00080000 heap
000998a4 l     O .bss.textdata	00000010 buf.3457
000998b4 l     O .bss.textdata	00000025 buf.918
000998dc l     O .bss.textdata	00000014 dummy_metadata
000998f0 l     O .bss.textdata	00000012 buf.2101
00099904 l     O .bss.textdata	00000010 buf.3015
00099914 l     O .bss.textdata	00000048 ipv4_stats
0009995c l     O .bss.textdata	00000001 next_ident_high
00099960 l     O .bss.textdata	00000004 ifindex.2372
00099964 l     O .bss.textdata	00000002 itt_idx.3423
00099968 l     O .bss.textdata	0000000c dns_search
00099974 l     O .bss.textdata	00000004 tftp_server.3301
00099978 l     O .bss.textdata	00000004 script_offset
0009997c l     O .bss.textdata	00000004 goto_label
00099980 l     O .bss.textdata	00000000 goto_opts
00099980 l     O .bss.textdata	00000004 end.2189
00099984 l     O .bss.textdata	00000001 pci_settings_scope
00099985 l     O .bss.textdata	00000001 smbios_settings_scope
00099988 l     O .bss.textdata	00000040 errbuf.1068
000999c8 l     O .bss.textdata	00000000 autoboot_opts
000999c8 l     O .bss.textdata	00000000 config_opts
000999c8 l     O .bss.textdata	00000000 pxebs_opts
000999c8 l     O .bss.textdata	00000000 ifstat_opts
000999c8 l     O .bss.textdata	00000000 ifclose_opts
000999c8 l     O .bss.textdata	00000000 ifopen_opts
000999c8 l     O .bss.textdata	00000000 imgmulti_opts
000999c8 l     O .bss.textdata	00000000 login_opts
000999c8 l     O .bss.textdata	00000000 inc_opts
000999c8 l     O .bss.textdata	00000000 set_core_opts
000999c8 l     O .bss.textdata	00000000 show_opts
000999c8 l     O .bss.textdata	00000000 route_opts
000999c8 l     O .bss.textdata	00000800 intr_vec
0009a1c8 l     O .bss.textdata	00000004 days.1505
0009a1cc l     O .bss.textdata	00000002 equipment_word
0009a1d0 l     O .bss.textdata	00000004 bottom
0009a1d4 l     O .bss.textdata	00000004 top
0009a1d8 l     O .bss.textdata	00000004 heap_size
0009a1dc g     O .bss.textdata	00000004 .hidden cwuri
0009a1e0 l     O .bss.textdata	00000004 monojob_rc
0009a1e4 l     O .bss.textdata	00000004 rnd_seed
0009a1e8 l     O .bss.textdata	00000002 tag_idx.3056
0009a1ec l     O .bss.textdata	00000004 offset.1475
0009a1f0 l     O .bss.textdata	00000010 smbios
0009a200 l     O .bss.textdata	00000000 shell_opts
0009a200 l     O .bss.textdata	00000004 saved_usage
0009a204 l     O .bss.textdata	00000004 int18_vector
0009a208 l     O .bss.textdata	00000004 int19_vector
0009a20c g     O .bss.textdata	00000004 .hidden initrd_top
0009a210 g     O .bss.textdata	00000004 .hidden initrd_bottom
0009a214 g     O .bss.textdata	00000004 .hidden pxe_cmdline
0009a218 g     O .bss.textdata	0000001c .hidden pxe_restart_nbp
0009a234 g     O .bss.textdata	00000002 .hidden isapnp_read_port
0009a238 g     O .bss.textdata	00000004 .hidden optarg
0009a23c g     O .bss.textdata	00000004 .hidden optind
0009a240 g     O .bss.textdata	00000004 .hidden nextchar
0009a244 g     O .bss.textdata	00000004 .hidden optopt
0009a248 g     O .bss.textdata	00000004 .hidden current_image
0009a24c g     O .bss.textdata	00000004 .hidden freemem
0009a250 g     O .bss.textdata	00000001 .hidden builtin_scope
0009a251 g     O .bss.textdata	00000001 .hidden ipv6_scope
0009a254 g     O .bss.textdata	00000004 .hidden dhcp_last_xid
0009a258 g     O .bss.textdata	0000001c .hidden autoboot_device
0009a280 g     O .bss.textdata	00000800 .hidden idt
0009aa80 g     O .bss.textdata	00000004 .hidden errno
0009aa84 g     O .bss.textdata	00000004 .hidden pending_total
0009aa88 g       .bss.textdata	00000000 _stack
0009ba88 g       .bss.textdata	00000000 .hidden _etextdata
0009ba88 g       .bss.textdata	00000000 _estack
00000000 l    d  .pprefix	00000000 .pprefix
00000000 g       .pprefix	00000000 _pprefix
00000000 l       .pprefix	0000001c mromheader
00000002 l       .pprefix	00000000 mromheader_size
0000001c l       .pprefix	0000001c mpciheader
0000002c l       .pprefix	00000000 mpciheader_image_length
00000032 l       .pprefix	00000000 mpciheader_runtime_length
00000038 g       .pprefix	00000000 _mpprefix
00000000 l    d  .zinfo	00000000 .zinfo
00000000 g       .zinfo	00000000 _weak
00000000 g       .zinfo	00000000 _zinfo
00000000 g       .zinfo	00000000 _eweak
00000038 g       .zinfo	00000000 _epprefix
000000f0 g       .zinfo	00000000 _ezinfo
000000f0 g       .zinfo	00000000 _mzinfo
00000000 l    d  .debug_info	00000000 .debug_info
00000000 l    d  .debug_abbrev	00000000 .debug_abbrev
00000000 l    d  .debug_line	00000000 .debug_line
00000000 l    d  .debug_str	00000000 .debug_str
00000000 l    d  .debug_frame	00000000 .debug_frame
00000000 l    d  .debug_loc	00000000 .debug_loc
00000000 l    d  .debug_aranges	00000000 .debug_aranges
00000000 l    d  .debug_ranges	00000000 .debug_ranges
00000000         *UND*	00000000 obj_config_cpio
00000000         *UND*	00000000 obj_config_edd
00000000         *UND*	00000000 obj_config_patch_cf
00000000         *UND*	00000000 obj_config_menu_cmd
00000000         *UND*	00000000 obj_config_wininit
00000000         *UND*	00000000 obj_config_console
00000000         *UND*	00000000 obj_config_eth_slow
00000000         *UND*	00000000 obj_config_dhcp
00000000         *UND*	00000000 obj_config_iobuf
00000000         *UND*	00000000 obj_config_config
00000000         *UND*	00000000 obj_config_liba20
00000000         *UND*	00000000 obj_config_tcp
00000000  w      *UND*	00000000 undiloader
00000000         *UND*	00000000 obj_config_ifmgmt
00000000         *UND*	00000000 obj_config_route_cmd
00000000         *UND*	00000000 obj_config_pci_autoboot
00000000         *UND*	00000000 obj_config_settings_ui
00000000         *UND*	00000000 obj_config_rarp
00000000         *UND*	00000000 obj_config_smbios
00000000         *UND*	00000000 obj_config_bitmap
00000000         *UND*	00000000 obj_config_bios_console
00000000         *UND*	00000000 obj_config_pxe_entry
00000000         *UND*	00000000 obj_config_int13
00000000         *UND*	00000000 obj_config_fakedhcp
00000000         *UND*	00000000 obj_config_netdev_settings
00000000         *UND*	00000000 obj_config_ansicol
00000000         *UND*	00000000 obj_config_shell
00000000         *UND*	00000000 obj_config_segment
00000000         *UND*	00000000 obj_config_pxe_image
00000000         *UND*	00000000 obj_config_udp
00000000         *UND*	00000000 obj_config_base16
00000000         *UND*	00000000 obj_config_editbox
00000000         *UND*	00000000 obj_config_list
00000000         *UND*	00000000 obj_config_initrd
00000000         *UND*	00000000 obj_config_nvo_cmd
00000000         *UND*	00000000 obj_config_memmap
00000000         *UND*	00000000 obj_config_malloc
00000000         *UND*	00000000 obj_config_stack16
00000000         *UND*	00000000 obj_config_bzimage
00000000         *UND*	00000000 obj_config_ipv4
00000000         *UND*	00000000 obj_config_image_cmd
00000000         *UND*	00000000 obj_config_fragment
00000000         *UND*	00000000 obj_config_autoboot
00000000         *UND*	00000000 obj_config_ata
00000000         *UND*	00000000 obj_config_pending
00000000         *UND*	00000000 obj_config_getopt
00000000         *UND*	00000000 obj_config_menu
00000000         *UND*	00000000 obj_config_mucurses
00000000         *UND*	00000000 obj_config_menu_ui
00000000         *UND*	00000000 obj_config_image
00000000         *UND*	00000000 obj_config_socket
00000000         *UND*	00000000 obj_config_pxe_tftp
00000000         *UND*	00000000 obj_config_vsprintf
00000000         *UND*	00000000 obj_config_dhcppkt
00000000         *UND*	00000000 obj_config_init
00000000         *UND*	00000000 obj_config_config_cmd
00000000         *UND*	00000000 obj_config_pxe_udp
00000000         *UND*	00000000 obj_config_device
00000000         *UND*	00000000 obj_config_setjmp
00000000         *UND*	00000000 obj_config_posix_io
00000000         *UND*	00000000 obj_config_params
00000000         *UND*	00000000 obj_config_pxe_undi
00000000         *UND*	00000000 obj_config_iscsi
00000000         *UND*	00000000 obj_config_misc
00000000         *UND*	00000000 obj_config_httpcore
00000000         *UND*	00000000 obj_config_winattrs
00000000         *UND*	00000000 obj_config_chap
00000000         *UND*	00000000 obj_config_bios_smbios
00000000         *UND*	00000000 obj_config_netdevice
00000000         *UND*	00000000 obj_config_retry
00000000         *UND*	00000000 obj_config_librm_mgmt
00000000         *UND*	00000000 obj_config_pcibios
00000000         *UND*	00000000 obj_config_ansiesc
00000000         *UND*	00000000 obj_config_timer2
00000000         *UND*	00000000 obj_config_relocate
00000000         *UND*	00000000 obj_config_x86_string
00000000         *UND*	00000000 obj_config_sync_cmd
00000000         *UND*	00000000 obj_config_config_ethernet
00000000         *UND*	00000000 obj_config_strerror
00000000         *UND*	00000000 obj_config_interface
00000000         *UND*	00000000 obj_config_clear
00000000         *UND*	00000000 obj_config_errno
00000000         *UND*	00000000 obj_config_monojob
00000000         *UND*	00000000 obj_config_basename
00000000         *UND*	00000000 obj_config_elfboot
00000000         *UND*	00000000 obj_config_arp
00000000         *UND*	00000000 obj_config_scsi
00000000         *UND*	00000000 obj_config_http
00000000         *UND*	00000000 obj_config_nvs
00000000         *UND*	00000000 obj_config_pxe_file
00000000         *UND*	00000000 obj_config_x86_tcpip
00000000         *UND*	00000000 obj_config_main
00000000         *UND*	00000000 obj_config_login_ui
00000000         *UND*	00000000 obj_config_tcpip
00000000         *UND*	00000000 obj_config_pxe_call
00000000         *UND*	00000000 obj_config_bios_reboot
00000000         *UND*	00000000 obj_config_sanboot_cmd
00000000         *UND*	00000000 obj_config_uuid
00000000         *UND*	00000000 obj_config_version
00000000         *UND*	00000000 obj_config_string
00000000         *UND*	00000000 obj_config_downloader
00000000         *UND*	00000000 obj_config_cpuid
00000000         *UND*	00000000 obj_config_sync
00000000         *UND*	00000000 obj_config_virtaddr
00000000         *UND*	00000000 obj_config_elf
00000000         *UND*	00000000 obj_config_timer
00000000         *UND*	00000000 obj_config_reboot_cmd
00000000         *UND*	00000000 obj_config_xfer
00000000         *UND*	00000000 obj_config_pxe_loader
00000000         *UND*	00000000 obj_config_bios_nap
00000000         *UND*	00000000 obj_config_linebuf
00000000         *UND*	00000000 obj_config_memtop_umalloc
00000000         *UND*	00000000 obj_config_pxe_preboot
00000000         *UND*	00000000 obj_config_ctype
00000000         *UND*	00000000 obj_config_readline
00000000         *UND*	00000000 obj_config_biosint
00000000         *UND*	00000000 obj_config_dhcpmgmt
00000000         *UND*	00000000 obj_config_route_ipv4
00000000         *UND*	00000000 obj_config_intel
00000000         *UND*	00000000 obj_config_dhcp_cmd
00000000         *UND*	00000000 obj_config_nullnet
00000000         *UND*	00000000 obj_config_embedded
00000000         *UND*	00000000 obj_config_icmpv4
00000000         *UND*	00000000 obj_config_mromprefix
00000000         *UND*	00000000 obj_config_stack
00000000         *UND*	00000000 obj_config_job
00000000         *UND*	00000000 obj_config_keymap_us
00000000         *UND*	00000000 obj_config_process
00000000         *UND*	00000000 obj_config_refcnt
00000000         *UND*	00000000 obj_config_prompt
00000000         *UND*	00000000 obj_config_settings
00000000         *UND*	00000000 obj_config_ifmgmt_cmd
00000000         *UND*	00000000 obj_config_blockdev
00000000         *UND*	00000000 obj_config_ibft
00000000         *UND*	00000000 obj_config_random
00000000         *UND*	00000000 obj_config_base64
00000000         *UND*	00000000 obj_config_bootsector
00000000         *UND*	00000000 obj_config_imgmgmt
00000000         *UND*	00000000 obj_config_config_route
00000000         *UND*	00000000 obj_config_memblock
00000000         *UND*	00000000 obj_config_smbios_settings
00000000         *UND*	00000000 obj_config_script
00000000         *UND*	00000000 obj_config_icmp
00000000         *UND*	00000000 obj_config_aoe
00000000         *UND*	00000000 obj_config_ansi_screen
00000000         *UND*	00000000 obj_config_basemem_packet
00000000         *UND*	00000000 obj_config_librm
00000000         *UND*	00000000 obj_config_e820mangler
00000000         *UND*	00000000 obj_config_uri
00000000         *UND*	00000000 obj_config_tftp
00000000         *UND*	00000000 obj_config_pci_settings
00000000         *UND*	00000000 obj_config_multiboot
00000000         *UND*	00000000 obj_config_hidemem
00000000         *UND*	00000000 obj_config_dhcpopts
00000000         *UND*	00000000 obj_config_resolv
00000000         *UND*	00000000 obj_config_autoboot_cmd
00000000         *UND*	00000000 obj_config_cpuid_cmd
00000000         *UND*	00000000 obj_config_cwuri
00000000         *UND*	00000000 obj_config_dns
00000000         *UND*	00000000 obj_config_acpi
00000000         *UND*	00000000 obj_config_parseopt
00000000         *UND*	00000000 obj_config_neighbour
00000000         *UND*	00000000 obj_config_getkey
00000000         *UND*	00000000 obj_config_libprefix
00000000         *UND*	00000000 obj_config_bios_timer
00000000         *UND*	00000000 obj_config_login_cmd
00000000         *UND*	00000000 obj_config_md5
00000000         *UND*	00000000 obj_config_editstring
00000000         *UND*	00000000 obj_config_unnrv2b16
00000000         *UND*	00000000 obj_config_pci
00000000         *UND*	00000000 obj_config_print
00000000         *UND*	00000000 obj_config_exec
00000000         *UND*	00000000 obj_config_asprintf
00000000         *UND*	00000000 obj_config_open
00000000         *UND*	00000000 obj_config_pxemenu
