Archive member included because of file (symbol)

bin/blib.a(realtek.o)         (obj_realtek)
bin/blib.a(nvs.o)             bin/blib.a(realtek.o) (nvs_read)
bin/blib.a(threewire.o)       bin/blib.a(realtek.o) (threewire_read)
bin/blib.a(spi_bit.o)         bin/blib.a(realtek.o) (init_spi_bit_basher)
bin/blib.a(config.o)          (obj_config)
bin/blib.a(timer2.o)          bin/blib.a(realtek.o) (timer2_udelay)
bin/blib.a(bios_console.o)    bin/blib.a(config.o) (obj_bios_console)
bin/blib.a(bzimage.o)         bin/blib.a(config.o) (obj_bzimage)
bin/blib.a(elfboot.o)         bin/blib.a(config.o) (obj_elfboot)
bin/blib.a(initrd.o)          bin/blib.a(bzimage.o) (initrd_reshuffle)
bin/blib.a(multiboot.o)       bin/blib.a(config.o) (obj_multiboot)
bin/blib.a(pxe_image.o)       bin/blib.a(config.o) (obj_pxe_image)
bin/blib.a(pxe_call.o)        bin/blib.a(pxe_image.o) (pxe_activate)
bin/blib.a(pxe_file.o)        bin/blib.a(pxe_call.o) (obj_pxe_file)
bin/blib.a(pxe_loader.o)      bin/blib.a(pxe_call.o) (undi_loader)
bin/blib.a(pxe_preboot.o)     bin/blib.a(pxe_call.o) (obj_pxe_preboot)
bin/blib.a(pxe_tftp.o)        bin/blib.a(pxe_preboot.o) (pxenv_tftp_read_file)
bin/blib.a(pxe_udp.o)         bin/blib.a(pxe_call.o) (obj_pxe_udp)
bin/blib.a(pxe_undi.o)        bin/blib.a(pxe_preboot.o) (pxe_netdev)
bin/blib.a(x86_string.o)      bin/blib.a(realtek.o) (__memcpy)
bin/blib.a(cpuid_cmd.o)       bin/blib.a(config.o) (obj_cpuid_cmd)
bin/blib.a(setjmp.o)          bin/blib.a(pxe_call.o) (setjmp)
bin/blib.a(virtaddr.o)        bin/blib.a(elfboot.o) (_virt_to_phys)
bin/blib.a(librm.o)           bin/blib.a(pxe_call.o) (rm_cs)
bin/blib.a(libprefix.o)       bin/blib.a(pxe_preboot.o) (hooked_bios_interrupts)
bin/blib.a(romprefix.o)       (_rom_start)
bin/blib.a(unnrv2b16.o)       bin/blib.a(libprefix.o) (decompress16)
bin/blib.a(pxe_entry.o)       bin/blib.a(pxe_call.o) (ppxe)
bin/blib.a(ansiesc.o)         bin/blib.a(bios_console.o) (ansiesc_process)
bin/blib.a(cpio.o)            bin/blib.a(bzimage.o) (cpio_set_field)
bin/blib.a(device.o)          bin/blib.a(pxe_call.o) (device_keep_count)
bin/blib.a(exec.o)            bin/blib.a(pxe_file.o) (system)
bin/blib.a(getopt.o)          bin/blib.a(cpuid_cmd.o) (optind)
bin/blib.a(image.o)           bin/blib.a(bzimage.o) (unregister_image)
bin/blib.a(init.o)            bin/blib.a(pxe_loader.o) (initialise)
bin/blib.a(interface.o)       bin/blib.a(pxe_tftp.o) (null_intf)
bin/blib.a(iobuf.o)           bin/blib.a(realtek.o) (alloc_iob)
bin/blib.a(list.o)            bin/blib.a(device.o) (extern_list_add)
bin/blib.a(main.o)            bin/blib.a(romprefix.o) (main)
bin/blib.a(malloc.o)          bin/blib.a(realtek.o) (alloc_memblock)
bin/blib.a(memblock.o)        bin/blib.a(initrd.o) (largest_memblock)
bin/blib.a(misc.o)            bin/blib.a(bzimage.o) (strtoul)
bin/blib.a(nvo.o)             bin/blib.a(realtek.o) (nvo_init)
bin/blib.a(open.o)            bin/blib.a(pxe_tftp.o) (xfer_open_uri_string)
bin/blib.a(parseopt.o)        bin/blib.a(cpuid_cmd.o) (parse_integer)
bin/blib.a(posix_io.o)        bin/blib.a(pxe_file.o) (open)
bin/blib.a(process.o)         bin/blib.a(pxe_tftp.o) (step)
bin/blib.a(refcnt.o)          bin/blib.a(bzimage.o) (ref_increment)
bin/blib.a(settings.o)        bin/blib.a(parseopt.o) (find_settings)
bin/blib.a(string.o)          bin/blib.a(settings.o) (strncpy)
bin/blib.a(timer.o)           bin/blib.a(realtek.o) (mdelay)
bin/blib.a(uri.o)             bin/blib.a(settings.o) (uri_encode)
bin/blib.a(uuid.o)            bin/blib.a(settings.o) (uuid_ntoa)
bin/blib.a(version.o)         bin/blib.a(multiboot.o) (product_version)
bin/blib.a(vsprintf.o)        bin/blib.a(multiboot.o) (snprintf)
bin/blib.a(xfer.o)            bin/blib.a(pxe_tftp.o) (xfer_deliver)
bin/blib.a(arp.o)             bin/blib.a(pxe_undi.o) (arp_protocol)
bin/blib.a(dhcpopts.o)        bin/blib.a(nvo.o) (dhcpopt_no_realloc)
bin/blib.a(ethernet.o)        bin/blib.a(realtek.o) (alloc_etherdev)
bin/blib.a(eth_slow.o)        bin/blib.a(ethernet.o) (obj_eth_slow)
bin/blib.a(fakedhcp.o)        bin/blib.a(pxe_preboot.o) (create_fakedhcpdiscover)
bin/blib.a(iobpad.o)          bin/blib.a(realtek.o) (iob_pad)
bin/blib.a(ipv4.o)            bin/blib.a(pxe_undi.o) (ipv4_protocol)
bin/blib.a(neighbour.o)       bin/blib.a(ipv4.o) (neighbour_tx)
bin/blib.a(netdevice.o)       bin/blib.a(ipv4.o) (net_devices)
bin/blib.a(netdev_settings.o)
                              bin/blib.a(netdevice.o) (netdev_settings_operations)
bin/blib.a(nullnet.o)         bin/blib.a(realtek.o) (null_netdev_operations)
bin/blib.a(rarp.o)            bin/blib.a(pxe_undi.o) (rarp_protocol)
bin/blib.a(retry.o)           bin/blib.a(neighbour.o) (start_timer)
bin/blib.a(tcpip.o)           bin/blib.a(ipv4.o) (tcpip_rx)
bin/blib.a(udp.o)             bin/blib.a(pxe_udp.o) (udp_open_promisc)
bin/blib.a(http.o)            bin/blib.a(config.o) (obj_http)
bin/blib.a(httpcore.o)        bin/blib.a(http.o) (http_open_filter)
bin/blib.a(iscsi.o)           bin/blib.a(config.o) (obj_iscsi)
bin/blib.a(dhcp.o)            bin/blib.a(fakedhcp.o) (dhcp_create_packet)
bin/blib.a(dns.o)             bin/blib.a(config.o) (obj_dns)
bin/blib.a(tftp.o)            bin/blib.a(config.o) (obj_tftp)
bin/blib.a(elf.o)             bin/blib.a(elfboot.o) (elf_load)
bin/blib.a(embedded.o)        bin/blib.a(config.o) (obj_embedded)
bin/blib.a(script.o)          bin/blib.a(config.o) (obj_script)
bin/blib.a(segment.o)         bin/blib.a(bzimage.o) (prep_segment)
bin/blib.a(pci.o)             bin/blib.a(realtek.o) (adjust_pci_device)
bin/blib.a(pci_settings.o)    bin/blib.a(config.o) (obj_pci_settings)
bin/blib.a(mii.o)             bin/blib.a(realtek.o) (mii_restart)
bin/blib.a(ibft.o)            bin/blib.a(iscsi.o) (ibft_describe)
bin/blib.a(scsi.o)            bin/blib.a(iscsi.o) (scsi_response)
bin/blib.a(bitbash.o)         bin/blib.a(spi_bit.o) (write_bit)
bin/blib.a(smbios_settings.o)
                              bin/blib.a(iscsi.o) (uuid_setting)
bin/blib.a(chap.o)            bin/blib.a(iscsi.o) (chap_init)
bin/blib.a(md5.o)             bin/blib.a(httpcore.o) (md5_algorithm)
bin/blib.a(strerror.o)        bin/blib.a(script.o) (strerror)
bin/blib.a(autoboot_cmd.o)    bin/blib.a(config.o) (obj_autoboot_cmd)
bin/blib.a(config_cmd.o)      bin/blib.a(config.o) (obj_config_cmd)
bin/blib.a(dhcp_cmd.o)        bin/blib.a(config.o) (obj_dhcp_cmd)
bin/blib.a(ifmgmt_cmd.o)      bin/blib.a(autoboot_cmd.o) (ifcommon_exec)
bin/blib.a(image_cmd.o)       bin/blib.a(config.o) (obj_image_cmd)
bin/blib.a(login_cmd.o)       bin/blib.a(config.o) (obj_login_cmd)
bin/blib.a(menu_cmd.o)        bin/blib.a(config.o) (obj_menu_cmd)
bin/blib.a(nvo_cmd.o)         bin/blib.a(config.o) (obj_nvo_cmd)
bin/blib.a(reboot_cmd.o)      bin/blib.a(config.o) (obj_reboot_cmd)
bin/blib.a(route_cmd.o)       bin/blib.a(config.o) (obj_route_cmd)
bin/blib.a(sanboot_cmd.o)     bin/blib.a(config.o) (obj_sanboot_cmd)
bin/blib.a(sync_cmd.o)        bin/blib.a(config.o) (obj_sync_cmd)
bin/blib.a(login_ui.o)        bin/blib.a(login_cmd.o) (login_ui)
bin/blib.a(menu_ui.o)         bin/blib.a(menu_cmd.o) (show_menu)
bin/blib.a(settings_ui.o)     bin/blib.a(config_cmd.o) (settings_ui)
bin/blib.a(ansi_screen.o)     bin/blib.a(menu_ui.o) (_COLS)
bin/blib.a(clear.o)           bin/blib.a(menu_ui.o) (wclrtoeol)
bin/blib.a(colour.o)          bin/blib.a(login_ui.o) (init_pair)
bin/blib.a(mucurses.o)        bin/blib.a(clear.o) (_wputc)
bin/blib.a(print.o)           bin/blib.a(menu_ui.o) (waddnstr)
bin/blib.a(winattrs.o)        bin/blib.a(login_ui.o) (wattroff)
bin/blib.a(wininit.o)         bin/blib.a(login_ui.o) (initscr)
bin/blib.a(editbox.o)         bin/blib.a(login_ui.o) (init_editbox)
bin/blib.a(keymap_us.o)       bin/blib.a(config.o) (obj_keymap_us)
bin/blib.a(autoboot.o)        bin/blib.a(sanboot_cmd.o) (uriboot)
bin/blib.a(dhcpmgmt.o)        bin/blib.a(dhcp_cmd.o) (dhcp)
bin/blib.a(ifmgmt.o)          bin/blib.a(ifmgmt_cmd.o) (ifopen)
bin/blib.a(imgmgmt.o)         bin/blib.a(autoboot.o) (imgdownload)
bin/blib.a(prompt.o)          bin/blib.a(script.o) (prompt)
bin/blib.a(pxemenu.o)         bin/blib.a(config.o) (obj_pxemenu)
bin/blib.a(route.o)           bin/blib.a(route_cmd.o) (route)
bin/blib.a(config_ethernet.o)
                              bin/blib.a(ethernet.o) (obj_config_ethernet)
bin/blib.a(config_romprefix.o)
                              bin/blib.a(romprefix.o) (obj_config_romprefix)
bin/blib.a(config_route.o)    bin/blib.a(route.o) (obj_config_route)
bin/blib.a(basemem_packet.o)  bin/blib.a(pxe_undi.o) (basemem_packet)
bin/blib.a(relocate.o)        bin/blib.a(libprefix.o) (relocate)
bin/blib.a(memmap.o)          bin/blib.a(libprefix.o) (memmap_post)
bin/blib.a(biosint.o)         bin/blib.a(pxe_call.o) (hook_bios_interrupt)
bin/blib.a(bios_nap.o)        bin/blib.a(exec.o) (cpu_nap)
bin/blib.a(bios_reboot.o)     bin/blib.a(reboot_cmd.o) (reboot)
bin/blib.a(bios_timer.o)      bin/blib.a(exec.o) (currticks)
bin/blib.a(int13.o)           bin/blib.a(autoboot.o) (san_hook)
bin/blib.a(memtop_umalloc.o)  bin/blib.a(image.o) (urealloc)
bin/blib.a(pcibios.o)         bin/blib.a(pci.o) (pcibios_read)
bin/blib.a(cpuid.o)           bin/blib.a(cpuid_cmd.o) (x86_features)
bin/blib.a(x86_tcpip.o)       bin/blib.a(ipv4.o) (x86_tcpip_continue_chksum)
bin/blib.a(stack16.o)         bin/blib.a(romprefix.o) (_estack16)
bin/blib.a(stack.o)           bin/blib.a(librm.o) (_estack)
bin/blib.a(liba20.o)          bin/blib.a(librm.o) (enable_a20)
bin/blib.a(undiloader.o)      bin/blib.a(config_romprefix.o) (obj_undiloader)
bin/blib.a(acpi.o)            bin/blib.a(httpcore.o) (acpi_describe)
bin/blib.a(asprintf.o)        bin/blib.a(xfer.o) (vasprintf)
bin/blib.a(base16.o)          bin/blib.a(httpcore.o) (base16_encode)
bin/blib.a(base64.o)          bin/blib.a(httpcore.o) (base64_encode)
bin/blib.a(basename.o)        bin/blib.a(image.o) (basename)
bin/blib.a(bitmap.o)          bin/blib.a(tftp.o) (bitmap_resize)
bin/blib.a(bitops.o)          bin/blib.a(iobuf.o) (__flsl)
bin/blib.a(blockdev.o)        bin/blib.a(httpcore.o) (block_capacity)
bin/blib.a(console.o)         bin/blib.a(vsprintf.o) (putchar)
bin/blib.a(ctype.o)           bin/blib.a(exec.o) (isspace)
bin/blib.a(cwuri.o)           bin/blib.a(image.o) (churi)
bin/blib.a(downloader.o)      bin/blib.a(imgmgmt.o) (create_downloader)
bin/blib.a(edd.o)             bin/blib.a(int13.o) (edd_describe)
bin/blib.a(errno.o)           bin/blib.a(exec.o) (errno)
bin/blib.a(getkey.o)          bin/blib.a(login_ui.o) (getkey)
bin/blib.a(job.o)             bin/blib.a(downloader.o) (job_progress)
bin/blib.a(linebuf.o)         bin/blib.a(httpcore.o) (buffered_line)
bin/blib.a(menu.o)            bin/blib.a(menu_cmd.o) (add_menu_item)
bin/blib.a(monojob.o)         bin/blib.a(dhcpmgmt.o) (monojob_wait)
bin/blib.a(params.o)          bin/blib.a(parseopt.o) (find_parameters)
bin/blib.a(pending.o)         bin/blib.a(sync_cmd.o) (pending_wait)
bin/blib.a(random.o)          bin/blib.a(netdevice.o) (srandom)
bin/blib.a(resolv.o)          bin/blib.a(dns.o) (resolv_done)
bin/blib.a(aoe.o)             bin/blib.a(config_ethernet.o) (obj_aoe)
bin/blib.a(dhcppkt.o)         bin/blib.a(fakedhcp.o) (dhcppkt_store)
bin/blib.a(fragment.o)        bin/blib.a(ipv4.o) (fragment_reassemble)
bin/blib.a(icmpv4.o)          bin/blib.a(ipv4.o) (obj_icmpv4)
bin/blib.a(socket.o)          bin/blib.a(resolv.o) (sock_aton)
bin/blib.a(tcp.o)             bin/blib.a(httpcore.o) (tcp_sock_stream)
bin/blib.a(ata.o)             bin/blib.a(aoe.o) (ata_command)
bin/blib.a(smbios.o)          bin/blib.a(smbios_settings.o) (find_smbios_structure)
bin/blib.a(editstring.o)      bin/blib.a(login_ui.o) (edit_string)
bin/blib.a(readline.o)        bin/blib.a(nvo_cmd.o) (readline_history)
bin/blib.a(shell.o)           bin/blib.a(autoboot.o) (shell)
bin/blib.a(route_ipv4.o)      bin/blib.a(config_route.o) (obj_route_ipv4)
bin/blib.a(hidemem.o)         bin/blib.a(memtop_umalloc.o) (hide_umalloc)
bin/blib.a(bootsector.o)      bin/blib.a(int13.o) (call_bootsector)
bin/blib.a(bios_smbios.o)     bin/blib.a(smbios.o) (find_smbios)
bin/blib.a(e820mangler.o)     bin/blib.a(hidemem.o) (hidemem_base)
bin/blib.a(icmp.o)            bin/blib.a(icmpv4.o) (icmp_rx_echo_request)
bin/blib.a(patch_cf.o)        bin/blib.a(e820mangler.o) (patch_cf)

Allocating common symbols
Common symbol       size              file

pxe_cmdline         0x4               bin/blib.a(pxe_image.o)
initrd_top          0x4               bin/blib.a(initrd.o)
errno               0x4               bin/blib.a(errno.o)
isapnp_read_port    0x2               bin/blib.a(pxe_preboot.o)
pxe_restart_nbp     0x1c              bin/blib.a(pxe_call.o)
initrd_bottom       0x4               bin/blib.a(initrd.o)
optarg              0x4               bin/blib.a(getopt.o)
dhcp_last_xid       0x4               bin/blib.a(dhcp.o)
freemem             0x4               bin/blib.a(malloc.o)
ifcommon_opts       0x0               bin/blib.a(ifmgmt_cmd.o)
optind              0x4               bin/blib.a(getopt.o)
nextchar            0x4               bin/blib.a(getopt.o)
builtin_scope       0x1               bin/blib.a(settings.o)
optopt              0x4               bin/blib.a(getopt.o)
current_image       0x4               bin/blib.a(image.o)

Discarded input sections

 .text          0x0000000000000000        0x0 bin/blib.a(realtek.o)
 .data          0x0000000000000000        0x0 bin/blib.a(realtek.o)
 .bss           0x0000000000000000        0x0 bin/blib.a(realtek.o)
 .einfo         0x0000000000000000      0x310 bin/blib.a(realtek.o)
 .comment       0x0000000000000000       0x2b bin/blib.a(realtek.o)
 .note.GNU-stack
                0x0000000000000000        0x0 bin/blib.a(realtek.o)
 .text          0x0000000000000000        0x0 bin/blib.a(nvs.o)
 .data          0x0000000000000000        0x0 bin/blib.a(nvs.o)
 .bss           0x0000000000000000        0x0 bin/blib.a(nvs.o)
 .einfo         0x0000000000000000       0x40 bin/blib.a(nvs.o)
 .comment       0x0000000000000000       0x2b bin/blib.a(nvs.o)
 .note.GNU-stack
                0x0000000000000000        0x0 bin/blib.a(nvs.o)
 .text          0x0000000000000000        0x0 bin/blib.a(threewire.o)
 .data          0x0000000000000000        0x0 bin/blib.a(threewire.o)
 .bss           0x0000000000000000        0x0 bin/blib.a(threewire.o)
 .text.threewire_detect_address_len
                0x0000000000000000       0x1b bin/blib.a(threewire.o)
 .comment       0x0000000000000000       0x2b bin/blib.a(threewire.o)
 .note.GNU-stack
                0x0000000000000000        0x0 bin/blib.a(threewire.o)
 .text          0x0000000000000000        0x0 bin/blib.a(spi_bit.o)
 .data          0x0000000000000000        0x0 bin/blib.a(spi_bit.o)
 .bss           0x0000000000000000        0x0 bin/blib.a(spi_bit.o)
 .comment       0x0000000000000000       0x2b bin/blib.a(spi_bit.o)
 .note.GNU-stack
                0x0000000000000000        0x0 bin/blib.a(spi_bit.o)
 .text          0x0000000000000000        0x0 bin/blib.a(config.o)
 .data          0x0000000000000000        0x0 bin/blib.a(config.o)
 .bss           0x0000000000000000        0x0 bin/blib.a(config.o)
 .discard       0x0000000000000000       0x78 bin/blib.a(config.o)
 .comment       0x0000000000000000       0x2b bin/blib.a(config.o)
 .note.GNU-stack
                0x0000000000000000        0x0 bin/blib.a(config.o)
 .text          0x0000000000000000        0x0 bin/blib.a(timer2.o)
 .data          0x0000000000000000        0x0 bin/blib.a(timer2.o)
 .bss           0x0000000000000000        0x0 bin/blib.a(timer2.o)
 .comment       0x0000000000000000       0x2b bin/blib.a(timer2.o)
 .note.GNU-stack
                0x0000000000000000        0x0 bin/blib.a(timer2.o)
 .text          0x0000000000000000        0x0 bin/blib.a(bios_console.o)
 .data          0x0000000000000000        0x0 bin/blib.a(bios_console.o)
 .bss           0x0000000000000000        0x0 bin/blib.a(bios_console.o)
 .comment       0x0000000000000000       0x2b bin/blib.a(bios_console.o)
 .note.GNU-stack
                0x0000000000000000        0x0 bin/blib.a(bios_console.o)
 .text          0x0000000000000000        0x0 bin/blib.a(bzimage.o)
 .data          0x0000000000000000        0x0 bin/blib.a(bzimage.o)
 .bss           0x0000000000000000        0x0 bin/blib.a(bzimage.o)
 .einfo         0x0000000000000000      0x190 bin/blib.a(bzimage.o)
 .comment       0x0000000000000000       0x2b bin/blib.a(bzimage.o)
 .note.GNU-stack
                0x0000000000000000        0x0 bin/blib.a(bzimage.o)
 .text          0x0000000000000000        0x0 bin/blib.a(elfboot.o)
 .data          0x0000000000000000        0x0 bin/blib.a(elfboot.o)
 .bss           0x0000000000000000        0x0 bin/blib.a(elfboot.o)
 .einfo         0x0000000000000000       0x40 bin/blib.a(elfboot.o)
 .comment       0x0000000000000000       0x2b bin/blib.a(elfboot.o)
 .note.GNU-stack
                0x0000000000000000        0x0 bin/blib.a(elfboot.o)
 .text          0x0000000000000000        0x0 bin/blib.a(initrd.o)
 .data          0x0000000000000000        0x0 bin/blib.a(initrd.o)
 .bss           0x0000000000000000        0x0 bin/blib.a(initrd.o)
 .einfo         0x0000000000000000       0x48 bin/blib.a(initrd.o)
 .comment       0x0000000000000000       0x2b bin/blib.a(initrd.o)
 .note.GNU-stack
                0x0000000000000000        0x0 bin/blib.a(initrd.o)
 .text          0x0000000000000000        0x0 bin/blib.a(multiboot.o)
 .data          0x0000000000000000        0x0 bin/blib.a(multiboot.o)
 .bss           0x0000000000000000        0x0 bin/blib.a(multiboot.o)
 .einfo         0x0000000000000000       0xd8 bin/blib.a(multiboot.o)
 .comment       0x0000000000000000       0x2b bin/blib.a(multiboot.o)
 .note.GNU-stack
                0x0000000000000000        0x0 bin/blib.a(multiboot.o)
 .text          0x0000000000000000        0x0 bin/blib.a(pxe_image.o)
 .data          0x0000000000000000        0x0 bin/blib.a(pxe_image.o)
 .bss           0x0000000000000000        0x0 bin/blib.a(pxe_image.o)
 .einfo         0x0000000000000000       0xd0 bin/blib.a(pxe_image.o)
 .comment       0x0000000000000000       0x2b bin/blib.a(pxe_image.o)
 .note.GNU-stack
                0x0000000000000000        0x0 bin/blib.a(pxe_image.o)
 .text          0x0000000000000000        0x0 bin/blib.a(pxe_call.o)
 .data          0x0000000000000000        0x0 bin/blib.a(pxe_call.o)
 .bss           0x0000000000000000        0x0 bin/blib.a(pxe_call.o)
 .text.pxe_api_call_weak
                0x0000000000000000        0xa bin/blib.a(pxe_call.o)
 .einfo         0x0000000000000000       0x50 bin/blib.a(pxe_call.o)
 .discard       0x0000000000000000       0x14 bin/blib.a(pxe_call.o)
 .comment       0x0000000000000000       0x2b bin/blib.a(pxe_call.o)
 .note.GNU-stack
                0x0000000000000000        0x0 bin/blib.a(pxe_call.o)
 .text          0x0000000000000000        0x0 bin/blib.a(pxe_file.o)
 .data          0x0000000000000000        0x0 bin/blib.a(pxe_file.o)
 .bss           0x0000000000000000        0x0 bin/blib.a(pxe_file.o)
 .comment       0x0000000000000000       0x2b bin/blib.a(pxe_file.o)
 .note.GNU-stack
                0x0000000000000000        0x0 bin/blib.a(pxe_file.o)
 .text          0x0000000000000000        0x0 bin/blib.a(pxe_loader.o)
 .data          0x0000000000000000        0x0 bin/blib.a(pxe_loader.o)
 .bss           0x0000000000000000        0x0 bin/blib.a(pxe_loader.o)
 .comment       0x0000000000000000       0x2b bin/blib.a(pxe_loader.o)
 .note.GNU-stack
                0x0000000000000000        0x0 bin/blib.a(pxe_loader.o)
 .text          0x0000000000000000        0x0 bin/blib.a(pxe_preboot.o)
 .data          0x0000000000000000        0x0 bin/blib.a(pxe_preboot.o)
 .bss           0x0000000000000000        0x0 bin/blib.a(pxe_preboot.o)
 .comment       0x0000000000000000       0x2b bin/blib.a(pxe_preboot.o)
 .note.GNU-stack
                0x0000000000000000        0x0 bin/blib.a(pxe_preboot.o)
 .text          0x0000000000000000        0x0 bin/blib.a(pxe_tftp.o)
 .data          0x0000000000000000        0x0 bin/blib.a(pxe_tftp.o)
 .bss           0x0000000000000000        0x0 bin/blib.a(pxe_tftp.o)
 .einfo         0x0000000000000000      0x330 bin/blib.a(pxe_tftp.o)
 .comment       0x0000000000000000       0x2b bin/blib.a(pxe_tftp.o)
 .note.GNU-stack
                0x0000000000000000        0x0 bin/blib.a(pxe_tftp.o)
 .text          0x0000000000000000        0x0 bin/blib.a(pxe_udp.o)
 .data          0x0000000000000000        0x0 bin/blib.a(pxe_udp.o)
 .bss           0x0000000000000000        0x0 bin/blib.a(pxe_udp.o)
 .einfo         0x0000000000000000       0x50 bin/blib.a(pxe_udp.o)
 .comment       0x0000000000000000       0x2b bin/blib.a(pxe_udp.o)
 .note.GNU-stack
                0x0000000000000000        0x0 bin/blib.a(pxe_udp.o)
 .text          0x0000000000000000        0x0 bin/blib.a(pxe_undi.o)
 .data          0x0000000000000000        0x0 bin/blib.a(pxe_undi.o)
 .bss           0x0000000000000000        0x0 bin/blib.a(pxe_undi.o)
 .comment       0x0000000000000000       0x2b bin/blib.a(pxe_undi.o)
 .note.GNU-stack
                0x0000000000000000        0x0 bin/blib.a(pxe_undi.o)
 .text          0x0000000000000000        0x0 bin/blib.a(x86_string.o)
 .data          0x0000000000000000        0x0 bin/blib.a(x86_string.o)
 .bss           0x0000000000000000        0x0 bin/blib.a(x86_string.o)
 .comment       0x0000000000000000       0x2b bin/blib.a(x86_string.o)
 .note.GNU-stack
                0x0000000000000000        0x0 bin/blib.a(x86_string.o)
 .text          0x0000000000000000        0x0 bin/blib.a(cpuid_cmd.o)
 .data          0x0000000000000000        0x0 bin/blib.a(cpuid_cmd.o)
 .bss           0x0000000000000000        0x0 bin/blib.a(cpuid_cmd.o)
 .einfo         0x0000000000000000       0x50 bin/blib.a(cpuid_cmd.o)
 .comment       0x0000000000000000       0x2b bin/blib.a(cpuid_cmd.o)
 .note.GNU-stack
                0x0000000000000000        0x0 bin/blib.a(cpuid_cmd.o)
 .data          0x0000000000000000        0x0 bin/blib.a(setjmp.o)
 .bss           0x0000000000000000        0x0 bin/blib.a(setjmp.o)
 .note          0x0000000000000000       0x14 bin/blib.a(setjmp.o)
 .data          0x0000000000000000        0x0 bin/blib.a(virtaddr.o)
 .bss           0x0000000000000000        0x0 bin/blib.a(virtaddr.o)
 .note          0x0000000000000000       0x14 bin/blib.a(virtaddr.o)
 .bss           0x0000000000000000        0x0 bin/blib.a(librm.o)
 .note          0x0000000000000000       0x14 bin/blib.a(librm.o)
 .text          0x0000000000000000        0x0 bin/blib.a(libprefix.o)
 .data          0x0000000000000000        0x0 bin/blib.a(libprefix.o)
 .bss           0x0000000000000000        0x0 bin/blib.a(libprefix.o)
 .note          0x0000000000000000       0x14 bin/blib.a(libprefix.o)
 .text          0x0000000000000000        0x0 bin/blib.a(romprefix.o)
 .data          0x0000000000000000        0x0 bin/blib.a(romprefix.o)
 .bss           0x0000000000000000        0x0 bin/blib.a(romprefix.o)
 .note          0x0000000000000000       0x14 bin/blib.a(romprefix.o)
 .text          0x0000000000000000        0x0 bin/blib.a(unnrv2b16.o)
 .data          0x0000000000000000        0x0 bin/blib.a(unnrv2b16.o)
 .bss           0x0000000000000000        0x0 bin/blib.a(unnrv2b16.o)
 .note          0x0000000000000000       0x14 bin/blib.a(unnrv2b16.o)
 .text          0x0000000000000000        0x0 bin/blib.a(pxe_entry.o)
 .data          0x0000000000000000        0x0 bin/blib.a(pxe_entry.o)
 .bss           0x0000000000000000        0x0 bin/blib.a(pxe_entry.o)
 .weak          0x0000000000000000        0x0 bin/blib.a(pxe_entry.o)
 .note          0x0000000000000000       0x14 bin/blib.a(pxe_entry.o)
 .text          0x0000000000000000        0x0 bin/blib.a(ansiesc.o)
 .data          0x0000000000000000        0x0 bin/blib.a(ansiesc.o)
 .bss           0x0000000000000000        0x0 bin/blib.a(ansiesc.o)
 .comment       0x0000000000000000       0x2b bin/blib.a(ansiesc.o)
 .note.GNU-stack
                0x0000000000000000        0x0 bin/blib.a(ansiesc.o)
 .text          0x0000000000000000        0x0 bin/blib.a(cpio.o)
 .data          0x0000000000000000        0x0 bin/blib.a(cpio.o)
 .bss           0x0000000000000000        0x0 bin/blib.a(cpio.o)
 .comment       0x0000000000000000       0x2b bin/blib.a(cpio.o)
 .note.GNU-stack
                0x0000000000000000        0x0 bin/blib.a(cpio.o)
 .text          0x0000000000000000        0x0 bin/blib.a(device.o)
 .data          0x0000000000000000        0x0 bin/blib.a(device.o)
 .bss           0x0000000000000000        0x0 bin/blib.a(device.o)
 .comment       0x0000000000000000       0x2b bin/blib.a(device.o)
 .note.GNU-stack
                0x0000000000000000        0x0 bin/blib.a(device.o)
 .text          0x0000000000000000        0x0 bin/blib.a(exec.o)
 .data          0x0000000000000000        0x0 bin/blib.a(exec.o)
 .bss           0x0000000000000000        0x0 bin/blib.a(exec.o)
 .einfo         0x0000000000000000      0x1c8 bin/blib.a(exec.o)
 .comment       0x0000000000000000       0x2b bin/blib.a(exec.o)
 .note.GNU-stack
                0x0000000000000000        0x0 bin/blib.a(exec.o)
 .text          0x0000000000000000        0x0 bin/blib.a(getopt.o)
 .data          0x0000000000000000        0x0 bin/blib.a(getopt.o)
 .bss           0x0000000000000000        0x0 bin/blib.a(getopt.o)
 .comment       0x0000000000000000       0x2b bin/blib.a(getopt.o)
 .note.GNU-stack
                0x0000000000000000        0x0 bin/blib.a(getopt.o)
 .text          0x0000000000000000        0x0 bin/blib.a(image.o)
 .data          0x0000000000000000        0x0 bin/blib.a(image.o)
 .bss           0x0000000000000000        0x0 bin/blib.a(image.o)
 .einfo         0x0000000000000000      0x168 bin/blib.a(image.o)
 .text.image_set_trust
                0x0000000000000000       0x26 bin/blib.a(image.o)
 .bss.require_trusted_images_permanent
                0x0000000000000000        0x4 bin/blib.a(image.o)
 .comment       0x0000000000000000       0x2b bin/blib.a(image.o)
 .note.GNU-stack
                0x0000000000000000        0x0 bin/blib.a(image.o)
 .text          0x0000000000000000        0x0 bin/blib.a(init.o)
 .data          0x0000000000000000        0x0 bin/blib.a(init.o)
 .bss           0x0000000000000000        0x0 bin/blib.a(init.o)
 .comment       0x0000000000000000       0x2b bin/blib.a(init.o)
 .note.GNU-stack
                0x0000000000000000        0x0 bin/blib.a(init.o)
 .text          0x0000000000000000        0x0 bin/blib.a(interface.o)
 .data          0x0000000000000000        0x0 bin/blib.a(interface.o)
 .bss           0x0000000000000000        0x0 bin/blib.a(interface.o)
 .text.intf_get
                0x0000000000000000        0xf bin/blib.a(interface.o)
 .comment       0x0000000000000000       0x2b bin/blib.a(interface.o)
 .note.GNU-stack
                0x0000000000000000        0x0 bin/blib.a(interface.o)
 .text          0x0000000000000000        0x0 bin/blib.a(iobuf.o)
 .data          0x0000000000000000        0x0 bin/blib.a(iobuf.o)
 .bss           0x0000000000000000        0x0 bin/blib.a(iobuf.o)
 .einfo         0x0000000000000000       0x40 bin/blib.a(iobuf.o)
 .text.iob_concatenate
                0x0000000000000000       0x81 bin/blib.a(iobuf.o)
 .comment       0x0000000000000000       0x2b bin/blib.a(iobuf.o)
 .note.GNU-stack
                0x0000000000000000        0x0 bin/blib.a(iobuf.o)
 .text          0x0000000000000000        0x0 bin/blib.a(list.o)
 .data          0x0000000000000000        0x0 bin/blib.a(list.o)
 .bss           0x0000000000000000        0x0 bin/blib.a(list.o)
 .text.extern_list_del
                0x0000000000000000        0xb bin/blib.a(list.o)
 .text.extern_list_empty
                0x0000000000000000        0x9 bin/blib.a(list.o)
 .text.extern_list_is_singular
                0x0000000000000000       0x13 bin/blib.a(list.o)
 .text.extern_list_is_last
                0x0000000000000000        0x9 bin/blib.a(list.o)
 .text.extern_list_cut_position
                0x0000000000000000       0x1c bin/blib.a(list.o)
 .text.extern_list_splice
                0x0000000000000000       0x18 bin/blib.a(list.o)
 .text.extern_list_splice_tail
                0x0000000000000000       0x19 bin/blib.a(list.o)
 .text.extern_list_splice_init
                0x0000000000000000        0xf bin/blib.a(list.o)
 .text.extern_list_splice_tail_init
                0x0000000000000000        0xf bin/blib.a(list.o)
 .text.extern_list_contains
                0x0000000000000000       0x17 bin/blib.a(list.o)
 .comment       0x0000000000000000       0x2b bin/blib.a(list.o)
 .note.GNU-stack
                0x0000000000000000        0x0 bin/blib.a(list.o)
 .text          0x0000000000000000        0x0 bin/blib.a(main.o)
 .data          0x0000000000000000        0x0 bin/blib.a(main.o)
 .bss           0x0000000000000000        0x0 bin/blib.a(main.o)
 .comment       0x0000000000000000       0x2b bin/blib.a(main.o)
 .note.GNU-stack
                0x0000000000000000        0x0 bin/blib.a(main.o)
 .text          0x0000000000000000        0x0 bin/blib.a(malloc.o)
 .data          0x0000000000000000        0x0 bin/blib.a(malloc.o)
 .bss           0x0000000000000000        0x0 bin/blib.a(malloc.o)
 .comment       0x0000000000000000       0x2b bin/blib.a(malloc.o)
 .note.GNU-stack
                0x0000000000000000        0x0 bin/blib.a(malloc.o)
 .text          0x0000000000000000        0x0 bin/blib.a(memblock.o)
 .data          0x0000000000000000        0x0 bin/blib.a(memblock.o)
 .bss           0x0000000000000000        0x0 bin/blib.a(memblock.o)
 .comment       0x0000000000000000       0x2b bin/blib.a(memblock.o)
 .note.GNU-stack
                0x0000000000000000        0x0 bin/blib.a(memblock.o)
 .text          0x0000000000000000        0x0 bin/blib.a(misc.o)
 .data          0x0000000000000000        0x0 bin/blib.a(misc.o)
 .bss           0x0000000000000000        0x0 bin/blib.a(misc.o)
 .comment       0x0000000000000000       0x2b bin/blib.a(misc.o)
 .note.GNU-stack
                0x0000000000000000        0x0 bin/blib.a(misc.o)
 .text          0x0000000000000000        0x0 bin/blib.a(nvo.o)
 .data          0x0000000000000000        0x0 bin/blib.a(nvo.o)
 .bss           0x0000000000000000        0x0 bin/blib.a(nvo.o)
 .einfo         0x0000000000000000       0x30 bin/blib.a(nvo.o)
 .comment       0x0000000000000000       0x2b bin/blib.a(nvo.o)
 .note.GNU-stack
                0x0000000000000000        0x0 bin/blib.a(nvo.o)
 .text          0x0000000000000000        0x0 bin/blib.a(open.o)
 .data          0x0000000000000000        0x0 bin/blib.a(open.o)
 .bss           0x0000000000000000        0x0 bin/blib.a(open.o)
 .einfo         0x0000000000000000      0x118 bin/blib.a(open.o)
 .text.xfer_open
                0x0000000000000000       0x12 bin/blib.a(open.o)
 .comment       0x0000000000000000       0x2b bin/blib.a(open.o)
 .note.GNU-stack
                0x0000000000000000        0x0 bin/blib.a(open.o)
 .text          0x0000000000000000        0x0 bin/blib.a(parseopt.o)
 .data          0x0000000000000000        0x0 bin/blib.a(parseopt.o)
 .bss           0x0000000000000000        0x0 bin/blib.a(parseopt.o)
 .einfo         0x0000000000000000      0x210 bin/blib.a(parseopt.o)
 .text.parse_parameters
                0x0000000000000000       0x3b bin/blib.a(parseopt.o)
 .comment       0x0000000000000000       0x2b bin/blib.a(parseopt.o)
 .note.GNU-stack
                0x0000000000000000        0x0 bin/blib.a(parseopt.o)
 .text          0x0000000000000000        0x0 bin/blib.a(posix_io.o)
 .data          0x0000000000000000        0x0 bin/blib.a(posix_io.o)
 .bss           0x0000000000000000        0x0 bin/blib.a(posix_io.o)
 .einfo         0x0000000000000000      0x2a0 bin/blib.a(posix_io.o)
 .comment       0x0000000000000000       0x2b bin/blib.a(posix_io.o)
 .note.GNU-stack
                0x0000000000000000        0x0 bin/blib.a(posix_io.o)
 .text          0x0000000000000000        0x0 bin/blib.a(process.o)
 .data          0x0000000000000000        0x0 bin/blib.a(process.o)
 .bss           0x0000000000000000        0x0 bin/blib.a(process.o)
 .text.process_object
                0x0000000000000000        0x6 bin/blib.a(process.o)
 .comment       0x0000000000000000       0x2b bin/blib.a(process.o)
 .note.GNU-stack
                0x0000000000000000        0x0 bin/blib.a(process.o)
 .text          0x0000000000000000        0x0 bin/blib.a(refcnt.o)
 .data          0x0000000000000000        0x0 bin/blib.a(refcnt.o)
 .bss           0x0000000000000000        0x0 bin/blib.a(refcnt.o)
 .comment       0x0000000000000000       0x2b bin/blib.a(refcnt.o)
 .note.GNU-stack
                0x0000000000000000        0x0 bin/blib.a(refcnt.o)
 .text          0x0000000000000000        0x0 bin/blib.a(settings.o)
 .data          0x0000000000000000        0x0 bin/blib.a(settings.o)
 .bss           0x0000000000000000        0x0 bin/blib.a(settings.o)
 .einfo         0x0000000000000000      0x5d8 bin/blib.a(settings.o)
 .text.fetch_int_setting
                0x0000000000000000        0x8 bin/blib.a(settings.o)
 .text.fetch_uint_setting
                0x0000000000000000        0x8 bin/blib.a(settings.o)
 .text.find_setting
                0x0000000000000000       0x2a bin/blib.a(settings.o)
 .comment       0x0000000000000000       0x2b bin/blib.a(settings.o)
 .note.GNU-stack
                0x0000000000000000        0x0 bin/blib.a(settings.o)
 .text          0x0000000000000000        0x0 bin/blib.a(string.o)
 .data          0x0000000000000000        0x0 bin/blib.a(string.o)
 .bss           0x0000000000000000        0x0 bin/blib.a(string.o)
 .text.strcat   0x0000000000000000       0x1e bin/blib.a(string.o)
 .comment       0x0000000000000000       0x2b bin/blib.a(string.o)
 .note.GNU-stack
                0x0000000000000000        0x0 bin/blib.a(string.o)
 .text          0x0000000000000000        0x0 bin/blib.a(timer.o)
 .data          0x0000000000000000        0x0 bin/blib.a(timer.o)
 .bss           0x0000000000000000        0x0 bin/blib.a(timer.o)
 .comment       0x0000000000000000       0x2b bin/blib.a(timer.o)
 .note.GNU-stack
                0x0000000000000000        0x0 bin/blib.a(timer.o)
 .text          0x0000000000000000        0x0 bin/blib.a(uri.o)
 .data          0x0000000000000000        0x0 bin/blib.a(uri.o)
 .bss           0x0000000000000000        0x0 bin/blib.a(uri.o)
 .comment       0x0000000000000000       0x2b bin/blib.a(uri.o)
 .note.GNU-stack
                0x0000000000000000        0x0 bin/blib.a(uri.o)
 .text          0x0000000000000000        0x0 bin/blib.a(uuid.o)
 .data          0x0000000000000000        0x0 bin/blib.a(uuid.o)
 .bss           0x0000000000000000        0x0 bin/blib.a(uuid.o)
 .comment       0x0000000000000000       0x2b bin/blib.a(uuid.o)
 .note.GNU-stack
                0x0000000000000000        0x0 bin/blib.a(uuid.o)
 .text          0x0000000000000000        0x0 bin/blib.a(version.o)
 .data          0x0000000000000000        0x0 bin/blib.a(version.o)
 .bss           0x0000000000000000        0x0 bin/blib.a(version.o)
 .rodata.product_minor_version
                0x0000000000000000        0x4 bin/blib.a(version.o)
 .rodata.product_major_version
                0x0000000000000000        0x4 bin/blib.a(version.o)
 .comment       0x0000000000000000       0x2b bin/blib.a(version.o)
 .note.GNU-stack
                0x0000000000000000        0x0 bin/blib.a(version.o)
 .text          0x0000000000000000        0x0 bin/blib.a(vsprintf.o)
 .data          0x0000000000000000        0x0 bin/blib.a(vsprintf.o)
 .bss           0x0000000000000000        0x0 bin/blib.a(vsprintf.o)
 .comment       0x0000000000000000       0x2b bin/blib.a(vsprintf.o)
 .note.GNU-stack
                0x0000000000000000        0x0 bin/blib.a(vsprintf.o)
 .text          0x0000000000000000        0x0 bin/blib.a(xfer.o)
 .data          0x0000000000000000        0x0 bin/blib.a(xfer.o)
 .bss           0x0000000000000000        0x0 bin/blib.a(xfer.o)
 .einfo         0x0000000000000000       0xa0 bin/blib.a(xfer.o)
 .comment       0x0000000000000000       0x2b bin/blib.a(xfer.o)
 .note.GNU-stack
                0x0000000000000000        0x0 bin/blib.a(xfer.o)
 .text          0x0000000000000000        0x0 bin/blib.a(arp.o)
 .data          0x0000000000000000        0x0 bin/blib.a(arp.o)
 .bss           0x0000000000000000        0x0 bin/blib.a(arp.o)
 .einfo         0x0000000000000000       0x98 bin/blib.a(arp.o)
 .comment       0x0000000000000000       0x2b bin/blib.a(arp.o)
 .note.GNU-stack
                0x0000000000000000        0x0 bin/blib.a(arp.o)
 .text          0x0000000000000000        0x0 bin/blib.a(dhcpopts.o)
 .data          0x0000000000000000        0x0 bin/blib.a(dhcpopts.o)
 .bss           0x0000000000000000        0x0 bin/blib.a(dhcpopts.o)
 .einfo         0x0000000000000000      0x188 bin/blib.a(dhcpopts.o)
 .comment       0x0000000000000000       0x2b bin/blib.a(dhcpopts.o)
 .note.GNU-stack
                0x0000000000000000        0x0 bin/blib.a(dhcpopts.o)
 .text          0x0000000000000000        0x0 bin/blib.a(ethernet.o)
 .data          0x0000000000000000        0x0 bin/blib.a(ethernet.o)
 .bss           0x0000000000000000        0x0 bin/blib.a(ethernet.o)
 .einfo         0x0000000000000000       0x78 bin/blib.a(ethernet.o)
 .discard       0x0000000000000000        0x4 bin/blib.a(ethernet.o)
 .comment       0x0000000000000000       0x2b bin/blib.a(ethernet.o)
 .note.GNU-stack
                0x0000000000000000        0x0 bin/blib.a(ethernet.o)
 .text          0x0000000000000000        0x0 bin/blib.a(eth_slow.o)
 .data          0x0000000000000000        0x0 bin/blib.a(eth_slow.o)
 .bss           0x0000000000000000        0x0 bin/blib.a(eth_slow.o)
 .einfo         0x0000000000000000       0xa8 bin/blib.a(eth_slow.o)
 .comment       0x0000000000000000       0x2b bin/blib.a(eth_slow.o)
 .note.GNU-stack
                0x0000000000000000        0x0 bin/blib.a(eth_slow.o)
 .text          0x0000000000000000        0x0 bin/blib.a(fakedhcp.o)
 .data          0x0000000000000000        0x0 bin/blib.a(fakedhcp.o)
 .bss           0x0000000000000000        0x0 bin/blib.a(fakedhcp.o)
 .comment       0x0000000000000000       0x2b bin/blib.a(fakedhcp.o)
 .note.GNU-stack
                0x0000000000000000        0x0 bin/blib.a(fakedhcp.o)
 .text          0x0000000000000000        0x0 bin/blib.a(iobpad.o)
 .data          0x0000000000000000        0x0 bin/blib.a(iobpad.o)
 .bss           0x0000000000000000        0x0 bin/blib.a(iobpad.o)
 .comment       0x0000000000000000       0x2b bin/blib.a(iobpad.o)
 .note.GNU-stack
                0x0000000000000000        0x0 bin/blib.a(iobpad.o)
 .text          0x0000000000000000        0x0 bin/blib.a(ipv4.o)
 .data          0x0000000000000000        0x0 bin/blib.a(ipv4.o)
 .bss           0x0000000000000000        0x0 bin/blib.a(ipv4.o)
 .einfo         0x0000000000000000      0x108 bin/blib.a(ipv4.o)
 .discard       0x0000000000000000        0x4 bin/blib.a(ipv4.o)
 .comment       0x0000000000000000       0x2b bin/blib.a(ipv4.o)
 .note.GNU-stack
                0x0000000000000000        0x0 bin/blib.a(ipv4.o)
 .text          0x0000000000000000        0x0 bin/blib.a(neighbour.o)
 .data          0x0000000000000000        0x0 bin/blib.a(neighbour.o)
 .bss           0x0000000000000000        0x0 bin/blib.a(neighbour.o)
 .einfo         0x0000000000000000      0x1b0 bin/blib.a(neighbour.o)
 .text.neighbour_define
                0x0000000000000000       0x39 bin/blib.a(neighbour.o)
 .comment       0x0000000000000000       0x2b bin/blib.a(neighbour.o)
 .note.GNU-stack
                0x0000000000000000        0x0 bin/blib.a(neighbour.o)
 .text          0x0000000000000000        0x0 bin/blib.a(netdevice.o)
 .data          0x0000000000000000        0x0 bin/blib.a(netdevice.o)
 .bss           0x0000000000000000        0x0 bin/blib.a(netdevice.o)
 .einfo         0x0000000000000000      0x1b8 bin/blib.a(netdevice.o)
 .text.find_netdev_by_index
                0x0000000000000000       0x20 bin/blib.a(netdevice.o)
 .text.vlan_find
                0x0000000000000000        0x3 bin/blib.a(netdevice.o)
 .comment       0x0000000000000000       0x2b bin/blib.a(netdevice.o)
 .note.GNU-stack
                0x0000000000000000        0x0 bin/blib.a(netdevice.o)
 .text          0x0000000000000000        0x0 bin/blib.a(netdev_settings.o)
 .data          0x0000000000000000        0x0 bin/blib.a(netdev_settings.o)
 .bss           0x0000000000000000        0x0 bin/blib.a(netdev_settings.o)
 .einfo         0x0000000000000000       0x88 bin/blib.a(netdev_settings.o)
 .comment       0x0000000000000000       0x2b bin/blib.a(netdev_settings.o)
 .note.GNU-stack
                0x0000000000000000        0x0 bin/blib.a(netdev_settings.o)
 .text          0x0000000000000000        0x0 bin/blib.a(nullnet.o)
 .data          0x0000000000000000        0x0 bin/blib.a(nullnet.o)
 .bss           0x0000000000000000        0x0 bin/blib.a(nullnet.o)
 .einfo         0x0000000000000000       0x70 bin/blib.a(nullnet.o)
 .comment       0x0000000000000000       0x2b bin/blib.a(nullnet.o)
 .note.GNU-stack
                0x0000000000000000        0x0 bin/blib.a(nullnet.o)
 .text          0x0000000000000000        0x0 bin/blib.a(rarp.o)
 .data          0x0000000000000000        0x0 bin/blib.a(rarp.o)
 .bss           0x0000000000000000        0x0 bin/blib.a(rarp.o)
 .comment       0x0000000000000000       0x2b bin/blib.a(rarp.o)
 .note.GNU-stack
                0x0000000000000000        0x0 bin/blib.a(rarp.o)
 .text          0x0000000000000000        0x0 bin/blib.a(retry.o)
 .data          0x0000000000000000        0x0 bin/blib.a(retry.o)
 .bss           0x0000000000000000        0x0 bin/blib.a(retry.o)
 .comment       0x0000000000000000       0x2b bin/blib.a(retry.o)
 .note.GNU-stack
                0x0000000000000000        0x0 bin/blib.a(retry.o)
 .text          0x0000000000000000        0x0 bin/blib.a(tcpip.o)
 .data          0x0000000000000000        0x0 bin/blib.a(tcpip.o)
 .bss           0x0000000000000000        0x0 bin/blib.a(tcpip.o)
 .einfo         0x0000000000000000       0xb0 bin/blib.a(tcpip.o)
 .text.generic_tcpip_continue_chksum
                0x0000000000000000       0x37 bin/blib.a(tcpip.o)
 .comment       0x0000000000000000       0x2b bin/blib.a(tcpip.o)
 .note.GNU-stack
                0x0000000000000000        0x0 bin/blib.a(tcpip.o)
 .text          0x0000000000000000        0x0 bin/blib.a(udp.o)
 .data          0x0000000000000000        0x0 bin/blib.a(udp.o)
 .bss           0x0000000000000000        0x0 bin/blib.a(udp.o)
 .einfo         0x0000000000000000      0x198 bin/blib.a(udp.o)
 .comment       0x0000000000000000       0x2b bin/blib.a(udp.o)
 .note.GNU-stack
                0x0000000000000000        0x0 bin/blib.a(udp.o)
 .text          0x0000000000000000        0x0 bin/blib.a(http.o)
 .data          0x0000000000000000        0x0 bin/blib.a(http.o)
 .bss           0x0000000000000000        0x0 bin/blib.a(http.o)
 .comment       0x0000000000000000       0x2b bin/blib.a(http.o)
 .note.GNU-stack
                0x0000000000000000        0x0 bin/blib.a(http.o)
 .text          0x0000000000000000        0x0 bin/blib.a(httpcore.o)
 .data          0x0000000000000000        0x0 bin/blib.a(httpcore.o)
 .bss           0x0000000000000000        0x0 bin/blib.a(httpcore.o)
 .einfo         0x0000000000000000      0x568 bin/blib.a(httpcore.o)
 .comment       0x0000000000000000       0x2b bin/blib.a(httpcore.o)
 .note.GNU-stack
                0x0000000000000000        0x0 bin/blib.a(httpcore.o)
 .text          0x0000000000000000        0x0 bin/blib.a(iscsi.o)
 .data          0x0000000000000000        0x0 bin/blib.a(iscsi.o)
 .bss           0x0000000000000000        0x0 bin/blib.a(iscsi.o)
 .einfo         0x0000000000000000      0x9d8 bin/blib.a(iscsi.o)
 .comment       0x0000000000000000       0x2b bin/blib.a(iscsi.o)
 .note.GNU-stack
                0x0000000000000000        0x0 bin/blib.a(iscsi.o)
 .text          0x0000000000000000        0x0 bin/blib.a(dhcp.o)
 .data          0x0000000000000000        0x0 bin/blib.a(dhcp.o)
 .bss           0x0000000000000000        0x0 bin/blib.a(dhcp.o)
 .einfo         0x0000000000000000      0x238 bin/blib.a(dhcp.o)
 .text.dhcp_chaddr
                0x0000000000000000       0x5f bin/blib.a(dhcp.o)
 .comment       0x0000000000000000       0x2b bin/blib.a(dhcp.o)
 .note.GNU-stack
                0x0000000000000000        0x0 bin/blib.a(dhcp.o)
 .text          0x0000000000000000        0x0 bin/blib.a(dns.o)
 .data          0x0000000000000000        0x0 bin/blib.a(dns.o)
 .bss           0x0000000000000000        0x0 bin/blib.a(dns.o)
 .einfo         0x0000000000000000      0x288 bin/blib.a(dns.o)
 .comment       0x0000000000000000       0x2b bin/blib.a(dns.o)
 .note.GNU-stack
                0x0000000000000000        0x0 bin/blib.a(dns.o)
 .text          0x0000000000000000        0x0 bin/blib.a(tftp.o)
 .data          0x0000000000000000        0x0 bin/blib.a(tftp.o)
 .bss           0x0000000000000000        0x0 bin/blib.a(tftp.o)
 .einfo         0x0000000000000000      0x5b0 bin/blib.a(tftp.o)
 .text.tftp_set_mtftp_address
                0x0000000000000000        0x6 bin/blib.a(tftp.o)
 .text.tftp_set_mtftp_port
                0x0000000000000000        0x9 bin/blib.a(tftp.o)
 .comment       0x0000000000000000       0x2b bin/blib.a(tftp.o)
 .note.GNU-stack
                0x0000000000000000        0x0 bin/blib.a(tftp.o)
 .text          0x0000000000000000        0x0 bin/blib.a(elf.o)
 .data          0x0000000000000000        0x0 bin/blib.a(elf.o)
 .bss           0x0000000000000000        0x0 bin/blib.a(elf.o)
 .einfo         0x0000000000000000      0x118 bin/blib.a(elf.o)
 .comment       0x0000000000000000       0x2b bin/blib.a(elf.o)
 .note.GNU-stack
                0x0000000000000000        0x0 bin/blib.a(elf.o)
 .text          0x0000000000000000        0x0 bin/blib.a(embedded.o)
 .data          0x0000000000000000        0x0 bin/blib.a(embedded.o)
 .bss           0x0000000000000000        0x0 bin/blib.a(embedded.o)
 .comment       0x0000000000000000       0x2b bin/blib.a(embedded.o)
 .note.GNU-stack
                0x0000000000000000        0x0 bin/blib.a(embedded.o)
 .text          0x0000000000000000        0x0 bin/blib.a(script.o)
 .data          0x0000000000000000        0x0 bin/blib.a(script.o)
 .bss           0x0000000000000000        0x0 bin/blib.a(script.o)
 .einfo         0x0000000000000000      0x1e0 bin/blib.a(script.o)
 .comment       0x0000000000000000       0x2b bin/blib.a(script.o)
 .note.GNU-stack
                0x0000000000000000        0x0 bin/blib.a(script.o)
 .text          0x0000000000000000        0x0 bin/blib.a(segment.o)
 .data          0x0000000000000000        0x0 bin/blib.a(segment.o)
 .bss           0x0000000000000000        0x0 bin/blib.a(segment.o)
 .einfo         0x0000000000000000       0x80 bin/blib.a(segment.o)
 .comment       0x0000000000000000       0x2b bin/blib.a(segment.o)
 .note.GNU-stack
                0x0000000000000000        0x0 bin/blib.a(segment.o)
 .text          0x0000000000000000        0x0 bin/blib.a(pci.o)
 .data          0x0000000000000000        0x0 bin/blib.a(pci.o)
 .bss           0x0000000000000000        0x0 bin/blib.a(pci.o)
 .text.pci_bar_start
                0x0000000000000000       0x15 bin/blib.a(pci.o)
 .einfo         0x0000000000000000      0x120 bin/blib.a(pci.o)
 .comment       0x0000000000000000       0x2b bin/blib.a(pci.o)
 .note.GNU-stack
                0x0000000000000000        0x0 bin/blib.a(pci.o)
 .text          0x0000000000000000        0x0 bin/blib.a(pci_settings.o)
 .data          0x0000000000000000        0x0 bin/blib.a(pci_settings.o)
 .bss           0x0000000000000000        0x0 bin/blib.a(pci_settings.o)
 .comment       0x0000000000000000       0x2b bin/blib.a(pci_settings.o)
 .note.GNU-stack
                0x0000000000000000        0x0 bin/blib.a(pci_settings.o)
 .text          0x0000000000000000        0x0 bin/blib.a(mii.o)
 .data          0x0000000000000000        0x0 bin/blib.a(mii.o)
 .bss           0x0000000000000000        0x0 bin/blib.a(mii.o)
 .einfo         0x0000000000000000       0x40 bin/blib.a(mii.o)
 .comment       0x0000000000000000       0x2b bin/blib.a(mii.o)
 .note.GNU-stack
                0x0000000000000000        0x0 bin/blib.a(mii.o)
 .text          0x0000000000000000        0x0 bin/blib.a(ibft.o)
 .data          0x0000000000000000        0x0 bin/blib.a(ibft.o)
 .bss           0x0000000000000000        0x0 bin/blib.a(ibft.o)
 .einfo         0x0000000000000000       0xc8 bin/blib.a(ibft.o)
 .comment       0x0000000000000000       0x2b bin/blib.a(ibft.o)
 .note.GNU-stack
                0x0000000000000000        0x0 bin/blib.a(ibft.o)
 .text          0x0000000000000000        0x0 bin/blib.a(scsi.o)
 .data          0x0000000000000000        0x0 bin/blib.a(scsi.o)
 .bss           0x0000000000000000        0x0 bin/blib.a(scsi.o)
 .einfo         0x0000000000000000      0x538 bin/blib.a(scsi.o)
 .comment       0x0000000000000000       0x2b bin/blib.a(scsi.o)
 .note.GNU-stack
                0x0000000000000000        0x0 bin/blib.a(scsi.o)
 .text          0x0000000000000000        0x0 bin/blib.a(bitbash.o)
 .data          0x0000000000000000        0x0 bin/blib.a(bitbash.o)
 .bss           0x0000000000000000        0x0 bin/blib.a(bitbash.o)
 .comment       0x0000000000000000       0x2b bin/blib.a(bitbash.o)
 .note.GNU-stack
                0x0000000000000000        0x0 bin/blib.a(bitbash.o)
 .text          0x0000000000000000        0x0 bin/blib.a(smbios_settings.o)
 .data          0x0000000000000000        0x0 bin/blib.a(smbios_settings.o)
 .bss           0x0000000000000000        0x0 bin/blib.a(smbios_settings.o)
 .comment       0x0000000000000000       0x2b bin/blib.a(smbios_settings.o)
 .note.GNU-stack
                0x0000000000000000        0x0 bin/blib.a(smbios_settings.o)
 .text          0x0000000000000000        0x0 bin/blib.a(chap.o)
 .data          0x0000000000000000        0x0 bin/blib.a(chap.o)
 .bss           0x0000000000000000        0x0 bin/blib.a(chap.o)
 .einfo         0x0000000000000000       0x38 bin/blib.a(chap.o)
 .comment       0x0000000000000000       0x2b bin/blib.a(chap.o)
 .note.GNU-stack
                0x0000000000000000        0x0 bin/blib.a(chap.o)
 .text          0x0000000000000000        0x0 bin/blib.a(md5.o)
 .data          0x0000000000000000        0x0 bin/blib.a(md5.o)
 .bss           0x0000000000000000        0x0 bin/blib.a(md5.o)
 .comment       0x0000000000000000       0x2b bin/blib.a(md5.o)
 .note.GNU-stack
                0x0000000000000000        0x0 bin/blib.a(md5.o)
 .text          0x0000000000000000        0x0 bin/blib.a(strerror.o)
 .data          0x0000000000000000        0x0 bin/blib.a(strerror.o)
 .bss           0x0000000000000000        0x0 bin/blib.a(strerror.o)
 .comment       0x0000000000000000       0x2b bin/blib.a(strerror.o)
 .note.GNU-stack
                0x0000000000000000        0x0 bin/blib.a(strerror.o)
 .text          0x0000000000000000        0x0 bin/blib.a(autoboot_cmd.o)
 .data          0x0000000000000000        0x0 bin/blib.a(autoboot_cmd.o)
 .bss           0x0000000000000000        0x0 bin/blib.a(autoboot_cmd.o)
 .comment       0x0000000000000000       0x2b bin/blib.a(autoboot_cmd.o)
 .note.GNU-stack
                0x0000000000000000        0x0 bin/blib.a(autoboot_cmd.o)
 .text          0x0000000000000000        0x0 bin/blib.a(config_cmd.o)
 .data          0x0000000000000000        0x0 bin/blib.a(config_cmd.o)
 .bss           0x0000000000000000        0x0 bin/blib.a(config_cmd.o)
 .comment       0x0000000000000000       0x2b bin/blib.a(config_cmd.o)
 .note.GNU-stack
                0x0000000000000000        0x0 bin/blib.a(config_cmd.o)
 .text          0x0000000000000000        0x0 bin/blib.a(dhcp_cmd.o)
 .data          0x0000000000000000        0x0 bin/blib.a(dhcp_cmd.o)
 .bss           0x0000000000000000        0x0 bin/blib.a(dhcp_cmd.o)
 .comment       0x0000000000000000       0x2b bin/blib.a(dhcp_cmd.o)
 .note.GNU-stack
                0x0000000000000000        0x0 bin/blib.a(dhcp_cmd.o)
 .text          0x0000000000000000        0x0 bin/blib.a(ifmgmt_cmd.o)
 .data          0x0000000000000000        0x0 bin/blib.a(ifmgmt_cmd.o)
 .bss           0x0000000000000000        0x0 bin/blib.a(ifmgmt_cmd.o)
 .einfo         0x0000000000000000       0x40 bin/blib.a(ifmgmt_cmd.o)
 .comment       0x0000000000000000       0x2b bin/blib.a(ifmgmt_cmd.o)
 .note.GNU-stack
                0x0000000000000000        0x0 bin/blib.a(ifmgmt_cmd.o)
 .text          0x0000000000000000        0x0 bin/blib.a(image_cmd.o)
 .data          0x0000000000000000        0x0 bin/blib.a(image_cmd.o)
 .bss           0x0000000000000000        0x0 bin/blib.a(image_cmd.o)
 .einfo         0x0000000000000000       0x88 bin/blib.a(image_cmd.o)
 .comment       0x0000000000000000       0x2b bin/blib.a(image_cmd.o)
 .note.GNU-stack
                0x0000000000000000        0x0 bin/blib.a(image_cmd.o)
 .text          0x0000000000000000        0x0 bin/blib.a(login_cmd.o)
 .data          0x0000000000000000        0x0 bin/blib.a(login_cmd.o)
 .bss           0x0000000000000000        0x0 bin/blib.a(login_cmd.o)
 .comment       0x0000000000000000       0x2b bin/blib.a(login_cmd.o)
 .note.GNU-stack
                0x0000000000000000        0x0 bin/blib.a(login_cmd.o)
 .text          0x0000000000000000        0x0 bin/blib.a(menu_cmd.o)
 .data          0x0000000000000000        0x0 bin/blib.a(menu_cmd.o)
 .bss           0x0000000000000000        0x0 bin/blib.a(menu_cmd.o)
 .einfo         0x0000000000000000      0x100 bin/blib.a(menu_cmd.o)
 .comment       0x0000000000000000       0x2b bin/blib.a(menu_cmd.o)
 .note.GNU-stack
                0x0000000000000000        0x0 bin/blib.a(menu_cmd.o)
 .text          0x0000000000000000        0x0 bin/blib.a(nvo_cmd.o)
 .data          0x0000000000000000        0x0 bin/blib.a(nvo_cmd.o)
 .bss           0x0000000000000000        0x0 bin/blib.a(nvo_cmd.o)
 .einfo         0x0000000000000000       0x40 bin/blib.a(nvo_cmd.o)
 .comment       0x0000000000000000       0x2b bin/blib.a(nvo_cmd.o)
 .note.GNU-stack
                0x0000000000000000        0x0 bin/blib.a(nvo_cmd.o)
 .text          0x0000000000000000        0x0 bin/blib.a(reboot_cmd.o)
 .data          0x0000000000000000        0x0 bin/blib.a(reboot_cmd.o)
 .bss           0x0000000000000000        0x0 bin/blib.a(reboot_cmd.o)
 .comment       0x0000000000000000       0x2b bin/blib.a(reboot_cmd.o)
 .note.GNU-stack
                0x0000000000000000        0x0 bin/blib.a(reboot_cmd.o)
 .text          0x0000000000000000        0x0 bin/blib.a(route_cmd.o)
 .data          0x0000000000000000        0x0 bin/blib.a(route_cmd.o)
 .bss           0x0000000000000000        0x0 bin/blib.a(route_cmd.o)
 .comment       0x0000000000000000       0x2b bin/blib.a(route_cmd.o)
 .note.GNU-stack
                0x0000000000000000        0x0 bin/blib.a(route_cmd.o)
 .text          0x0000000000000000        0x0 bin/blib.a(sanboot_cmd.o)
 .data          0x0000000000000000        0x0 bin/blib.a(sanboot_cmd.o)
 .bss           0x0000000000000000        0x0 bin/blib.a(sanboot_cmd.o)
 .einfo         0x0000000000000000       0x40 bin/blib.a(sanboot_cmd.o)
 .comment       0x0000000000000000       0x2b bin/blib.a(sanboot_cmd.o)
 .note.GNU-stack
                0x0000000000000000        0x0 bin/blib.a(sanboot_cmd.o)
 .text          0x0000000000000000        0x0 bin/blib.a(sync_cmd.o)
 .data          0x0000000000000000        0x0 bin/blib.a(sync_cmd.o)
 .bss           0x0000000000000000        0x0 bin/blib.a(sync_cmd.o)
 .comment       0x0000000000000000       0x2b bin/blib.a(sync_cmd.o)
 .note.GNU-stack
                0x0000000000000000        0x0 bin/blib.a(sync_cmd.o)
 .text          0x0000000000000000        0x0 bin/blib.a(login_ui.o)
 .data          0x0000000000000000        0x0 bin/blib.a(login_ui.o)
 .bss           0x0000000000000000        0x0 bin/blib.a(login_ui.o)
 .einfo         0x0000000000000000       0xc0 bin/blib.a(login_ui.o)
 .comment       0x0000000000000000       0x2b bin/blib.a(login_ui.o)
 .note.GNU-stack
                0x0000000000000000        0x0 bin/blib.a(login_ui.o)
 .text          0x0000000000000000        0x0 bin/blib.a(menu_ui.o)
 .data          0x0000000000000000        0x0 bin/blib.a(menu_ui.o)
 .bss           0x0000000000000000        0x0 bin/blib.a(menu_ui.o)
 .einfo         0x0000000000000000       0x80 bin/blib.a(menu_ui.o)
 .comment       0x0000000000000000       0x2b bin/blib.a(menu_ui.o)
 .note.GNU-stack
                0x0000000000000000        0x0 bin/blib.a(menu_ui.o)
 .text          0x0000000000000000        0x0 bin/blib.a(settings_ui.o)
 .data          0x0000000000000000        0x0 bin/blib.a(settings_ui.o)
 .bss           0x0000000000000000        0x0 bin/blib.a(settings_ui.o)
 .comment       0x0000000000000000       0x2b bin/blib.a(settings_ui.o)
 .note.GNU-stack
                0x0000000000000000        0x0 bin/blib.a(settings_ui.o)
 .text          0x0000000000000000        0x0 bin/blib.a(ansi_screen.o)
 .data          0x0000000000000000        0x0 bin/blib.a(ansi_screen.o)
 .bss           0x0000000000000000        0x0 bin/blib.a(ansi_screen.o)
 .comment       0x0000000000000000       0x2b bin/blib.a(ansi_screen.o)
 .note.GNU-stack
                0x0000000000000000        0x0 bin/blib.a(ansi_screen.o)
 .text          0x0000000000000000        0x0 bin/blib.a(clear.o)
 .data          0x0000000000000000        0x0 bin/blib.a(clear.o)
 .bss           0x0000000000000000        0x0 bin/blib.a(clear.o)
 .text.wdelch   0x0000000000000000       0x1d bin/blib.a(clear.o)
 .text.wdeleteln
                0x0000000000000000       0x2c bin/blib.a(clear.o)
 .comment       0x0000000000000000       0x2b bin/blib.a(clear.o)
 .note.GNU-stack
                0x0000000000000000        0x0 bin/blib.a(clear.o)
 .text          0x0000000000000000        0x0 bin/blib.a(colour.o)
 .data          0x0000000000000000        0x0 bin/blib.a(colour.o)
 .bss           0x0000000000000000        0x0 bin/blib.a(colour.o)
 .text.colour_content
                0x0000000000000000       0x28 bin/blib.a(colour.o)
 .comment       0x0000000000000000       0x2b bin/blib.a(colour.o)
 .note.GNU-stack
                0x0000000000000000        0x0 bin/blib.a(colour.o)
 .text          0x0000000000000000        0x0 bin/blib.a(mucurses.o)
 .data          0x0000000000000000        0x0 bin/blib.a(mucurses.o)
 .bss           0x0000000000000000        0x0 bin/blib.a(mucurses.o)
 .text._wcursback
                0x0000000000000000       0x2d bin/blib.a(mucurses.o)
 .text._wputchstr
                0x0000000000000000       0x2e bin/blib.a(mucurses.o)
 .comment       0x0000000000000000       0x2b bin/blib.a(mucurses.o)
 .note.GNU-stack
                0x0000000000000000        0x0 bin/blib.a(mucurses.o)
 .text          0x0000000000000000        0x0 bin/blib.a(print.o)
 .data          0x0000000000000000        0x0 bin/blib.a(print.o)
 .bss           0x0000000000000000        0x0 bin/blib.a(print.o)
 .text.waddch   0x0000000000000000        0xa bin/blib.a(print.o)
 .comment       0x0000000000000000       0x2b bin/blib.a(print.o)
 .note.GNU-stack
                0x0000000000000000        0x0 bin/blib.a(print.o)
 .text          0x0000000000000000        0x0 bin/blib.a(winattrs.o)
 .data          0x0000000000000000        0x0 bin/blib.a(winattrs.o)
 .bss           0x0000000000000000        0x0 bin/blib.a(winattrs.o)
 .text.getbkgd  0x0000000000000000        0x4 bin/blib.a(winattrs.o)
 .text.wattr_get
                0x0000000000000000       0x18 bin/blib.a(winattrs.o)
 .text.wattr_off
                0x0000000000000000        0x8 bin/blib.a(winattrs.o)
 .text.wattr_on
                0x0000000000000000        0x6 bin/blib.a(winattrs.o)
 .text.wattr_set
                0x0000000000000000       0x1d bin/blib.a(winattrs.o)
 .comment       0x0000000000000000       0x2b bin/blib.a(winattrs.o)
 .note.GNU-stack
                0x0000000000000000        0x0 bin/blib.a(winattrs.o)
 .text          0x0000000000000000        0x0 bin/blib.a(wininit.o)
 .data          0x0000000000000000        0x0 bin/blib.a(wininit.o)
 .bss           0x0000000000000000        0x0 bin/blib.a(wininit.o)
 .comment       0x0000000000000000       0x2b bin/blib.a(wininit.o)
 .note.GNU-stack
                0x0000000000000000        0x0 bin/blib.a(wininit.o)
 .text          0x0000000000000000        0x0 bin/blib.a(editbox.o)
 .data          0x0000000000000000        0x0 bin/blib.a(editbox.o)
 .bss           0x0000000000000000        0x0 bin/blib.a(editbox.o)
 .comment       0x0000000000000000       0x2b bin/blib.a(editbox.o)
 .note.GNU-stack
                0x0000000000000000        0x0 bin/blib.a(editbox.o)
 .text          0x0000000000000000        0x0 bin/blib.a(keymap_us.o)
 .data          0x0000000000000000        0x0 bin/blib.a(keymap_us.o)
 .bss           0x0000000000000000        0x0 bin/blib.a(keymap_us.o)
 .comment       0x0000000000000000       0x2b bin/blib.a(keymap_us.o)
 .note.GNU-stack
                0x0000000000000000        0x0 bin/blib.a(keymap_us.o)
 .text          0x0000000000000000        0x0 bin/blib.a(autoboot.o)
 .data          0x0000000000000000        0x0 bin/blib.a(autoboot.o)
 .bss           0x0000000000000000        0x0 bin/blib.a(autoboot.o)
 .text.pxe_menu_boot
                0x0000000000000000        0x6 bin/blib.a(autoboot.o)
 .einfo         0x0000000000000000       0xb0 bin/blib.a(autoboot.o)
 .comment       0x0000000000000000       0x2b bin/blib.a(autoboot.o)
 .note.GNU-stack
                0x0000000000000000        0x0 bin/blib.a(autoboot.o)
 .text          0x0000000000000000        0x0 bin/blib.a(dhcpmgmt.o)
 .data          0x0000000000000000        0x0 bin/blib.a(dhcpmgmt.o)
 .bss           0x0000000000000000        0x0 bin/blib.a(dhcpmgmt.o)
 .comment       0x0000000000000000       0x2b bin/blib.a(dhcpmgmt.o)
 .note.GNU-stack
                0x0000000000000000        0x0 bin/blib.a(dhcpmgmt.o)
 .text          0x0000000000000000        0x0 bin/blib.a(ifmgmt.o)
 .data          0x0000000000000000        0x0 bin/blib.a(ifmgmt.o)
 .bss           0x0000000000000000        0x0 bin/blib.a(ifmgmt.o)
 .einfo         0x0000000000000000       0x38 bin/blib.a(ifmgmt.o)
 .comment       0x0000000000000000       0x2b bin/blib.a(ifmgmt.o)
 .note.GNU-stack
                0x0000000000000000        0x0 bin/blib.a(ifmgmt.o)
 .text          0x0000000000000000        0x0 bin/blib.a(imgmgmt.o)
 .data          0x0000000000000000        0x0 bin/blib.a(imgmgmt.o)
 .bss           0x0000000000000000        0x0 bin/blib.a(imgmgmt.o)
 .einfo         0x0000000000000000       0x70 bin/blib.a(imgmgmt.o)
 .comment       0x0000000000000000       0x2b bin/blib.a(imgmgmt.o)
 .note.GNU-stack
                0x0000000000000000        0x0 bin/blib.a(imgmgmt.o)
 .text          0x0000000000000000        0x0 bin/blib.a(prompt.o)
 .data          0x0000000000000000        0x0 bin/blib.a(prompt.o)
 .bss           0x0000000000000000        0x0 bin/blib.a(prompt.o)
 .einfo         0x0000000000000000       0x70 bin/blib.a(prompt.o)
 .comment       0x0000000000000000       0x2b bin/blib.a(prompt.o)
 .note.GNU-stack
                0x0000000000000000        0x0 bin/blib.a(prompt.o)
 .text          0x0000000000000000        0x0 bin/blib.a(pxemenu.o)
 .data          0x0000000000000000        0x0 bin/blib.a(pxemenu.o)
 .bss           0x0000000000000000        0x0 bin/blib.a(pxemenu.o)
 .einfo         0x0000000000000000      0x120 bin/blib.a(pxemenu.o)
 .comment       0x0000000000000000       0x2b bin/blib.a(pxemenu.o)
 .note.GNU-stack
                0x0000000000000000        0x0 bin/blib.a(pxemenu.o)
 .text          0x0000000000000000        0x0 bin/blib.a(route.o)
 .data          0x0000000000000000        0x0 bin/blib.a(route.o)
 .bss           0x0000000000000000        0x0 bin/blib.a(route.o)
 .comment       0x0000000000000000       0x2b bin/blib.a(route.o)
 .note.GNU-stack
                0x0000000000000000        0x0 bin/blib.a(route.o)
 .text          0x0000000000000000        0x0 bin/blib.a(config_ethernet.o)
 .data          0x0000000000000000        0x0 bin/blib.a(config_ethernet.o)
 .bss           0x0000000000000000        0x0 bin/blib.a(config_ethernet.o)
 .discard       0x0000000000000000        0x4 bin/blib.a(config_ethernet.o)
 .comment       0x0000000000000000       0x2b bin/blib.a(config_ethernet.o)
 .note.GNU-stack
                0x0000000000000000        0x0 bin/blib.a(config_ethernet.o)
 .text          0x0000000000000000        0x0 bin/blib.a(config_romprefix.o)
 .data          0x0000000000000000        0x0 bin/blib.a(config_romprefix.o)
 .bss           0x0000000000000000        0x0 bin/blib.a(config_romprefix.o)
 .discard       0x0000000000000000        0x4 bin/blib.a(config_romprefix.o)
 .comment       0x0000000000000000       0x2b bin/blib.a(config_romprefix.o)
 .note.GNU-stack
                0x0000000000000000        0x0 bin/blib.a(config_romprefix.o)
 .text          0x0000000000000000        0x0 bin/blib.a(config_route.o)
 .data          0x0000000000000000        0x0 bin/blib.a(config_route.o)
 .bss           0x0000000000000000        0x0 bin/blib.a(config_route.o)
 .discard       0x0000000000000000        0x4 bin/blib.a(config_route.o)
 .comment       0x0000000000000000       0x2b bin/blib.a(config_route.o)
 .note.GNU-stack
                0x0000000000000000        0x0 bin/blib.a(config_route.o)
 .text          0x0000000000000000        0x0 bin/blib.a(basemem_packet.o)
 .data          0x0000000000000000        0x0 bin/blib.a(basemem_packet.o)
 .bss           0x0000000000000000        0x0 bin/blib.a(basemem_packet.o)
 .comment       0x0000000000000000       0x2b bin/blib.a(basemem_packet.o)
 .note.GNU-stack
                0x0000000000000000        0x0 bin/blib.a(basemem_packet.o)
 .text          0x0000000000000000        0x0 bin/blib.a(relocate.o)
 .data          0x0000000000000000        0x0 bin/blib.a(relocate.o)
 .bss           0x0000000000000000        0x0 bin/blib.a(relocate.o)
 .comment       0x0000000000000000       0x2b bin/blib.a(relocate.o)
 .note.GNU-stack
                0x0000000000000000        0x0 bin/blib.a(relocate.o)
 .text          0x0000000000000000        0x0 bin/blib.a(memmap.o)
 .data          0x0000000000000000        0x0 bin/blib.a(memmap.o)
 .bss           0x0000000000000000        0x0 bin/blib.a(memmap.o)
 .einfo         0x0000000000000000      0x218 bin/blib.a(memmap.o)
 .comment       0x0000000000000000       0x2b bin/blib.a(memmap.o)
 .note.GNU-stack
                0x0000000000000000        0x0 bin/blib.a(memmap.o)
 .text          0x0000000000000000        0x0 bin/blib.a(biosint.o)
 .data          0x0000000000000000        0x0 bin/blib.a(biosint.o)
 .bss           0x0000000000000000        0x0 bin/blib.a(biosint.o)
 .einfo         0x0000000000000000       0x58 bin/blib.a(biosint.o)
 .comment       0x0000000000000000       0x2b bin/blib.a(biosint.o)
 .note.GNU-stack
                0x0000000000000000        0x0 bin/blib.a(biosint.o)
 .text          0x0000000000000000        0x0 bin/blib.a(bios_nap.o)
 .data          0x0000000000000000        0x0 bin/blib.a(bios_nap.o)
 .bss           0x0000000000000000        0x0 bin/blib.a(bios_nap.o)
 .comment       0x0000000000000000       0x2b bin/blib.a(bios_nap.o)
 .note.GNU-stack
                0x0000000000000000        0x0 bin/blib.a(bios_nap.o)
 .text          0x0000000000000000        0x0 bin/blib.a(bios_reboot.o)
 .data          0x0000000000000000        0x0 bin/blib.a(bios_reboot.o)
 .bss           0x0000000000000000        0x0 bin/blib.a(bios_reboot.o)
 .comment       0x0000000000000000       0x2b bin/blib.a(bios_reboot.o)
 .note.GNU-stack
                0x0000000000000000        0x0 bin/blib.a(bios_reboot.o)
 .text          0x0000000000000000        0x0 bin/blib.a(bios_timer.o)
 .data          0x0000000000000000        0x0 bin/blib.a(bios_timer.o)
 .bss           0x0000000000000000        0x0 bin/blib.a(bios_timer.o)
 .comment       0x0000000000000000       0x2b bin/blib.a(bios_timer.o)
 .note.GNU-stack
                0x0000000000000000        0x0 bin/blib.a(bios_timer.o)
 .text          0x0000000000000000        0x0 bin/blib.a(int13.o)
 .data          0x0000000000000000        0x0 bin/blib.a(int13.o)
 .bss           0x0000000000000000        0x0 bin/blib.a(int13.o)
 .einfo         0x0000000000000000      0x628 bin/blib.a(int13.o)
 .comment       0x0000000000000000       0x2b bin/blib.a(int13.o)
 .note.GNU-stack
                0x0000000000000000        0x0 bin/blib.a(int13.o)
 .text          0x0000000000000000        0x0 bin/blib.a(memtop_umalloc.o)
 .data          0x0000000000000000        0x0 bin/blib.a(memtop_umalloc.o)
 .bss           0x0000000000000000        0x0 bin/blib.a(memtop_umalloc.o)
 .comment       0x0000000000000000       0x2b bin/blib.a(memtop_umalloc.o)
 .note.GNU-stack
                0x0000000000000000        0x0 bin/blib.a(memtop_umalloc.o)
 .text          0x0000000000000000        0x0 bin/blib.a(pcibios.o)
 .data          0x0000000000000000        0x0 bin/blib.a(pcibios.o)
 .bss           0x0000000000000000        0x0 bin/blib.a(pcibios.o)
 .comment       0x0000000000000000       0x2b bin/blib.a(pcibios.o)
 .note.GNU-stack
                0x0000000000000000        0x0 bin/blib.a(pcibios.o)
 .text          0x0000000000000000        0x0 bin/blib.a(cpuid.o)
 .data          0x0000000000000000        0x0 bin/blib.a(cpuid.o)
 .bss           0x0000000000000000        0x0 bin/blib.a(cpuid.o)
 .comment       0x0000000000000000       0x2b bin/blib.a(cpuid.o)
 .note.GNU-stack
                0x0000000000000000        0x0 bin/blib.a(cpuid.o)
 .text          0x0000000000000000        0x0 bin/blib.a(x86_tcpip.o)
 .data          0x0000000000000000        0x0 bin/blib.a(x86_tcpip.o)
 .bss           0x0000000000000000        0x0 bin/blib.a(x86_tcpip.o)
 .comment       0x0000000000000000       0x2b bin/blib.a(x86_tcpip.o)
 .note.GNU-stack
                0x0000000000000000        0x0 bin/blib.a(x86_tcpip.o)
 .text          0x0000000000000000        0x0 bin/blib.a(stack16.o)
 .data          0x0000000000000000        0x0 bin/blib.a(stack16.o)
 .bss           0x0000000000000000        0x0 bin/blib.a(stack16.o)
 .note          0x0000000000000000       0x14 bin/blib.a(stack16.o)
 .text          0x0000000000000000        0x0 bin/blib.a(stack.o)
 .data          0x0000000000000000        0x0 bin/blib.a(stack.o)
 .bss           0x0000000000000000        0x0 bin/blib.a(stack.o)
 .note          0x0000000000000000       0x14 bin/blib.a(stack.o)
 .text          0x0000000000000000        0x0 bin/blib.a(liba20.o)
 .data          0x0000000000000000        0x0 bin/blib.a(liba20.o)
 .bss           0x0000000000000000        0x0 bin/blib.a(liba20.o)
 .note          0x0000000000000000       0x14 bin/blib.a(liba20.o)
 .text          0x0000000000000000        0x0 bin/blib.a(undiloader.o)
 .data          0x0000000000000000        0x0 bin/blib.a(undiloader.o)
 .bss           0x0000000000000000        0x0 bin/blib.a(undiloader.o)
 .note          0x0000000000000000       0x14 bin/blib.a(undiloader.o)
 .text          0x0000000000000000        0x0 bin/blib.a(acpi.o)
 .data          0x0000000000000000        0x0 bin/blib.a(acpi.o)
 .bss           0x0000000000000000        0x0 bin/blib.a(acpi.o)
 .einfo         0x0000000000000000       0x48 bin/blib.a(acpi.o)
 .comment       0x0000000000000000       0x2b bin/blib.a(acpi.o)
 .note.GNU-stack
                0x0000000000000000        0x0 bin/blib.a(acpi.o)
 .text          0x0000000000000000        0x0 bin/blib.a(asprintf.o)
 .data          0x0000000000000000        0x0 bin/blib.a(asprintf.o)
 .bss           0x0000000000000000        0x0 bin/blib.a(asprintf.o)
 .einfo         0x0000000000000000       0x38 bin/blib.a(asprintf.o)
 .comment       0x0000000000000000       0x2b bin/blib.a(asprintf.o)
 .note.GNU-stack
                0x0000000000000000        0x0 bin/blib.a(asprintf.o)
 .text          0x0000000000000000        0x0 bin/blib.a(base16.o)
 .data          0x0000000000000000        0x0 bin/blib.a(base16.o)
 .bss           0x0000000000000000        0x0 bin/blib.a(base16.o)
 .einfo         0x0000000000000000       0xa8 bin/blib.a(base16.o)
 .comment       0x0000000000000000       0x2b bin/blib.a(base16.o)
 .note.GNU-stack
                0x0000000000000000        0x0 bin/blib.a(base16.o)
 .text          0x0000000000000000        0x0 bin/blib.a(base64.o)
 .data          0x0000000000000000        0x0 bin/blib.a(base64.o)
 .bss           0x0000000000000000        0x0 bin/blib.a(base64.o)
 .einfo         0x0000000000000000       0xe0 bin/blib.a(base64.o)
 .comment       0x0000000000000000       0x2b bin/blib.a(base64.o)
 .note.GNU-stack
                0x0000000000000000        0x0 bin/blib.a(base64.o)
 .text          0x0000000000000000        0x0 bin/blib.a(basename.o)
 .data          0x0000000000000000        0x0 bin/blib.a(basename.o)
 .bss           0x0000000000000000        0x0 bin/blib.a(basename.o)
 .comment       0x0000000000000000       0x2b bin/blib.a(basename.o)
 .note.GNU-stack
                0x0000000000000000        0x0 bin/blib.a(basename.o)
 .text          0x0000000000000000        0x0 bin/blib.a(bitmap.o)
 .data          0x0000000000000000        0x0 bin/blib.a(bitmap.o)
 .bss           0x0000000000000000        0x0 bin/blib.a(bitmap.o)
 .einfo         0x0000000000000000       0x38 bin/blib.a(bitmap.o)
 .comment       0x0000000000000000       0x2b bin/blib.a(bitmap.o)
 .note.GNU-stack
                0x0000000000000000        0x0 bin/blib.a(bitmap.o)
 .text          0x0000000000000000        0x0 bin/blib.a(bitops.o)
 .data          0x0000000000000000        0x0 bin/blib.a(bitops.o)
 .bss           0x0000000000000000        0x0 bin/blib.a(bitops.o)
 .comment       0x0000000000000000       0x2b bin/blib.a(bitops.o)
 .note.GNU-stack
                0x0000000000000000        0x0 bin/blib.a(bitops.o)
 .text          0x0000000000000000        0x0 bin/blib.a(blockdev.o)
 .data          0x0000000000000000        0x0 bin/blib.a(blockdev.o)
 .bss           0x0000000000000000        0x0 bin/blib.a(blockdev.o)
 .einfo         0x0000000000000000       0xd8 bin/blib.a(blockdev.o)
 .comment       0x0000000000000000       0x2b bin/blib.a(blockdev.o)
 .note.GNU-stack
                0x0000000000000000        0x0 bin/blib.a(blockdev.o)
 .text          0x0000000000000000        0x0 bin/blib.a(console.o)
 .data          0x0000000000000000        0x0 bin/blib.a(console.o)
 .bss           0x0000000000000000        0x0 bin/blib.a(console.o)
 .comment       0x0000000000000000       0x2b bin/blib.a(console.o)
 .note.GNU-stack
                0x0000000000000000        0x0 bin/blib.a(console.o)
 .text          0x0000000000000000        0x0 bin/blib.a(ctype.o)
 .data          0x0000000000000000        0x0 bin/blib.a(ctype.o)
 .bss           0x0000000000000000        0x0 bin/blib.a(ctype.o)
 .comment       0x0000000000000000       0x2b bin/blib.a(ctype.o)
 .note.GNU-stack
                0x0000000000000000        0x0 bin/blib.a(ctype.o)
 .text          0x0000000000000000        0x0 bin/blib.a(cwuri.o)
 .data          0x0000000000000000        0x0 bin/blib.a(cwuri.o)
 .bss           0x0000000000000000        0x0 bin/blib.a(cwuri.o)
 .comment       0x0000000000000000       0x2b bin/blib.a(cwuri.o)
 .note.GNU-stack
                0x0000000000000000        0x0 bin/blib.a(cwuri.o)
 .text          0x0000000000000000        0x0 bin/blib.a(downloader.o)
 .data          0x0000000000000000        0x0 bin/blib.a(downloader.o)
 .bss           0x0000000000000000        0x0 bin/blib.a(downloader.o)
 .einfo         0x0000000000000000       0x78 bin/blib.a(downloader.o)
 .comment       0x0000000000000000       0x2b bin/blib.a(downloader.o)
 .note.GNU-stack
                0x0000000000000000        0x0 bin/blib.a(downloader.o)
 .text          0x0000000000000000        0x0 bin/blib.a(edd.o)
 .data          0x0000000000000000        0x0 bin/blib.a(edd.o)
 .bss           0x0000000000000000        0x0 bin/blib.a(edd.o)
 .einfo         0x0000000000000000       0x38 bin/blib.a(edd.o)
 .comment       0x0000000000000000       0x2b bin/blib.a(edd.o)
 .note.GNU-stack
                0x0000000000000000        0x0 bin/blib.a(edd.o)
 .text          0x0000000000000000        0x0 bin/blib.a(errno.o)
 .data          0x0000000000000000        0x0 bin/blib.a(errno.o)
 .bss           0x0000000000000000        0x0 bin/blib.a(errno.o)
 .comment       0x0000000000000000       0x2b bin/blib.a(errno.o)
 .note.GNU-stack
                0x0000000000000000        0x0 bin/blib.a(errno.o)
 .text          0x0000000000000000        0x0 bin/blib.a(getkey.o)
 .data          0x0000000000000000        0x0 bin/blib.a(getkey.o)
 .bss           0x0000000000000000        0x0 bin/blib.a(getkey.o)
 .comment       0x0000000000000000       0x2b bin/blib.a(getkey.o)
 .note.GNU-stack
                0x0000000000000000        0x0 bin/blib.a(getkey.o)
 .text          0x0000000000000000        0x0 bin/blib.a(job.o)
 .data          0x0000000000000000        0x0 bin/blib.a(job.o)
 .bss           0x0000000000000000        0x0 bin/blib.a(job.o)
 .comment       0x0000000000000000       0x2b bin/blib.a(job.o)
 .note.GNU-stack
                0x0000000000000000        0x0 bin/blib.a(job.o)
 .text          0x0000000000000000        0x0 bin/blib.a(linebuf.o)
 .data          0x0000000000000000        0x0 bin/blib.a(linebuf.o)
 .bss           0x0000000000000000        0x0 bin/blib.a(linebuf.o)
 .einfo         0x0000000000000000       0x38 bin/blib.a(linebuf.o)
 .comment       0x0000000000000000       0x2b bin/blib.a(linebuf.o)
 .note.GNU-stack
                0x0000000000000000        0x0 bin/blib.a(linebuf.o)
 .text          0x0000000000000000        0x0 bin/blib.a(menu.o)
 .data          0x0000000000000000        0x0 bin/blib.a(menu.o)
 .bss           0x0000000000000000        0x0 bin/blib.a(menu.o)
 .comment       0x0000000000000000       0x2b bin/blib.a(menu.o)
 .note.GNU-stack
                0x0000000000000000        0x0 bin/blib.a(menu.o)
 .text          0x0000000000000000        0x0 bin/blib.a(monojob.o)
 .data          0x0000000000000000        0x0 bin/blib.a(monojob.o)
 .bss           0x0000000000000000        0x0 bin/blib.a(monojob.o)
 .einfo         0x0000000000000000       0xb8 bin/blib.a(monojob.o)
 .comment       0x0000000000000000       0x2b bin/blib.a(monojob.o)
 .note.GNU-stack
                0x0000000000000000        0x0 bin/blib.a(monojob.o)
 .text          0x0000000000000000        0x0 bin/blib.a(params.o)
 .data          0x0000000000000000        0x0 bin/blib.a(params.o)
 .bss           0x0000000000000000        0x0 bin/blib.a(params.o)
 .text.add_parameter
                0x0000000000000000       0x66 bin/blib.a(params.o)
 .text.create_parameters
                0x0000000000000000       0x5d bin/blib.a(params.o)
 .comment       0x0000000000000000       0x2b bin/blib.a(params.o)
 .note.GNU-stack
                0x0000000000000000        0x0 bin/blib.a(params.o)
 .text          0x0000000000000000        0x0 bin/blib.a(pending.o)
 .data          0x0000000000000000        0x0 bin/blib.a(pending.o)
 .bss           0x0000000000000000        0x0 bin/blib.a(pending.o)
 .einfo         0x0000000000000000       0x38 bin/blib.a(pending.o)
 .comment       0x0000000000000000       0x2b bin/blib.a(pending.o)
 .note.GNU-stack
                0x0000000000000000        0x0 bin/blib.a(pending.o)
 .text          0x0000000000000000        0x0 bin/blib.a(random.o)
 .data          0x0000000000000000        0x0 bin/blib.a(random.o)
 .bss           0x0000000000000000        0x0 bin/blib.a(random.o)
 .comment       0x0000000000000000       0x2b bin/blib.a(random.o)
 .note.GNU-stack
                0x0000000000000000        0x0 bin/blib.a(random.o)
 .text          0x0000000000000000        0x0 bin/blib.a(resolv.o)
 .data          0x0000000000000000        0x0 bin/blib.a(resolv.o)
 .bss           0x0000000000000000        0x0 bin/blib.a(resolv.o)
 .einfo         0x0000000000000000       0xa8 bin/blib.a(resolv.o)
 .comment       0x0000000000000000       0x2b bin/blib.a(resolv.o)
 .note.GNU-stack
                0x0000000000000000        0x0 bin/blib.a(resolv.o)
 .text          0x0000000000000000        0x0 bin/blib.a(aoe.o)
 .data          0x0000000000000000        0x0 bin/blib.a(aoe.o)
 .bss           0x0000000000000000        0x0 bin/blib.a(aoe.o)
 .einfo         0x0000000000000000      0x508 bin/blib.a(aoe.o)
 .comment       0x0000000000000000       0x2b bin/blib.a(aoe.o)
 .note.GNU-stack
                0x0000000000000000        0x0 bin/blib.a(aoe.o)
 .text          0x0000000000000000        0x0 bin/blib.a(dhcppkt.o)
 .data          0x0000000000000000        0x0 bin/blib.a(dhcppkt.o)
 .bss           0x0000000000000000        0x0 bin/blib.a(dhcppkt.o)
 .einfo         0x0000000000000000       0x40 bin/blib.a(dhcppkt.o)
 .comment       0x0000000000000000       0x2b bin/blib.a(dhcppkt.o)
 .note.GNU-stack
                0x0000000000000000        0x0 bin/blib.a(dhcppkt.o)
 .text          0x0000000000000000        0x0 bin/blib.a(fragment.o)
 .data          0x0000000000000000        0x0 bin/blib.a(fragment.o)
 .bss           0x0000000000000000        0x0 bin/blib.a(fragment.o)
 .comment       0x0000000000000000       0x2b bin/blib.a(fragment.o)
 .note.GNU-stack
                0x0000000000000000        0x0 bin/blib.a(fragment.o)
 .text          0x0000000000000000        0x0 bin/blib.a(icmpv4.o)
 .data          0x0000000000000000        0x0 bin/blib.a(icmpv4.o)
 .bss           0x0000000000000000        0x0 bin/blib.a(icmpv4.o)
 .einfo         0x0000000000000000       0x70 bin/blib.a(icmpv4.o)
 .comment       0x0000000000000000       0x2b bin/blib.a(icmpv4.o)
 .note.GNU-stack
                0x0000000000000000        0x0 bin/blib.a(icmpv4.o)
 .text          0x0000000000000000        0x0 bin/blib.a(socket.o)
 .data          0x0000000000000000        0x0 bin/blib.a(socket.o)
 .bss           0x0000000000000000        0x0 bin/blib.a(socket.o)
 .text.sock_ntoa
                0x0000000000000000       0x21 bin/blib.a(socket.o)
 .einfo         0x0000000000000000       0x38 bin/blib.a(socket.o)
 .comment       0x0000000000000000       0x2b bin/blib.a(socket.o)
 .note.GNU-stack
                0x0000000000000000        0x0 bin/blib.a(socket.o)
 .text          0x0000000000000000        0x0 bin/blib.a(tcp.o)
 .data          0x0000000000000000        0x0 bin/blib.a(tcp.o)
 .bss           0x0000000000000000        0x0 bin/blib.a(tcp.o)
 .einfo         0x0000000000000000      0x2f8 bin/blib.a(tcp.o)
 .comment       0x0000000000000000       0x2b bin/blib.a(tcp.o)
 .note.GNU-stack
                0x0000000000000000        0x0 bin/blib.a(tcp.o)
 .text          0x0000000000000000        0x0 bin/blib.a(ata.o)
 .data          0x0000000000000000        0x0 bin/blib.a(ata.o)
 .bss           0x0000000000000000        0x0 bin/blib.a(ata.o)
 .einfo         0x0000000000000000      0x110 bin/blib.a(ata.o)
 .comment       0x0000000000000000       0x2b bin/blib.a(ata.o)
 .note.GNU-stack
                0x0000000000000000        0x0 bin/blib.a(ata.o)
 .text          0x0000000000000000        0x0 bin/blib.a(smbios.o)
 .data          0x0000000000000000        0x0 bin/blib.a(smbios.o)
 .bss           0x0000000000000000        0x0 bin/blib.a(smbios.o)
 .einfo         0x0000000000000000      0x168 bin/blib.a(smbios.o)
 .comment       0x0000000000000000       0x2b bin/blib.a(smbios.o)
 .note.GNU-stack
                0x0000000000000000        0x0 bin/blib.a(smbios.o)
 .text          0x0000000000000000        0x0 bin/blib.a(editstring.o)
 .data          0x0000000000000000        0x0 bin/blib.a(editstring.o)
 .bss           0x0000000000000000        0x0 bin/blib.a(editstring.o)
 .comment       0x0000000000000000       0x2b bin/blib.a(editstring.o)
 .note.GNU-stack
                0x0000000000000000        0x0 bin/blib.a(editstring.o)
 .text          0x0000000000000000        0x0 bin/blib.a(readline.o)
 .data          0x0000000000000000        0x0 bin/blib.a(readline.o)
 .bss           0x0000000000000000        0x0 bin/blib.a(readline.o)
 .einfo         0x0000000000000000       0x70 bin/blib.a(readline.o)
 .text.readline
                0x0000000000000000       0x13 bin/blib.a(readline.o)
 .comment       0x0000000000000000       0x2b bin/blib.a(readline.o)
 .note.GNU-stack
                0x0000000000000000        0x0 bin/blib.a(readline.o)
 .text          0x0000000000000000        0x0 bin/blib.a(shell.o)
 .data          0x0000000000000000        0x0 bin/blib.a(shell.o)
 .bss           0x0000000000000000        0x0 bin/blib.a(shell.o)
 .comment       0x0000000000000000       0x2b bin/blib.a(shell.o)
 .note.GNU-stack
                0x0000000000000000        0x0 bin/blib.a(shell.o)
 .text          0x0000000000000000        0x0 bin/blib.a(route_ipv4.o)
 .data          0x0000000000000000        0x0 bin/blib.a(route_ipv4.o)
 .bss           0x0000000000000000        0x0 bin/blib.a(route_ipv4.o)
 .comment       0x0000000000000000       0x2b bin/blib.a(route_ipv4.o)
 .note.GNU-stack
                0x0000000000000000        0x0 bin/blib.a(route_ipv4.o)
 .text          0x0000000000000000        0x0 bin/blib.a(hidemem.o)
 .data          0x0000000000000000        0x0 bin/blib.a(hidemem.o)
 .bss           0x0000000000000000        0x0 bin/blib.a(hidemem.o)
 .comment       0x0000000000000000       0x2b bin/blib.a(hidemem.o)
 .note.GNU-stack
                0x0000000000000000        0x0 bin/blib.a(hidemem.o)
 .text          0x0000000000000000        0x0 bin/blib.a(bootsector.o)
 .data          0x0000000000000000        0x0 bin/blib.a(bootsector.o)
 .bss           0x0000000000000000        0x0 bin/blib.a(bootsector.o)
 .einfo         0x0000000000000000       0x48 bin/blib.a(bootsector.o)
 .comment       0x0000000000000000       0x2b bin/blib.a(bootsector.o)
 .note.GNU-stack
                0x0000000000000000        0x0 bin/blib.a(bootsector.o)
 .text          0x0000000000000000        0x0 bin/blib.a(bios_smbios.o)
 .data          0x0000000000000000        0x0 bin/blib.a(bios_smbios.o)
 .bss           0x0000000000000000        0x0 bin/blib.a(bios_smbios.o)
 .einfo         0x0000000000000000       0x50 bin/blib.a(bios_smbios.o)
 .comment       0x0000000000000000       0x2b bin/blib.a(bios_smbios.o)
 .note.GNU-stack
                0x0000000000000000        0x0 bin/blib.a(bios_smbios.o)
 .text          0x0000000000000000        0x0 bin/blib.a(e820mangler.o)
 .data          0x0000000000000000        0x0 bin/blib.a(e820mangler.o)
 .bss           0x0000000000000000        0x0 bin/blib.a(e820mangler.o)
 .note          0x0000000000000000       0x14 bin/blib.a(e820mangler.o)
 .text          0x0000000000000000        0x0 bin/blib.a(icmp.o)
 .data          0x0000000000000000        0x0 bin/blib.a(icmp.o)
 .bss           0x0000000000000000        0x0 bin/blib.a(icmp.o)
 .text.icmp_tx_echo_request
                0x0000000000000000       0x41 bin/blib.a(icmp.o)
 .einfo         0x0000000000000000       0x98 bin/blib.a(icmp.o)
 .comment       0x0000000000000000       0x2b bin/blib.a(icmp.o)
 .note.GNU-stack
                0x0000000000000000        0x0 bin/blib.a(icmp.o)
 .text          0x0000000000000000        0x0 bin/blib.a(patch_cf.o)
 .data          0x0000000000000000        0x0 bin/blib.a(patch_cf.o)
 .bss           0x0000000000000000        0x0 bin/blib.a(patch_cf.o)
 .note          0x0000000000000000       0x14 bin/blib.a(patch_cf.o)

Memory Configuration

Name             Origin             Length             Attributes
*default*        0x0000000000000000 0xffffffffffffffff

Linker script and memory map

                0x0000000000000010                PROVIDE (_max_align, 0x10)

.prefix         0x0000000000000000      0x894
                0x0000000000000000                _prefix = .
 *(.prefix)
 .prefix        0x0000000000000000      0x496 bin/blib.a(romprefix.o)
                0x0000000000000000                _rom_start
                0x0000000000000083                undiheader
                0x000000000000036d                image_source
                0x0000000000000373                decompress_to
 .prefix        0x0000000000000496       0x4b bin/blib.a(undiloader.o)
                0x0000000000000496                undiloader
 *(.prefix.*)
 .prefix.lib    0x00000000000004e1      0x2c2 bin/blib.a(libprefix.o)
                0x00000000000004e1                print_character
                0x0000000000000500                print_message
                0x000000000000050d                print_hex_dword
                0x0000000000000518                print_hex_word
                0x000000000000051f                print_hex_byte
                0x0000000000000528                print_hex_nibble
                0x0000000000000535                print_pci_busdevfn
                0x0000000000000556                print_kill_line
                0x000000000000063f                alloc_basemem
                0x0000000000000660                install
                0x000000000000067d                install_prealloc
 .prefix.data   0x00000000000007a3       0x56 bin/blib.a(libprefix.o)
 .prefix.lib    0x00000000000007f9       0x9b bin/blib.a(unnrv2b16.o)
                0x00000000000007f9                decompress16
                0x0000000000000894                _mprefix = .

.bss.prefix     0x0000000000000894        0x0 load address 0x0000000000019ed0
                0x0000000000000894                _eprefix = .
                0x0000000000000894                _prefix_filesz = (ABSOLUTE (_mprefix) - ABSOLUTE (_prefix))
                0x0000000000000894                _prefix_memsz = (ABSOLUTE (_eprefix) - ABSOLUTE (_prefix))

.text16.early   0x0000000000000000       0xee load address 0x00000000000008a0
                0x0000000000000000                _text16 = .
 *(.text16.null)
 .text16.null   0x0000000000000000        0x3 bin/blib.a(pxe_entry.o)
 *(.text16.null.*)
                0x0000000000000004                . = (. + 0x1)
 *fill*         0x0000000000000003        0x1 00
 *(.text16.early)
 .text16.early  0x0000000000000004       0xe5 bin/blib.a(liba20.o)
                0x000000000000009b                enable_a20
                0x00000000000000e5                access_highmem
 *(.text16.early.*)
 .text16.early.data
                0x00000000000000e9        0x2 bin/blib.a(libprefix.o)
                0x00000000000000e9                close_payload
                0x00000000000000e9                open_payload
 *fill*         0x00000000000000eb        0x1 00
 .text16.early.data
                0x00000000000000ec        0x2 bin/blib.a(liba20.o)
                0x00000000000000ee                _etext16_early = .

.text16.late    0x00000000000000f0      0x67c load address 0x0000000000000990
                0x00000000000000f0                _text16_late = .
 *(.text16)
 .text16        0x00000000000000f0       0x3a bin/blib.a(bios_console.o)
 .text16        0x000000000000012a       0x11 bin/blib.a(bzimage.o)
 .text16        0x000000000000013b       0x11 bin/blib.a(pxe_call.o)
 .text16        0x000000000000014c      0x15d bin/blib.a(librm.o)
                0x000000000000014c                init_librm
                0x00000000000001c9                idt_init
                0x0000000000000243                prot_call
 .text16        0x00000000000002a9       0x34 bin/blib.a(libprefix.o)
                0x00000000000002a9                free_basemem
                0x00000000000002d9                uninstall
 .text16        0x00000000000002dd       0x20 bin/blib.a(romprefix.o)
 .text16        0x00000000000002fd       0x65 bin/blib.a(pxe_entry.o)
                0x0000000000000334                pxe_int_1a
 .text16        0x0000000000000362       0x13 bin/blib.a(memmap.o)
 .text16        0x0000000000000375        0x4 bin/blib.a(bios_nap.o)
 .text16        0x0000000000000379        0x6 bin/blib.a(bios_reboot.o)
 .text16        0x000000000000037f        0x5 bin/blib.a(bios_timer.o)
 .text16        0x0000000000000384       0x6a bin/blib.a(int13.o)
 .text16        0x00000000000003ee       0x1e bin/blib.a(pcibios.o)
 .text16        0x000000000000040c       0x55 bin/blib.a(bootsector.o)
 .text16        0x0000000000000461      0x25d bin/blib.a(e820mangler.o)
                0x0000000000000696                int15
 .text16        0x00000000000006be        0x9 bin/blib.a(patch_cf.o)
                0x00000000000006be                patch_cf
 *(.text16.*)
 .text16.data   0x00000000000006c7        0x2 bin/blib.a(librm.o)
                0x00000000000006c7                rm_ds
 .text16.data   0x00000000000006c9        0x2 bin/blib.a(libprefix.o)
                0x00000000000006c9                hooked_bios_interrupts
 *fill*         0x00000000000006cb        0x5 00
 .text16.data   0x00000000000006d0       0x90 bin/blib.a(pxe_entry.o)
                0x00000000000006d0                ppxe
                0x0000000000000730                pxenv
                0x000000000000075c                pxe_int_1a_vector
 .text16.data   0x0000000000000760        0x8 bin/blib.a(int13.o)
 .text16.data   0x0000000000000768        0x4 bin/blib.a(e820mangler.o)
                0x0000000000000768                int15_vector
                0x000000000000076c                _mtext16 = .

.bss.text16     0x000000000000076c        0x0 load address 0x0000000000019ed0
                0x000000000000076c                _etext16 = .
                0x00000000000000ee                _text16_early_filesz = (ABSOLUTE (_etext16_early) - ABSOLUTE (_text16))
                0x00000000000000ee                _text16_early_memsz = (ABSOLUTE (_etext16_early) - ABSOLUTE (_text16))
                0x000000000000067c                _text16_late_filesz = (ABSOLUTE (_mtext16) - ABSOLUTE (_text16_late))
                0x000000000000067c                _text16_late_memsz = (ABSOLUTE (_etext16) - ABSOLUTE (_text16_late))
                0x000000000000076c                _text16_memsz = (ABSOLUTE (_etext16) - ABSOLUTE (_text16))

.data16         0x0000000000000000       0xd2 load address 0x0000000000001010
                0x0000000000000000                _data16 = .
                0x0000000000000001                . = (. + 0x1)
 *fill*         0x0000000000000000        0x1 00
 *(.rodata16)
 *(.rodata16.*)
 *(.data16)
 *fill*         0x0000000000000001        0xf 00
 .data16        0x0000000000000010       0x52 bin/blib.a(librm.o)
                0x0000000000000048                idtr
                0x0000000000000050                rm_cs
 .data16        0x0000000000000062        0xc bin/blib.a(libprefix.o)
 *fill*         0x000000000000006e        0x2 00
 .data16        0x0000000000000070       0x14 bin/blib.a(int13.o)
 *fill*         0x0000000000000084        0xc 00
 .data16        0x0000000000000090       0x42 bin/blib.a(e820mangler.o)
                0x0000000000000098                hidemem_base
                0x00000000000000a8                hidemem_umalloc
                0x00000000000000b8                hidemem_textdata
 *(.data16.*)
                0x00000000000000d2                _mdata16 = .

.bss.data16     0x00000000000000e0     0x2bf8 load address 0x0000000000019ed0
 *(.bss16)
 .bss16         0x00000000000000e0      0x3b8 bin/blib.a(multiboot.o)
 .bss16         0x0000000000000498      0xec4 bin/blib.a(pxe_preboot.o)
 .bss16         0x000000000000135c      0x5ea bin/blib.a(basemem_packet.o)
                0x000000000000135c                basemem_packet
 *fill*         0x0000000000001946        0x2 00
 .bss16         0x0000000000001948       0x1c bin/blib.a(memmap.o)
                0x0000000000001948                memmap_post
 *fill*         0x0000000000001964        0xc 00
 .bss16         0x0000000000001970      0x320 bin/blib.a(int13.o)
 .bss16         0x0000000000001c90       0x48 bin/blib.a(e820mangler.o)
 *(.bss16.*)
 *(.stack16)
 .stack16       0x0000000000001cd8     0x1000 bin/blib.a(stack16.o)
                0x0000000000001cd8                _stack16
                0x0000000000002cd8                _estack16
 *(.stack16.*)
                0x0000000000002cd8                _edata16 = .
                0x00000000000000d2                _data16_filesz = (ABSOLUTE (_mdata16) - ABSOLUTE (_data16))
                0x0000000000002cd8                _data16_memsz = (ABSOLUTE (_edata16) - ABSOLUTE (_data16))

.textdata       0x0000000000000000    0x18d30 load address 0x00000000000010f0
                0x0000000000000000                _textdata = .
 *(.text.null_trap)
 *(.text.null_trap.*)
                0x0000000000000001                . = (. + 0x1)
 *fill*         0x0000000000000000        0x1 00
 *(.text)
 *fill*         0x0000000000000001        0x3 00
 .text          0x0000000000000004       0x45 bin/blib.a(setjmp.o)
                0x0000000000000004                setjmp
                0x0000000000000022                longjmp
 *fill*         0x0000000000000049        0x3 00
 .text          0x000000000000004c       0x55 bin/blib.a(virtaddr.o)
                0x000000000000004c                _virt_to_phys
                0x0000000000000078                _phys_to_virt
 *fill*         0x00000000000000a1        0x3 00
 .text          0x00000000000000a4       0xa6 bin/blib.a(librm.o)
                0x0000000000000137                real_call
 *(.text.*)
 .text.realtek_spi_open_bit
                0x000000000000014a        0xe bin/blib.a(realtek.o)
 .text.realtek_spi_close_bit
                0x0000000000000158        0xe bin/blib.a(realtek.o)
 .text.realtek_spi_read_bit
                0x0000000000000166       0x10 bin/blib.a(realtek.o)
 .text.realtek_spi_write_bit
                0x0000000000000176       0x28 bin/blib.a(realtek.o)
 .text.realtek_irq
                0x000000000000019e       0x15 bin/blib.a(realtek.o)
 .text.realtek_transmit
                0x00000000000001b3       0xc8 bin/blib.a(realtek.o)
 .text.realtek_check_link
                0x000000000000027b       0x35 bin/blib.a(realtek.o)
 .text.realtek_mii_read
                0x00000000000002b0       0x4d bin/blib.a(realtek.o)
 .text.realtek_mii_write
                0x00000000000002fd       0x50 bin/blib.a(realtek.o)
 .text.realtek_reset.isra.10
                0x000000000000034d       0x31 bin/blib.a(realtek.o)
 .text.realtek_remove
                0x000000000000037e       0x37 bin/blib.a(realtek.o)
 .text.realtek_probe
                0x00000000000003b5      0x281 bin/blib.a(realtek.o)
 .text.realtek_refill_rx.part.12
                0x0000000000000636       0x81 bin/blib.a(realtek.o)
 .text.realtek_poll
                0x00000000000006b7      0x1d9 bin/blib.a(realtek.o)
 .text.realtek_destroy_ring
                0x0000000000000890       0x46 bin/blib.a(realtek.o)
 .text.realtek_close
                0x00000000000008d6       0x83 bin/blib.a(realtek.o)
 .text.realtek_create_ring
                0x0000000000000959       0x5b bin/blib.a(realtek.o)
 .text.realtek_open
                0x00000000000009b4       0xd8 bin/blib.a(realtek.o)
 .text.nvs_read
                0x0000000000000a8c       0x59 bin/blib.a(nvs.o)
                0x0000000000000a8c                nvs_read
 .text.nvs_verify
                0x0000000000000ae5       0x4b bin/blib.a(nvs.o)
 .text.nvs_write
                0x0000000000000b30       0x6b bin/blib.a(nvs.o)
                0x0000000000000b30                nvs_write
 .text.threewire_read
                0x0000000000000b9b       0x1c bin/blib.a(threewire.o)
                0x0000000000000b9b                threewire_read
 .text.threewire_write
                0x0000000000000bb7       0x5f bin/blib.a(threewire.o)
                0x0000000000000bb7                threewire_write
 .text.spi_bit_set_slave_select
                0x0000000000000c16       0x36 bin/blib.a(spi_bit.o)
 .text.spi_bit_transfer
                0x0000000000000c4c       0xde bin/blib.a(spi_bit.o)
 .text.spi_bit_rw
                0x0000000000000d2a       0xe3 bin/blib.a(spi_bit.o)
 .text.init_spi_bit_basher
                0x0000000000000e0d        0x8 bin/blib.a(spi_bit.o)
                0x0000000000000e0d                init_spi_bit_basher
 .text.timer2_udelay
                0x0000000000000e15       0x33 bin/blib.a(timer2.o)
                0x0000000000000e15                timer2_udelay
 .text.bios_handle_cup
                0x0000000000000e48       0x38 bin/blib.a(bios_console.o)
 .text.bios_handle_ed
                0x0000000000000e80       0x25 bin/blib.a(bios_console.o)
 .text.bios_handle_sgr
                0x0000000000000ea5       0x6a bin/blib.a(bios_console.o)
 .text.bios_putchar
                0x0000000000000f0f       0x26 bin/blib.a(bios_console.o)
 .text.bios_iskey
                0x0000000000000f35       0x2a bin/blib.a(bios_console.o)
 .text.bios_getchar
                0x0000000000000f5f       0x8f bin/blib.a(bios_console.o)
 .text.bzimage_load_initrd
                0x0000000000000fee      0x15e bin/blib.a(bzimage.o)
 .text.bzimage_parse_header.isra.0
                0x000000000000114c      0x13b bin/blib.a(bzimage.o)
 .text.bzimage_probe
                0x0000000000001287       0x1a bin/blib.a(bzimage.o)
                0x0000000000001287                bzimage_probe
 .text.bzimage_exec
                0x00000000000012a1      0x419 bin/blib.a(bzimage.o)
 .text.elfboot_exec
                0x00000000000016ba       0x39 bin/blib.a(elfboot.o)
 .text.elfboot_probe
                0x00000000000016f3       0x34 bin/blib.a(elfboot.o)
 .text.initrd_startup
                0x0000000000001727       0x16 bin/blib.a(initrd.o)
 .text.initrd_reshuffle
                0x000000000000173d      0x175 bin/blib.a(initrd.o)
                0x000000000000173d                initrd_reshuffle
 .text.initrd_reshuffle_check
                0x00000000000018b2       0x30 bin/blib.a(initrd.o)
                0x00000000000018b2                initrd_reshuffle_check
 .text.multiboot_add_cmdline
                0x00000000000018e2       0x89 bin/blib.a(multiboot.o)
 .text.multiboot_find_header
                0x000000000000196b       0x79 bin/blib.a(multiboot.o)
 .text.multiboot_probe
                0x00000000000019e4        0xe bin/blib.a(multiboot.o)
 .text.multiboot_exec
                0x00000000000019f2      0x326 bin/blib.a(multiboot.o)
 .text.pxe_exec
                0x0000000000001d18       0x7f bin/blib.a(pxe_image.o)
 .text.pxe_probe
                0x0000000000001d97       0x1d bin/blib.a(pxe_image.o)
                0x0000000000001d97                pxe_probe
 .text.pxenv_unknown
                0x0000000000001db4        0xb bin/blib.a(pxe_call.o)
 .text.pxe_init_structures
                0x0000000000001dbf       0xea bin/blib.a(pxe_call.o)
 .text.pxe_api_call
                0x0000000000001ea9       0x87 bin/blib.a(pxe_call.o)
                0x0000000000001ea9                pxe_api_call
 .text.pxe_loader_call
                0x0000000000001f30       0x5d bin/blib.a(pxe_call.o)
                0x0000000000001f30                pxe_loader_call
 .text.pxe_activate
                0x0000000000001f8d       0x3f bin/blib.a(pxe_call.o)
                0x0000000000001f8d                pxe_activate
 .text.pxe_deactivate
                0x0000000000001fcc       0x3f bin/blib.a(pxe_call.o)
                0x0000000000001fcc                pxe_deactivate
 .text.pxe_start_nbp
                0x000000000000200b       0x76 bin/blib.a(pxe_call.o)
                0x000000000000200b                pxe_start_nbp
 .text.pxenv_file_cmdline
                0x0000000000002081       0x5c bin/blib.a(pxe_file.o)
 .text.pxenv_file_exec
                0x00000000000020dd       0x72 bin/blib.a(pxe_file.o)
 .text.pxenv_get_file_size
                0x000000000000214f       0x2c bin/blib.a(pxe_file.o)
 .text.pxenv_file_read
                0x000000000000217b       0x47 bin/blib.a(pxe_file.o)
 .text.pxenv_file_select
                0x00000000000021c2       0x44 bin/blib.a(pxe_file.o)
 .text.pxenv_file_close
                0x0000000000002206       0x15 bin/blib.a(pxe_file.o)
 .text.pxenv_file_open
                0x000000000000221b       0x72 bin/blib.a(pxe_file.o)
 .text.pxenv_file_api_check
                0x000000000000228d       0x7d bin/blib.a(pxe_file.o)
 .text.undi_loader
                0x000000000000230a       0x3e bin/blib.a(pxe_loader.o)
                0x000000000000230a                undi_loader
 .text.pxenv_unload_stack
                0x0000000000002348        0x8 bin/blib.a(pxe_preboot.o)
 .text.pxenv_start_base
                0x0000000000002350        0xb bin/blib.a(pxe_preboot.o)
 .text.pxenv_stop_base
                0x000000000000235b        0x8 bin/blib.a(pxe_preboot.o)
 .text.pxenv_stop_undi
                0x0000000000002363       0x36 bin/blib.a(pxe_preboot.o)
 .text.pxenv_start_undi
                0x0000000000002399       0x69 bin/blib.a(pxe_preboot.o)
 .text.pxenv_get_cached_info
                0x0000000000002402       0xbf bin/blib.a(pxe_preboot.o)
 .text.pxenv_restart_tftp
                0x00000000000024c1       0x42 bin/blib.a(pxe_preboot.o)
 .text.pxe_tftp_xfer_window
                0x0000000000002503        0x4 bin/blib.a(pxe_tftp.o)
 .text.pxenv_tftp_read
                0x0000000000002507       0x9d bin/blib.a(pxe_tftp.o)
 .text.pxe_tftp_open
                0x00000000000025a4       0xca bin/blib.a(pxe_tftp.o)
 .text.pxe_tftp_close
                0x000000000000266e       0x11 bin/blib.a(pxe_tftp.o)
 .text.pxe_tftp_xfer_deliver
                0x000000000000267f       0x8d bin/blib.a(pxe_tftp.o)
 .text.pxenv_tftp_close
                0x000000000000270c       0x18 bin/blib.a(pxe_tftp.o)
 .text.pxenv_tftp_get_fsize
                0x0000000000002724       0x82 bin/blib.a(pxe_tftp.o)
 .text.pxenv_tftp_open
                0x00000000000027a6       0x98 bin/blib.a(pxe_tftp.o)
 .text.pxenv_tftp_read_file
                0x000000000000283e       0x93 bin/blib.a(pxe_tftp.o)
                0x000000000000283e                pxenv_tftp_read_file
 .text.pxenv_udp_read
                0x00000000000028d1       0x5b bin/blib.a(pxe_udp.o)
 .text.pxe_udp_deliver
                0x000000000000292c       0x85 bin/blib.a(pxe_udp.o)
 .text.pxenv_udp_write
                0x00000000000029b1       0xd5 bin/blib.a(pxe_udp.o)
 .text.pxenv_udp_close
                0x0000000000002a86       0x18 bin/blib.a(pxe_udp.o)
 .text.pxenv_udp_open
                0x0000000000002a9e       0x3e bin/blib.a(pxe_udp.o)
 .text.pxenv_undi_startup
                0x0000000000002adc       0x1c bin/blib.a(pxe_undi.o)
 .text.pxenv_undi_initialize
                0x0000000000002af8       0x1c bin/blib.a(pxe_undi.o)
 .text.pxenv_undi_set_mcast_address
                0x0000000000002b14       0x1c bin/blib.a(pxe_undi.o)
 .text.pxenv_undi_set_packet_filter
                0x0000000000002b30       0x1c bin/blib.a(pxe_undi.o)
 .text.pxenv_undi_get_statistics
                0x0000000000002b4c       0x38 bin/blib.a(pxe_undi.o)
 .text.pxenv_undi_clear_statistics
                0x0000000000002b84       0x40 bin/blib.a(pxe_undi.o)
 .text.pxenv_undi_initiate_diags
                0x0000000000002bc4       0x1b bin/blib.a(pxe_undi.o)
 .text.pxenv_undi_force_interrupt
                0x0000000000002bdf       0x1b bin/blib.a(pxe_undi.o)
 .text.pxenv_undi_get_mcast_address
                0x0000000000002bfa       0x4c bin/blib.a(pxe_undi.o)
 .text.pxenv_undi_get_nic_type
                0x0000000000002c46       0x95 bin/blib.a(pxe_undi.o)
 .text.pxenv_undi_get_information
                0x0000000000002cdb       0x86 bin/blib.a(pxe_undi.o)
 .text.pxenv_undi_set_station_address
                0x0000000000002d61       0x42 bin/blib.a(pxe_undi.o)
 .text.pxenv_undi_isr
                0x0000000000002da3      0x1bc bin/blib.a(pxe_undi.o)
 .text.pxenv_undi_get_iface_info
                0x0000000000002f5f       0x63 bin/blib.a(pxe_undi.o)
 .text.pxenv_undi_transmit
                0x0000000000002fc2      0x1e4 bin/blib.a(pxe_undi.o)
 .text.pxe_netdev_close
                0x00000000000031a6       0x25 bin/blib.a(pxe_undi.o)
 .text.pxenv_undi_close
                0x00000000000031cb       0x26 bin/blib.a(pxe_undi.o)
 .text.pxenv_undi_shutdown
                0x00000000000031f1       0x26 bin/blib.a(pxe_undi.o)
 .text.pxenv_undi_cleanup
                0x0000000000003217       0x26 bin/blib.a(pxe_undi.o)
 .text.pxe_netdev_open
                0x000000000000323d       0x28 bin/blib.a(pxe_undi.o)
 .text.pxenv_undi_open
                0x0000000000003265       0x35 bin/blib.a(pxe_undi.o)
 .text.pxenv_undi_reset_adapter
                0x000000000000329a       0x3a bin/blib.a(pxe_undi.o)
 .text.pxe_set_netdev
                0x00000000000032d4       0x32 bin/blib.a(pxe_undi.o)
                0x00000000000032d4                pxe_set_netdev
 .text.__memcpy
                0x0000000000003306       0x1d bin/blib.a(x86_string.o)
                0x0000000000003306                __memcpy
 .text.__memcpy_reverse
                0x0000000000003323       0x11 bin/blib.a(x86_string.o)
                0x0000000000003323                __memcpy_reverse
 .text.__memmove
                0x0000000000003334        0xe bin/blib.a(x86_string.o)
                0x0000000000003334                __memmove
 .text.memswap  0x0000000000003342       0x11 bin/blib.a(x86_string.o)
                0x0000000000003342                memswap
 .text.strlen   0x0000000000003353       0x11 bin/blib.a(x86_string.o)
                0x0000000000003353                strlen
 .text.strncmp  0x0000000000003364       0x1c bin/blib.a(x86_string.o)
                0x0000000000003364                strncmp
 .text.cpuid_exec
                0x0000000000003380       0x6d bin/blib.a(cpuid_cmd.o)
 .text.ansiesc_process
                0x00000000000033ed       0xbe bin/blib.a(ansiesc.o)
                0x00000000000033ed                ansiesc_process
 .text.cpio_set_field
                0x00000000000034ab       0x2a bin/blib.a(cpio.o)
                0x00000000000034ab                cpio_set_field
 .text.probe_devices
                0x00000000000034d5       0x52 bin/blib.a(device.o)
 .text.identify_device
                0x0000000000003527       0x31 bin/blib.a(device.o)
                0x0000000000003527                identify_device
 .text.remove_devices
                0x0000000000003558       0x40 bin/blib.a(device.o)
 .text.process_on_success
                0x0000000000003598        0x9 bin/blib.a(exec.o)
 .text.process_on_failure
                0x00000000000035a1        0x9 bin/blib.a(exec.o)
 .text.process_always
                0x00000000000035aa        0x6 bin/blib.a(exec.o)
 .text.exit_exec
                0x00000000000035b0       0x4f bin/blib.a(exec.o)
 .text.split_command
                0x00000000000035ff       0x49 bin/blib.a(exec.o)
 .text.isset_exec
                0x0000000000003648       0x2f bin/blib.a(exec.o)
 .text.sleep_exec
                0x0000000000003677       0x79 bin/blib.a(exec.o)
 .text.iseq_exec
                0x00000000000036f0       0x3c bin/blib.a(exec.o)
 .text.execv    0x000000000000372c       0x8f bin/blib.a(exec.o)
                0x000000000000372c                execv
 .text.shell_stop
                0x00000000000037bb        0x6 bin/blib.a(exec.o)
                0x00000000000037bb                shell_stop
 .text.shell_stopped
                0x00000000000037c1       0x1c bin/blib.a(exec.o)
                0x00000000000037c1                shell_stopped
 .text.system   0x00000000000037dd      0x192 bin/blib.a(exec.o)
                0x00000000000037dd                system
 .text.concat_args
                0x000000000000396f       0x66 bin/blib.a(exec.o)
                0x000000000000396f                concat_args
 .text.echo_exec
                0x00000000000039d5       0x61 bin/blib.a(exec.o)
 .text.get_argv_argument
                0x0000000000003a36       0x24 bin/blib.a(getopt.o)
 .text.getopt_long
                0x0000000000003a5a      0x223 bin/blib.a(getopt.o)
                0x0000000000003a5a                getopt_long
 .text.free_image
                0x0000000000003c7d       0x35 bin/blib.a(image.o)
 .text.image_set_name
                0x0000000000003cb2       0x28 bin/blib.a(image.o)
                0x0000000000003cb2                image_set_name
 .text.alloc_image
                0x0000000000003cda       0x50 bin/blib.a(image.o)
                0x0000000000003cda                alloc_image
 .text.image_set_cmdline
                0x0000000000003d2a       0x35 bin/blib.a(image.o)
                0x0000000000003d2a                image_set_cmdline
 .text.unregister_image
                0x0000000000003d5f       0x22 bin/blib.a(image.o)
                0x0000000000003d5f                unregister_image
 .text.find_image
                0x0000000000003d81       0x2f bin/blib.a(image.o)
                0x0000000000003d81                find_image
 .text.image_probe
                0x0000000000003db0       0x34 bin/blib.a(image.o)
                0x0000000000003db0                image_probe
 .text.image_replace
                0x0000000000003de4       0x39 bin/blib.a(image.o)
                0x0000000000003de4                image_replace
 .text.image_select
                0x0000000000003e1d       0x2c bin/blib.a(image.o)
                0x0000000000003e1d                image_select
 .text.image_exec
                0x0000000000003e49       0xa1 bin/blib.a(image.o)
                0x0000000000003e49                image_exec
 .text.image_find_selected
                0x0000000000003eea       0x1d bin/blib.a(image.o)
                0x0000000000003eea                image_find_selected
 .text.register_image
                0x0000000000003f07       0x6a bin/blib.a(image.o)
                0x0000000000003f07                register_image
 .text.initialise
                0x0000000000003f71       0x17 bin/blib.a(init.o)
                0x0000000000003f71                initialise
 .text.startup  0x0000000000003f88       0x30 bin/blib.a(init.o)
                0x0000000000003f88                startup
 .text.shutdown
                0x0000000000003fb8       0x37 bin/blib.a(init.o)
                0x0000000000003fb8                shutdown
 .text.intf_plug
                0x0000000000003fef       0x1d bin/blib.a(interface.o)
                0x0000000000003fef                intf_plug
 .text.intf_plug_plug
                0x000000000000400c       0x16 bin/blib.a(interface.o)
                0x000000000000400c                intf_plug_plug
 .text.intf_unplug
                0x0000000000004022        0xa bin/blib.a(interface.o)
                0x0000000000004022                intf_unplug
 .text.intf_nullify
                0x000000000000402c        0x8 bin/blib.a(interface.o)
                0x000000000000402c                intf_nullify
 .text.intf_put
                0x0000000000004034        0x8 bin/blib.a(interface.o)
                0x0000000000004034                intf_put
 .text.intf_object
                0x000000000000403c        0x6 bin/blib.a(interface.o)
                0x000000000000403c                intf_object
 .text.intf_get_dest_op_no_passthru_untyped
                0x0000000000004042       0x35 bin/blib.a(interface.o)
                0x0000000000004042                intf_get_dest_op_no_passthru_untyped
 .text.intf_get_dest_op_untyped
                0x0000000000004077       0x34 bin/blib.a(interface.o)
                0x0000000000004077                intf_get_dest_op_untyped
 .text.intf_close
                0x00000000000040ab       0x32 bin/blib.a(interface.o)
                0x00000000000040ab                intf_close
 .text.intf_shutdown
                0x00000000000040dd       0x17 bin/blib.a(interface.o)
                0x00000000000040dd                intf_shutdown
 .text.intf_restart
                0x00000000000040f4       0x12 bin/blib.a(interface.o)
                0x00000000000040f4                intf_restart
 .text.alloc_iob_raw
                0x0000000000004106       0x79 bin/blib.a(iobuf.o)
                0x0000000000004106                alloc_iob_raw
 .text.alloc_iob
                0x000000000000417f       0x13 bin/blib.a(iobuf.o)
                0x000000000000417f                alloc_iob
 .text.free_iob
                0x0000000000004192       0x2d bin/blib.a(iobuf.o)
                0x0000000000004192                free_iob
 .text.iob_ensure_headroom
                0x00000000000041bf       0x12 bin/blib.a(iobuf.o)
                0x00000000000041bf                iob_ensure_headroom
 .text.extern_list_add
                0x00000000000041d1        0xd bin/blib.a(list.o)
                0x00000000000041d1                extern_list_add
 .text.extern_list_add_tail
                0x00000000000041de        0xe bin/blib.a(list.o)
                0x00000000000041de                extern_list_add_tail
 .text.startup.main
                0x00000000000041ec       0x31 bin/blib.a(main.o)
                0x00000000000041ec                main
 .text.discard_cache
                0x000000000000421d       0x1d bin/blib.a(malloc.o)
 .text.shutdown_cache
                0x000000000000423a        0xa bin/blib.a(malloc.o)
 .text.alloc_memblock
                0x0000000000004244       0x8b bin/blib.a(malloc.o)
                0x0000000000004244                alloc_memblock
 .text.free_memblock
                0x00000000000042cf       0x98 bin/blib.a(malloc.o)
                0x00000000000042cf                free_memblock
 .text.realloc  0x0000000000004367       0x5b bin/blib.a(malloc.o)
                0x0000000000004367                realloc
 .text.malloc   0x00000000000043c2        0x9 bin/blib.a(malloc.o)
                0x00000000000043c2                malloc
 .text.free     0x00000000000043cb        0x7 bin/blib.a(malloc.o)
                0x00000000000043cb                free
 .text.zalloc   0x00000000000043d2       0x1c bin/blib.a(malloc.o)
                0x00000000000043d2                zalloc
 .text.mpopulate
                0x00000000000043ee        0x8 bin/blib.a(malloc.o)
                0x00000000000043ee                mpopulate
 .text.init_heap
                0x00000000000043f6        0xf bin/blib.a(malloc.o)
 .text.largest_memblock
                0x0000000000004405       0x6e bin/blib.a(memblock.o)
                0x0000000000004405                largest_memblock
 .text.strtoul_charval
                0x0000000000004473       0x1b bin/blib.a(misc.o)
                0x0000000000004473                strtoul_charval
 .text.strtoul  0x000000000000448e       0x7a bin/blib.a(misc.o)
                0x000000000000448e                strtoul
 .text.inet_aton
                0x0000000000004508       0x63 bin/blib.a(misc.o)
                0x0000000000004508                inet_aton
 .text.nvo_fetch
                0x000000000000456b        0xb bin/blib.a(nvo.o)
 .text.nvo_applies
                0x0000000000004576       0x19 bin/blib.a(nvo.o)
                0x0000000000004576                nvo_applies
 .text.nvo_realloc
                0x000000000000458f       0x47 bin/blib.a(nvo.o)
 .text.nvo_realloc_dhcpopt
                0x00000000000045d6       0x33 bin/blib.a(nvo.o)
 .text.nvo_store
                0x0000000000004609       0x5a bin/blib.a(nvo.o)
 .text.nvo_init
                0x0000000000004663       0x52 bin/blib.a(nvo.o)
                0x0000000000004663                nvo_init
 .text.register_nvo
                0x00000000000046b5       0x82 bin/blib.a(nvo.o)
                0x00000000000046b5                register_nvo
 .text.unregister_nvo
                0x0000000000004737       0x12 bin/blib.a(nvo.o)
                0x0000000000004737                unregister_nvo
 .text.xfer_uri_opener
                0x0000000000004749       0x2a bin/blib.a(open.o)
                0x0000000000004749                xfer_uri_opener
 .text.xfer_open_uri
                0x0000000000004773       0x45 bin/blib.a(open.o)
                0x0000000000004773                xfer_open_uri
 .text.xfer_open_uri_string
                0x00000000000047b8       0x2f bin/blib.a(open.o)
                0x00000000000047b8                xfer_open_uri_string
 .text.xfer_open_socket
                0x00000000000047e7       0x37 bin/blib.a(open.o)
                0x00000000000047e7                xfer_open_socket
 .text.xfer_vopen
                0x000000000000481e       0x38 bin/blib.a(open.o)
                0x000000000000481e                xfer_vopen
 .text.xfer_vreopen
                0x0000000000004856       0x20 bin/blib.a(open.o)
                0x0000000000004856                xfer_vreopen
 .text.parse_string
                0x0000000000004876        0x5 bin/blib.a(parseopt.o)
                0x0000000000004876                parse_string
 .text.parse_integer
                0x000000000000487b       0x32 bin/blib.a(parseopt.o)
                0x000000000000487b                parse_integer
 .text.parse_netdev
                0x00000000000048ad       0x2a bin/blib.a(parseopt.o)
                0x00000000000048ad                parse_netdev
 .text.parse_menu
                0x00000000000048d7       0x3b bin/blib.a(parseopt.o)
                0x00000000000048d7                parse_menu
 .text.parse_flag
                0x0000000000004912        0x9 bin/blib.a(parseopt.o)
                0x0000000000004912                parse_flag
 .text.parse_key
                0x000000000000491b       0x19 bin/blib.a(parseopt.o)
                0x000000000000491b                parse_key
 .text.parse_settings
                0x0000000000004934       0x2a bin/blib.a(parseopt.o)
                0x0000000000004934                parse_settings
 .text.parse_setting
                0x000000000000495e       0x2d bin/blib.a(parseopt.o)
                0x000000000000495e                parse_setting
 .text.parse_existing_setting
                0x000000000000498b        0xa bin/blib.a(parseopt.o)
                0x000000000000498b                parse_existing_setting
 .text.parse_autovivified_setting
                0x0000000000004995        0xa bin/blib.a(parseopt.o)
                0x0000000000004995                parse_autovivified_setting
 .text.print_usage
                0x000000000000499f       0x15 bin/blib.a(parseopt.o)
                0x000000000000499f                print_usage
 .text.reparse_options
                0x00000000000049b4      0x19f bin/blib.a(parseopt.o)
                0x00000000000049b4                reparse_options
 .text.parse_options
                0x0000000000004b53       0x2b bin/blib.a(parseopt.o)
                0x0000000000004b53                parse_options
 .text.posix_fd_to_file
                0x0000000000004b7e       0x20 bin/blib.a(posix_io.o)
 .text.posix_file_finished
                0x0000000000004b9e       0x14 bin/blib.a(posix_io.o)
 .text.posix_file_xfer_deliver
                0x0000000000004bb2       0x3d bin/blib.a(posix_io.o)
 .text.posix_file_free
                0x0000000000004bef       0x30 bin/blib.a(posix_io.o)
 .text.open     0x0000000000004c1f       0xb9 bin/blib.a(posix_io.o)
                0x0000000000004c1f                open
 .text.select   0x0000000000004cd8       0x66 bin/blib.a(posix_io.o)
                0x0000000000004cd8                select
 .text.read_user
                0x0000000000004d3e       0x8a bin/blib.a(posix_io.o)
                0x0000000000004d3e                read_user
 .text.fsize    0x0000000000004dc8       0x13 bin/blib.a(posix_io.o)
                0x0000000000004dc8                fsize
 .text.close    0x0000000000004ddb       0x30 bin/blib.a(posix_io.o)
                0x0000000000004ddb                close
 .text.process_add
                0x0000000000004e0b       0x1e bin/blib.a(process.o)
                0x0000000000004e0b                process_add
 .text.init_processes
                0x0000000000004e29       0x1c bin/blib.a(process.o)
 .text.process_del
                0x0000000000004e45       0x1c bin/blib.a(process.o)
                0x0000000000004e45                process_del
 .text.step     0x0000000000004e61       0x5d bin/blib.a(process.o)
                0x0000000000004e61                step
 .text.ref_increment
                0x0000000000004ebe        0x7 bin/blib.a(refcnt.o)
                0x0000000000004ebe                ref_increment
 .text.ref_decrement
                0x0000000000004ec5       0x1c bin/blib.a(refcnt.o)
                0x0000000000004ec5                ref_decrement
 .text.ref_no_free
                0x0000000000004ee1        0x1 bin/blib.a(refcnt.o)
                0x0000000000004ee1                ref_no_free
 .text.apply_settings
                0x0000000000004ee2       0x1d bin/blib.a(settings.o)
 .text.builtin_applies
                0x0000000000004eff        0xd bin/blib.a(settings.o)
 .text.platform_fetch
                0x0000000000004f0c       0x12 bin/blib.a(settings.o)
 .text.buildarch_fetch
                0x0000000000004f1e       0x12 bin/blib.a(settings.o)
 .text.version_fetch
                0x0000000000004f30       0x17 bin/blib.a(settings.o)
 .text.format_string_setting
                0x0000000000004f47       0x2e bin/blib.a(settings.o)
 .text.parse_string_setting
                0x0000000000004f75       0x31 bin/blib.a(settings.o)
 .text.errno_fetch
                0x0000000000004fa6       0x28 bin/blib.a(settings.o)
 .text.denumerate_int_setting
                0x0000000000004fce       0x3f bin/blib.a(settings.o)
 .text.format_uint_setting
                0x000000000000500d       0x2e bin/blib.a(settings.o)
 .text.format_int_setting
                0x000000000000503b       0x2e bin/blib.a(settings.o)
 .text.format_hex_setting
                0x0000000000005069       0x68 bin/blib.a(settings.o)
 .text.format_hex_raw_setting
                0x00000000000050d1        0xa bin/blib.a(settings.o)
 .text.format_hex_hyphen_setting
                0x00000000000050db        0xa bin/blib.a(settings.o)
 .text.format_hex_colon_setting
                0x00000000000050e5        0xa bin/blib.a(settings.o)
 .text.parse_hex_raw_setting
                0x00000000000050ef        0x9 bin/blib.a(settings.o)
 .text.parse_hex_hyphen_setting
                0x00000000000050f8        0xc bin/blib.a(settings.o)
 .text.parse_hex_setting
                0x0000000000005104        0xc bin/blib.a(settings.o)
 .text.parse_ipv4_setting
                0x0000000000005110       0x39 bin/blib.a(settings.o)
 .text.format_uristring_setting
                0x0000000000005149       0x39 bin/blib.a(settings.o)
 .text.parse_uristring_setting
                0x0000000000005182       0x48 bin/blib.a(settings.o)
 .text.generic_settings_clear
                0x00000000000051ca       0x28 bin/blib.a(settings.o)
                0x00000000000051ca                generic_settings_clear
 .text.autovivified_settings_free
                0x00000000000051f2       0x13 bin/blib.a(settings.o)
 .text.parse_settings_name
                0x0000000000005205       0x66 bin/blib.a(settings.o)
 .text.numeric_setting_value
                0x000000000000526b       0x68 bin/blib.a(settings.o)
 .text.numerate_int_setting
                0x00000000000052d3       0x21 bin/blib.a(settings.o)
 .text.format_busdevfn_setting
                0x00000000000052f4       0x3f bin/blib.a(settings.o)
 .text.format_uuid_setting
                0x0000000000005333       0x2d bin/blib.a(settings.o)
 .text.parse_int_setting
                0x0000000000005360       0x34 bin/blib.a(settings.o)
 .text.format_ipv4_setting
                0x0000000000005394       0x2d bin/blib.a(settings.o)
 .text.find_settings
                0x00000000000053c1        0xa bin/blib.a(settings.o)
                0x00000000000053c1                find_settings
 .text.unregister_settings
                0x00000000000053cb       0x54 bin/blib.a(settings.o)
                0x00000000000053cb                unregister_settings
 .text.settings_target
                0x000000000000541f       0x15 bin/blib.a(settings.o)
                0x000000000000541f                settings_target
 .text.settings_name
                0x0000000000005434       0x5b bin/blib.a(settings.o)
                0x0000000000005434                settings_name
 .text.find_child_settings
                0x000000000000548f       0x45 bin/blib.a(settings.o)
                0x000000000000548f                find_child_settings
 .text.setting_applies
                0x00000000000054d4       0x25 bin/blib.a(settings.o)
                0x00000000000054d4                setting_applies
 .text.fetch_setting_and_origin
                0x00000000000054f9       0xb9 bin/blib.a(settings.o)
 .text.fetch_setting
                0x00000000000055b2        0xf bin/blib.a(settings.o)
                0x00000000000055b2                fetch_setting
 .text.fetch_setting_origin
                0x00000000000055c1       0x13 bin/blib.a(settings.o)
                0x00000000000055c1                fetch_setting_origin
 .text.fetch_setting_len
                0x00000000000055d4        0xa bin/blib.a(settings.o)
                0x00000000000055d4                fetch_setting_len
 .text.fetch_setting_copy
                0x00000000000055de       0x40 bin/blib.a(settings.o)
                0x00000000000055de                fetch_setting_copy
 .text.fetch_string_setting
                0x000000000000561e       0x30 bin/blib.a(settings.o)
                0x000000000000561e                fetch_string_setting
 .text.fetch_string_setting_copy
                0x000000000000564e       0x51 bin/blib.a(settings.o)
                0x000000000000564e                fetch_string_setting_copy
 .text.fetch_ipv4_array_setting
                0x000000000000569f       0x1f bin/blib.a(settings.o)
                0x000000000000569f                fetch_ipv4_array_setting
 .text.fetch_ipv4_setting
                0x00000000000056be        0x8 bin/blib.a(settings.o)
                0x00000000000056be                fetch_ipv4_setting
 .text.fetch_numeric_setting
                0x00000000000056c6       0x2e bin/blib.a(settings.o)
                0x00000000000056c6                fetch_numeric_setting
 .text.fetch_intz_setting
                0x00000000000056f4       0x11 bin/blib.a(settings.o)
                0x00000000000056f4                fetch_intz_setting
 .text.reprioritise_settings
                0x0000000000005705       0x6f bin/blib.a(settings.o)
 .text.register_settings
                0x0000000000005774       0x51 bin/blib.a(settings.o)
                0x0000000000005774                register_settings
 .text.builtin_init
                0x00000000000057c5       0x11 bin/blib.a(settings.o)
 .text.autovivify_child_settings
                0x00000000000057d6       0x9b bin/blib.a(settings.o)
                0x00000000000057d6                autovivify_child_settings
 .text.fetch_uintz_setting
                0x0000000000005871       0x11 bin/blib.a(settings.o)
                0x0000000000005871                fetch_uintz_setting
 .text.fetch_uuid_setting
                0x0000000000005882       0x16 bin/blib.a(settings.o)
                0x0000000000005882                fetch_uuid_setting
 .text.clear_settings
                0x0000000000005898       0x12 bin/blib.a(settings.o)
                0x0000000000005898                clear_settings
 .text.setting_cmp
                0x00000000000058aa       0x39 bin/blib.a(settings.o)
                0x00000000000058aa                setting_cmp
 .text.builtin_fetch
                0x00000000000058e3       0x3c bin/blib.a(settings.o)
 .text.store_setting
                0x000000000000591f       0x80 bin/blib.a(settings.o)
                0x000000000000591f                store_setting
 .text.generic_settings_fetch
                0x000000000000599f       0x62 bin/blib.a(settings.o)
                0x000000000000599f                generic_settings_fetch
 .text.generic_settings_store
                0x0000000000005a01       0xdb bin/blib.a(settings.o)
                0x0000000000005a01                generic_settings_store
 .text.setting_format
                0x0000000000005adc       0x1d bin/blib.a(settings.o)
                0x0000000000005adc                setting_format
 .text.setting_parse
                0x0000000000005af9       0x19 bin/blib.a(settings.o)
                0x0000000000005af9                setting_parse
 .text.setting_numerate
                0x0000000000005b12       0x19 bin/blib.a(settings.o)
                0x0000000000005b12                setting_numerate
 .text.setting_denumerate
                0x0000000000005b2b       0x19 bin/blib.a(settings.o)
                0x0000000000005b2b                setting_denumerate
 .text.fetchf_setting
                0x0000000000005b44       0x3d bin/blib.a(settings.o)
                0x0000000000005b44                fetchf_setting
 .text.fetchf_setting_copy
                0x0000000000005b81       0x51 bin/blib.a(settings.o)
                0x0000000000005b81                fetchf_setting_copy
 .text.storef_setting
                0x0000000000005bd2       0x7a bin/blib.a(settings.o)
                0x0000000000005bd2                storef_setting
 .text.fetchn_setting
                0x0000000000005c4c       0x37 bin/blib.a(settings.o)
                0x0000000000005c4c                fetchn_setting
 .text.storen_setting
                0x0000000000005c83       0x5e bin/blib.a(settings.o)
                0x0000000000005c83                storen_setting
 .text.parse_setting_name
                0x0000000000005ce1      0x153 bin/blib.a(settings.o)
                0x0000000000005ce1                parse_setting_name
 .text.setting_name
                0x0000000000005e34       0x43 bin/blib.a(settings.o)
                0x0000000000005e34                setting_name
 .text.expand_settings
                0x0000000000005e77       0xca bin/blib.a(settings.o)
                0x0000000000005e77                expand_settings
 .text.strcpy   0x0000000000005f41       0x10 bin/blib.a(string.o)
                0x0000000000005f41                strcpy
 .text.strncpy  0x0000000000005f51       0x18 bin/blib.a(string.o)
                0x0000000000005f51                strncpy
 .text.strcmp   0x0000000000005f69       0x24 bin/blib.a(string.o)
                0x0000000000005f69                strcmp
 .text.strcasecmp
                0x0000000000005f8d       0x2a bin/blib.a(string.o)
                0x0000000000005f8d                strcasecmp
 .text.strchr   0x0000000000005fb7       0x11 bin/blib.a(string.o)
                0x0000000000005fb7                strchr
 .text.strrchr  0x0000000000005fc8       0x1f bin/blib.a(string.o)
                0x0000000000005fc8                strrchr
 .text.strnlen  0x0000000000005fe7       0x14 bin/blib.a(string.o)
                0x0000000000005fe7                strnlen
 .text.memcmp   0x0000000000005ffb       0x21 bin/blib.a(string.o)
                0x0000000000005ffb                memcmp
 .text.strstr   0x000000000000601c       0x3e bin/blib.a(string.o)
                0x000000000000601c                strstr
 .text.memchr   0x000000000000605a       0x15 bin/blib.a(string.o)
                0x000000000000605a                memchr
 .text.strndup  0x000000000000606f       0x35 bin/blib.a(string.o)
                0x000000000000606f                strndup
 .text.strdup   0x00000000000060a4        0x8 bin/blib.a(string.o)
                0x00000000000060a4                strdup
 .text.mdelay   0x00000000000060ac       0x16 bin/blib.a(timer.o)
                0x00000000000060ac                mdelay
 .text.sleep    0x00000000000060c2       0x18 bin/blib.a(timer.o)
                0x00000000000060c2                sleep
 .text.free_uri
                0x00000000000060da       0x17 bin/blib.a(uri.o)
 .text.uri_port
                0x00000000000060f1       0x17 bin/blib.a(uri.o)
                0x00000000000060f1                uri_port
 .text.resolve_path
                0x0000000000006108       0xc2 bin/blib.a(uri.o)
                0x0000000000006108                resolve_path
 .text.uri_encode
                0x00000000000061ca       0xc4 bin/blib.a(uri.o)
                0x00000000000061ca                uri_encode
 .text.unparse_uri
                0x000000000000628e      0x111 bin/blib.a(uri.o)
                0x000000000000628e                unparse_uri
 .text.uri_decode
                0x000000000000639f       0x71 bin/blib.a(uri.o)
                0x000000000000639f                uri_decode
 .text.parse_uri
                0x0000000000006410      0x19c bin/blib.a(uri.o)
                0x0000000000006410                parse_uri
 .text.uri_dup  0x00000000000065ac       0x45 bin/blib.a(uri.o)
                0x00000000000065ac                uri_dup
 .text.resolve_uri
                0x00000000000065f1       0x8c bin/blib.a(uri.o)
                0x00000000000065f1                resolve_uri
 .text.uuid_ntoa
                0x000000000000667d       0x63 bin/blib.a(uuid.o)
                0x000000000000667d                uuid_ntoa
 .text.format_hex
                0x00000000000066e0       0x6e bin/blib.a(vsprintf.o)
 .text.printf_sputc
                0x000000000000674e        0xf bin/blib.a(vsprintf.o)
 .text.printf_putchar
                0x000000000000675d        0x7 bin/blib.a(vsprintf.o)
 .text.vcprintf
                0x0000000000006764      0x267 bin/blib.a(vsprintf.o)
                0x0000000000006764                vcprintf
 .text.vsnprintf
                0x00000000000069cb       0x3e bin/blib.a(vsprintf.o)
                0x00000000000069cb                vsnprintf
 .text.snprintf
                0x0000000000006a09       0x17 bin/blib.a(vsprintf.o)
                0x0000000000006a09                snprintf
 .text.vssnprintf
                0x0000000000006a20       0x12 bin/blib.a(vsprintf.o)
                0x0000000000006a20                vssnprintf
 .text.ssnprintf
                0x0000000000006a32       0x17 bin/blib.a(vsprintf.o)
                0x0000000000006a32                ssnprintf
 .text.vprintf  0x0000000000006a49       0x19 bin/blib.a(vsprintf.o)
                0x0000000000006a49                vprintf
 .text.printf   0x0000000000006a62        0xe bin/blib.a(vsprintf.o)
                0x0000000000006a62                printf
 .text.xfer_deliver
                0x0000000000006a70       0x47 bin/blib.a(xfer.o)
                0x0000000000006a70                xfer_deliver
 .text.xfer_window_changed
                0x0000000000006ab7       0x29 bin/blib.a(xfer.o)
                0x0000000000006ab7                xfer_window_changed
 .text.xfer_window
                0x0000000000006ae0       0x32 bin/blib.a(xfer.o)
                0x0000000000006ae0                xfer_window
 .text.xfer_alloc_iob
                0x0000000000006b12       0x3c bin/blib.a(xfer.o)
                0x0000000000006b12                xfer_alloc_iob
 .text.xfer_vredirect
                0x0000000000006b4e       0x88 bin/blib.a(xfer.o)
                0x0000000000006b4e                xfer_vredirect
 .text.xfer_redirect
                0x0000000000006bd6       0x12 bin/blib.a(xfer.o)
                0x0000000000006bd6                xfer_redirect
 .text.xfer_deliver_iob
                0x0000000000006be8        0xa bin/blib.a(xfer.o)
                0x0000000000006be8                xfer_deliver_iob
 .text.xfer_deliver_raw_meta
                0x0000000000006bf2       0x46 bin/blib.a(xfer.o)
                0x0000000000006bf2                xfer_deliver_raw_meta
 .text.xfer_deliver_raw
                0x0000000000006c38        0xb bin/blib.a(xfer.o)
                0x0000000000006c38                xfer_deliver_raw
 .text.xfer_vprintf
                0x0000000000006c43       0x2e bin/blib.a(xfer.o)
                0x0000000000006c43                xfer_vprintf
 .text.xfer_printf
                0x0000000000006c71       0x12 bin/blib.a(xfer.o)
                0x0000000000006c71                xfer_printf
 .text.xfer_seek
                0x0000000000006c83       0x42 bin/blib.a(xfer.o)
                0x0000000000006c83                xfer_seek
 .text.arp_ntoa
                0x0000000000006cc5        0x6 bin/blib.a(arp.o)
 .text.arp_rx   0x0000000000006ccb      0x10a bin/blib.a(arp.o)
 .text.arp_tx_request
                0x0000000000006dd5       0xda bin/blib.a(arp.o)
 .text.find_dhcp_option_with_encap
                0x0000000000006eaf       0x8b bin/blib.a(dhcpopts.o)
 .text.set_dhcp_option
                0x0000000000006f3a      0x1d4 bin/blib.a(dhcpopts.o)
 .text.dhcpopt_no_realloc
                0x000000000000710e        0xf bin/blib.a(dhcpopts.o)
                0x000000000000710e                dhcpopt_no_realloc
 .text.dhcpopt_applies
                0x000000000000711d        0xd bin/blib.a(dhcpopts.o)
                0x000000000000711d                dhcpopt_applies
 .text.dhcpopt_store
                0x000000000000712a       0x17 bin/blib.a(dhcpopts.o)
                0x000000000000712a                dhcpopt_store
 .text.dhcpopt_fetch
                0x0000000000007141       0x36 bin/blib.a(dhcpopts.o)
                0x0000000000007141                dhcpopt_fetch
 .text.dhcpopt_update_used_len
                0x0000000000007177       0x50 bin/blib.a(dhcpopts.o)
                0x0000000000007177                dhcpopt_update_used_len
 .text.dhcpopt_init
                0x00000000000071c7       0x14 bin/blib.a(dhcpopts.o)
                0x00000000000071c7                dhcpopt_init
 .text.eth_push
                0x00000000000071db       0x38 bin/blib.a(ethernet.o)
                0x00000000000071db                eth_push
 .text.eth_init_addr
                0x0000000000007213        0xc bin/blib.a(ethernet.o)
                0x0000000000007213                eth_init_addr
 .text.eth_eth_addr
                0x000000000000721f        0xe bin/blib.a(ethernet.o)
                0x000000000000721f                eth_eth_addr
 .text.eth_eui64
                0x000000000000722d       0x21 bin/blib.a(ethernet.o)
                0x000000000000722d                eth_eui64
 .text.eth_ntoa
                0x000000000000724e       0x37 bin/blib.a(ethernet.o)
                0x000000000000724e                eth_ntoa
 .text.eth_pull
                0x0000000000007285       0x5e bin/blib.a(ethernet.o)
                0x0000000000007285                eth_pull
 .text.eth_mc_hash
                0x00000000000072e3       0x44 bin/blib.a(ethernet.o)
                0x00000000000072e3                eth_mc_hash
 .text.alloc_etherdev
                0x0000000000007327       0x1f bin/blib.a(ethernet.o)
                0x0000000000007327                alloc_etherdev
 .text.eth_slow_rx
                0x0000000000007346      0x111 bin/blib.a(eth_slow.o)
 .text.copy_encap_settings
                0x0000000000007457       0xc6 bin/blib.a(fakedhcp.o)
 .text.create_fakedhcpdiscover
                0x000000000000751d       0x21 bin/blib.a(fakedhcp.o)
                0x000000000000751d                create_fakedhcpdiscover
 .text.create_fakedhcpack
                0x000000000000753e       0x49 bin/blib.a(fakedhcp.o)
                0x000000000000753e                create_fakedhcpack
 .text.create_fakepxebsack
                0x0000000000007587       0x92 bin/blib.a(fakedhcp.o)
                0x0000000000007587                create_fakepxebsack
 .text.iob_pad  0x0000000000007619       0x42 bin/blib.a(iobpad.o)
                0x0000000000007619                iob_pad
 .text.ipv4_is_fragment
                0x000000000000765b       0x24 bin/blib.a(ipv4.o)
 .text.ipv4_more_fragments
                0x000000000000767f        0xb bin/blib.a(ipv4.o)
 .text.ipv4_fragment_offset
                0x000000000000768a       0x12 bin/blib.a(ipv4.o)
 .text.ipv4_create_routes
                0x000000000000769c      0x15c bin/blib.a(ipv4.o)
 .text.ipv4_pshdr_chksum
                0x00000000000077f8       0x53 bin/blib.a(ipv4.o)
 .text.ipv4_tx  0x000000000000784b      0x1c1 bin/blib.a(ipv4.o)
 .text.ipv4_arp_check
                0x0000000000007a0c       0x29 bin/blib.a(ipv4.o)
 .text.ipv4_sock_aton
                0x0000000000007a35       0x21 bin/blib.a(ipv4.o)
 .text.ipv4_has_any_addr
                0x0000000000007a56       0x20 bin/blib.a(ipv4.o)
                0x0000000000007a56                ipv4_has_any_addr
 .text.ipv4_rx  0x0000000000007a76      0x155 bin/blib.a(ipv4.o)
 .text.inet_ntoa
                0x0000000000007bcb       0x31 bin/blib.a(ipv4.o)
                0x0000000000007bcb                inet_ntoa
 .text.ipv4_sock_ntoa
                0x0000000000007bfc        0x8 bin/blib.a(ipv4.o)
 .text.ipv4_ntoa
                0x0000000000007c04        0x7 bin/blib.a(ipv4.o)
 .text.neighbour_probe
                0x0000000000007c0b        0x3 bin/blib.a(neighbour.o)
 .text.neighbour_destroy
                0x0000000000007c0e       0x48 bin/blib.a(neighbour.o)
 .text.neighbour_discard
                0x0000000000007c56       0x2b bin/blib.a(neighbour.o)
 .text.neighbour_find
                0x0000000000007c81       0x65 bin/blib.a(neighbour.o)
 .text.neighbour_create
                0x0000000000007ce6       0x71 bin/blib.a(neighbour.o)
 .text.neighbour_expired
                0x0000000000007d57       0x3c bin/blib.a(neighbour.o)
 .text.neighbour_free
                0x0000000000007d93       0x13 bin/blib.a(neighbour.o)
 .text.neighbour_discovered
                0x0000000000007da6       0x70 bin/blib.a(neighbour.o)
 .text.neighbour_flush
                0x0000000000007e16       0x32 bin/blib.a(neighbour.o)
 .text.neighbour_tx
                0x0000000000007e48       0x8c bin/blib.a(neighbour.o)
                0x0000000000007e48                neighbour_tx
 .text.neighbour_update
                0x0000000000007ed4       0x1f bin/blib.a(neighbour.o)
                0x0000000000007ed4                neighbour_update
 .text.netdev_notify
                0x0000000000007ef3       0x1e bin/blib.a(netdevice.o)
 .text.net_discard
                0x0000000000007f11       0x40 bin/blib.a(netdevice.o)
 .text.netdev_record_stat
                0x0000000000007f51       0x40 bin/blib.a(netdevice.o)
 .text.netdev_link_err
                0x0000000000007f91        0x8 bin/blib.a(netdevice.o)
                0x0000000000007f91                netdev_link_err
 .text.netdev_link_down
                0x0000000000007f99       0x1c bin/blib.a(netdevice.o)
                0x0000000000007f99                netdev_link_down
 .text.netdev_tx_err
                0x0000000000007fb5       0x15 bin/blib.a(netdevice.o)
                0x0000000000007fb5                netdev_tx_err
 .text.netdev_tx_defer
                0x0000000000007fca       0x26 bin/blib.a(netdevice.o)
                0x0000000000007fca                netdev_tx_defer
 .text.netdev_tx_complete_err
                0x0000000000007ff0       0x39 bin/blib.a(netdevice.o)
                0x0000000000007ff0                netdev_tx_complete_err
 .text.netdev_tx
                0x0000000000008029       0x3f bin/blib.a(netdevice.o)
                0x0000000000008029                netdev_tx
 .text.netdev_tx_complete_next_err
                0x0000000000008068       0x1b bin/blib.a(netdevice.o)
                0x0000000000008068                netdev_tx_complete_next_err
 .text.netdev_tx_flush
                0x0000000000008083       0x1d bin/blib.a(netdevice.o)
 .text.netdev_rx
                0x00000000000080a0       0x1b bin/blib.a(netdevice.o)
                0x00000000000080a0                netdev_rx
 .text.netdev_rx_err
                0x00000000000080bb       0x1c bin/blib.a(netdevice.o)
                0x00000000000080bb                netdev_rx_err
 .text.netdev_poll
                0x00000000000080d7        0xd bin/blib.a(netdevice.o)
                0x00000000000080d7                netdev_poll
 .text.netdev_rx_dequeue
                0x00000000000080e4       0x1f bin/blib.a(netdevice.o)
                0x00000000000080e4                netdev_rx_dequeue
 .text.netdev_rx_flush
                0x0000000000008103       0x20 bin/blib.a(netdevice.o)
 .text.free_netdev
                0x0000000000008123       0x22 bin/blib.a(netdevice.o)
 .text.alloc_netdev
                0x0000000000008145       0x98 bin/blib.a(netdevice.o)
                0x0000000000008145                alloc_netdev
 .text.register_netdev
                0x00000000000081dd       0xee bin/blib.a(netdevice.o)
                0x00000000000081dd                register_netdev
 .text.netdev_open
                0x00000000000082cb       0x34 bin/blib.a(netdevice.o)
                0x00000000000082cb                netdev_open
 .text.netdev_close
                0x00000000000082ff       0x3b bin/blib.a(netdevice.o)
                0x00000000000082ff                netdev_close
 .text.unregister_netdev
                0x000000000000833a       0x48 bin/blib.a(netdevice.o)
                0x000000000000833a                unregister_netdev
 .text.netdev_irq
                0x0000000000008382       0x2a bin/blib.a(netdevice.o)
                0x0000000000008382                netdev_irq
 .text.find_netdev_by_location
                0x00000000000083ac       0x28 bin/blib.a(netdevice.o)
                0x00000000000083ac                find_netdev_by_location
 .text.last_opened_netdev
                0x00000000000083d4       0x14 bin/blib.a(netdevice.o)
                0x00000000000083d4                last_opened_netdev
 .text.find_netdev
                0x00000000000083e8       0x42 bin/blib.a(netdevice.o)
                0x00000000000083e8                find_netdev
 .text.net_tx   0x000000000000842a       0x44 bin/blib.a(netdevice.o)
                0x000000000000842a                net_tx
 .text.net_rx   0x000000000000846e       0x38 bin/blib.a(netdevice.o)
                0x000000000000846e                net_rx
 .text.net_poll
                0x00000000000084a6       0x97 bin/blib.a(netdevice.o)
                0x00000000000084a6                net_poll
 .text.net_step
                0x000000000000853d        0x5 bin/blib.a(netdevice.o)
 .text.vlan_tag
                0x0000000000008542        0x3 bin/blib.a(netdevice.o)
                0x0000000000008542                vlan_tag
 .text.netdev_redirect_settings_init
                0x0000000000008545       0x11 bin/blib.a(netdev_settings.o)
 .text.netdev_redirect
                0x0000000000008556       0x16 bin/blib.a(netdev_settings.o)
 .text.netdev_clear
                0x000000000000856c        0x5 bin/blib.a(netdev_settings.o)
 .text.netdev_fetch
                0x0000000000008571       0x6c bin/blib.a(netdev_settings.o)
 .text.netdev_fetch_chip
                0x00000000000085dd       0x1c bin/blib.a(netdev_settings.o)
 .text.netdev_fetch_bustype
                0x00000000000085f9       0x23 bin/blib.a(netdev_settings.o)
 .text.netdev_store_mac
                0x000000000000861c       0x2e bin/blib.a(netdev_settings.o)
 .text.netdev_fetch_mac
                0x000000000000864a       0x23 bin/blib.a(netdev_settings.o)
 .text.netdev_fetch_busid
                0x000000000000866d       0x43 bin/blib.a(netdev_settings.o)
 .text.netdev_fetch_busloc
                0x00000000000086b0       0x2a bin/blib.a(netdev_settings.o)
 .text.netdev_store
                0x00000000000086da       0x7b bin/blib.a(netdev_settings.o)
 .text.null_open
                0x0000000000008755        0x6 bin/blib.a(nullnet.o)
 .text.null_close
                0x000000000000875b        0x1 bin/blib.a(nullnet.o)
 .text.null_transmit
                0x000000000000875c        0x6 bin/blib.a(nullnet.o)
 .text.null_poll
                0x0000000000008762        0x1 bin/blib.a(nullnet.o)
 .text.null_irq
                0x0000000000008763        0x1 bin/blib.a(nullnet.o)
 .text.rarp_ntoa
                0x0000000000008764        0x6 bin/blib.a(rarp.o)
 .text.rarp_rx  0x000000000000876a        0xa bin/blib.a(rarp.o)
 .text.start_timer
                0x0000000000008774       0x51 bin/blib.a(retry.o)
                0x0000000000008774                start_timer
 .text.start_timer_fixed
                0x00000000000087c5       0x11 bin/blib.a(retry.o)
                0x00000000000087c5                start_timer_fixed
 .text.stop_timer
                0x00000000000087d6       0x50 bin/blib.a(retry.o)
                0x00000000000087d6                stop_timer
 .text.retry_poll
                0x0000000000008826       0x6f bin/blib.a(retry.o)
                0x0000000000008826                retry_poll
 .text.retry_step
                0x0000000000008895        0x5 bin/blib.a(retry.o)
 .text.tcpip_rx
                0x000000000000889a       0x3d bin/blib.a(tcpip.o)
                0x000000000000889a                tcpip_rx
 .text.tcpip_tx
                0x00000000000088d7       0x40 bin/blib.a(tcpip.o)
                0x00000000000088d7                tcpip_tx
 .text.tcpip_chksum
                0x0000000000008917        0xe bin/blib.a(tcpip.o)
                0x0000000000008917                tcpip_chksum
 .text.tcpip_bind
                0x0000000000008925       0x6e bin/blib.a(tcpip.o)
                0x0000000000008925                tcpip_bind
 .text.udp_rx   0x0000000000008993      0x13e bin/blib.a(udp.o)
 .text.udp_close
                0x0000000000008ad1       0x1e bin/blib.a(udp.o)
 .text.udp_xfer_alloc_iob
                0x0000000000008aef       0x15 bin/blib.a(udp.o)
 .text.udp_xfer_deliver
                0x0000000000008b04       0x9f bin/blib.a(udp.o)
 .text.udp_open_common
                0x0000000000008ba3       0xa4 bin/blib.a(udp.o)
 .text.udp_open
                0x0000000000008c47        0x8 bin/blib.a(udp.o)
                0x0000000000008c47                udp_open
 .text.udp_open_uri
                0x0000000000008c4f       0x50 bin/blib.a(udp.o)
 .text.udp_port_available
                0x0000000000008c9f       0x2a bin/blib.a(udp.o)
 .text.udp_open_promisc
                0x0000000000008cc9        0xc bin/blib.a(udp.o)
                0x0000000000008cc9                udp_open_promisc
 .text.http_open
                0x0000000000008cd5        0xd bin/blib.a(http.o)
 .text.http_socket_window
                0x0000000000008ce2        0x4 bin/blib.a(httpcore.o)
 .text.http_xfer_window
                0x0000000000008ce6        0xb bin/blib.a(httpcore.o)
 .text.http_acpi_describe
                0x0000000000008cf1        0x3 bin/blib.a(httpcore.o)
 .text.http_rx_connection
                0x0000000000008cf4       0x1b bin/blib.a(httpcore.o)
 .text.http_rx_transfer_encoding
                0x0000000000008d0f       0x1e bin/blib.a(httpcore.o)
 .text.http_free
                0x0000000000008d2d       0x39 bin/blib.a(httpcore.o)
 .text.http_digest_param
                0x0000000000008d66       0x3a bin/blib.a(httpcore.o)
 .text.http_rx_content_length
                0x0000000000008da0       0x9b bin/blib.a(httpcore.o)
 .text.http_rx_location
                0x0000000000008e3b       0x10 bin/blib.a(httpcore.o)
 .text.http_rx_response
                0x0000000000008e4b       0x5c bin/blib.a(httpcore.o)
 .text.http_digest_auth
                0x0000000000008ea7      0x255 bin/blib.a(httpcore.o)
 .text.http_socket_open
                0x00000000000090fc       0x62 bin/blib.a(httpcore.o)
 .text.http_close
                0x000000000000915e       0x39 bin/blib.a(httpcore.o)
 .text.http_rx_basic_auth
                0x0000000000009197       0x23 bin/blib.a(httpcore.o)
 .text.http_partial_read.part.7
                0x00000000000091ba        0x6 bin/blib.a(httpcore.o)
 .text.http_block_read_capacity
                0x00000000000091c0       0x4f bin/blib.a(httpcore.o)
 .text.http_block_read
                0x000000000000920f       0x60 bin/blib.a(httpcore.o)
 .text.http_rx_chunk_len
                0x000000000000926f       0x6e bin/blib.a(httpcore.o)
 .text.http_rx_www_authenticate
                0x00000000000092dd       0x50 bin/blib.a(httpcore.o)
 .text.http_rx_digest_auth
                0x000000000000932d       0x8d bin/blib.a(httpcore.o)
 .text.http_basic_auth.isra.13
                0x00000000000093ba       0xaa bin/blib.a(httpcore.o)
 .text.http_post_params.isra.14
                0x0000000000009464       0x8b bin/blib.a(httpcore.o)
 .text.http_done
                0x00000000000094ef       0x95 bin/blib.a(httpcore.o)
 .text.http_socket_close
                0x0000000000009584        0xe bin/blib.a(httpcore.o)
 .text.http_rx_header
                0x0000000000009592       0xf4 bin/blib.a(httpcore.o)
 .text.http_socket_deliver
                0x0000000000009686      0x13a bin/blib.a(httpcore.o)
 .text.http_step
                0x00000000000097c0      0x2a1 bin/blib.a(httpcore.o)
 .text.http_open_filter
                0x0000000000009a61       0xd3 bin/blib.a(httpcore.o)
                0x0000000000009a61                http_open_filter
 .text.iscsi_tx_nothing
                0x0000000000009b34        0x3 bin/blib.a(iscsi.o)
 .text.iscsi_rx_discard
                0x0000000000009b37        0x5 bin/blib.a(iscsi.o)
 .text.iscsi_scsi_window
                0x0000000000009b3c       0x1c bin/blib.a(iscsi.o)
 .text.iscsi_rx_bhs
                0x0000000000009b58       0x19 bin/blib.a(iscsi.o)
 .text.iscsi_vredirect
                0x0000000000009b71       0x30 bin/blib.a(iscsi.o)
 .text.iscsi_tx_resume
                0x0000000000009ba1        0xa bin/blib.a(iscsi.o)
 .text.iscsi_start_data_out
                0x0000000000009bab       0xcb bin/blib.a(iscsi.o)
 .text.iscsi_rx_buffered_data
                0x0000000000009c76       0x51 bin/blib.a(iscsi.o)
 .text.iscsi_handle_authmethod_value
                0x0000000000009cc7       0x1e bin/blib.a(iscsi.o)
 .text.iscsi_large_binary_decode
                0x0000000000009ce5       0x38 bin/blib.a(iscsi.o)
 .text.iscsi_handle_chap_r_value
                0x0000000000009d1d       0xd7 bin/blib.a(iscsi.o)
 .text.iscsi_handle_chap_c_value
                0x0000000000009df4       0x76 bin/blib.a(iscsi.o)
 .text.iscsi_handle_chap_i_value
                0x0000000000009e6a       0x7a bin/blib.a(iscsi.o)
 .text.iscsi_free
                0x0000000000009ee4       0x6b bin/blib.a(iscsi.o)
 .text.iscsi_build_login_request_strings
                0x0000000000009f4f      0x150 bin/blib.a(iscsi.o)
 .text.iscsi_start_login
                0x000000000000a09f       0x92 bin/blib.a(iscsi.o)
 .text.iscsi_scsi_command
                0x000000000000a131      0x117 bin/blib.a(iscsi.o)
 .text.iscsi_tx_data
                0x000000000000a248       0xed bin/blib.a(iscsi.o)
 .text.iscsi_tx_bhs
                0x000000000000a335       0x13 bin/blib.a(iscsi.o)
 .text.iscsi_parse_root_path
                0x000000000000a348       0xb3 bin/blib.a(iscsi.o)
 .text.iscsi_close
                0x000000000000a3fb       0x3a bin/blib.a(iscsi.o)
 .text.iscsi_socket_deliver
                0x000000000000a435      0x10b bin/blib.a(iscsi.o)
 .text.iscsi_command_close
                0x000000000000a540       0x2e bin/blib.a(iscsi.o)
 .text.iscsi_tx_step
                0x000000000000a56e       0xee bin/blib.a(iscsi.o)
 .text.iscsi_handle_chap_n_value
                0x000000000000a65c       0x1c bin/blib.a(iscsi.o)
 .text.iscsi_handle_chap_a_value
                0x000000000000a678       0x1a bin/blib.a(iscsi.o)
 .text.iscsi_handle_targetaddress_value
                0x000000000000a692       0x4f bin/blib.a(iscsi.o)
 .text.iscsi_open_connection
                0x000000000000a6e1       0x7e bin/blib.a(iscsi.o)
 .text.iscsi_open
                0x000000000000a75f      0x23f bin/blib.a(iscsi.o)
 .text.iscsi_scsi_done.constprop.11
                0x000000000000a99e       0x45 bin/blib.a(iscsi.o)
 .text.iscsi_rx_data
                0x000000000000a9e3      0x3d2 bin/blib.a(iscsi.o)
 .text.dhcp_discovery_tx
                0x000000000000adb5       0x10 bin/blib.a(dhcp.o)
 .text.dhcp_deliver
                0x000000000000adc5       0xca bin/blib.a(dhcp.o)
 .text.dhcp_pxebs_tx
                0x000000000000ae8f       0x42 bin/blib.a(dhcp.o)
 .text.dhcp_proxy_tx
                0x000000000000aed1       0x2a bin/blib.a(dhcp.o)
 .text.dhcp_set_state
                0x000000000000aefb       0x46 bin/blib.a(dhcp.o)
 .text.dhcp_finished
                0x000000000000af41       0x24 bin/blib.a(dhcp.o)
 .text.dhcp_pxebs_rx
                0x000000000000af65       0x9e bin/blib.a(dhcp.o)
 .text.dhcp_timer_expired
                0x000000000000b003       0x1a bin/blib.a(dhcp.o)
 .text.dhcp_proxy_rx
                0x000000000000b01d       0x4e bin/blib.a(dhcp.o)
 .text.dhcp_free
                0x000000000000b06b       0x1b bin/blib.a(dhcp.o)
 .text.dhcp_discovery_rx
                0x000000000000b086      0x12d bin/blib.a(dhcp.o)
 .text.dhcp_request_tx
                0x000000000000b1b3       0x44 bin/blib.a(dhcp.o)
 .text.dhcp_request_rx
                0x000000000000b1f7       0xc9 bin/blib.a(dhcp.o)
 .text.dhcp_create_packet
                0x000000000000b2c0       0xdb bin/blib.a(dhcp.o)
                0x000000000000b2c0                dhcp_create_packet
 .text.dhcp_create_request
                0x000000000000b39b      0x15a bin/blib.a(dhcp.o)
                0x000000000000b39b                dhcp_create_request
 .text.dhcp_tx  0x000000000000b4f5       0xf3 bin/blib.a(dhcp.o)
 .text.dhcp_pxebs_expired
                0x000000000000b5e8       0x44 bin/blib.a(dhcp.o)
 .text.dhcp_discovery_expired
                0x000000000000b62c       0x30 bin/blib.a(dhcp.o)
 .text.dhcp_request_expired
                0x000000000000b65c        0x5 bin/blib.a(dhcp.o)
 .text.dhcp_proxy_expired
                0x000000000000b661       0x25 bin/blib.a(dhcp.o)
 .text.start_dhcp
                0x000000000000b686       0xc8 bin/blib.a(dhcp.o)
                0x000000000000b686                start_dhcp
 .text.start_pxebs
                0x000000000000b74e      0x21c bin/blib.a(dhcp.o)
                0x000000000000b74e                start_pxebs
 .text.dns_skip_name
                0x000000000000b96a       0x1a bin/blib.a(dns.o)
 .text.apply_dns_settings
                0x000000000000b984       0x45 bin/blib.a(dns.o)
 .text.dns_done
                0x000000000000b9c9       0x24 bin/blib.a(dns.o)
 .text.dns_xfer_close
                0x000000000000b9ed        0xe bin/blib.a(dns.o)
 .text.dns_send_packet
                0x000000000000b9fb       0x33 bin/blib.a(dns.o)
 .text.dns_resolv
                0x000000000000ba2e      0x14e bin/blib.a(dns.o)
 .text.dns_xfer_deliver
                0x000000000000bb7c      0x211 bin/blib.a(dns.o)
 .text.dns_timer_expired
                0x000000000000bd8d       0x16 bin/blib.a(dns.o)
 .text.tftp_xfer_window
                0x000000000000bda3        0x4 bin/blib.a(tftp.o)
 .text.tftp_reopen
                0x000000000000bda7       0x57 bin/blib.a(tftp.o)
 .text.tftp_reopen_mc
                0x000000000000bdfe       0x23 bin/blib.a(tftp.o)
 .text.tftp_process_multicast
                0x000000000000be21       0xec bin/blib.a(tftp.o)
 .text.tftp_send_packet
                0x000000000000bf0d      0x162 bin/blib.a(tftp.o)
 .text.tftp_done
                0x000000000000c06f       0x2e bin/blib.a(tftp.o)
 .text.tftp_core_open
                0x000000000000c09d      0x101 bin/blib.a(tftp.o)
 .text.mtftp_open
                0x000000000000c19e       0x12 bin/blib.a(tftp.o)
 .text.tftm_open
                0x000000000000c1b0        0xf bin/blib.a(tftp.o)
 .text.tftpsize_open
                0x000000000000c1bf        0xf bin/blib.a(tftp.o)
 .text.tftp_open
                0x000000000000c1ce        0xf bin/blib.a(tftp.o)
 .text.tftp_timer_expired
                0x000000000000c1dd       0x84 bin/blib.a(tftp.o)
 .text.tftp_free
                0x000000000000c261       0x1b bin/blib.a(tftp.o)
 .text.tftp_apply_settings
                0x000000000000c27c       0x71 bin/blib.a(tftp.o)
 .text.tftp_process_tsize
                0x000000000000c2ed       0x27 bin/blib.a(tftp.o)
 .text.tftp_process_blksize
                0x000000000000c314       0x27 bin/blib.a(tftp.o)
 .text.tftp_presize.part.7
                0x000000000000c33b       0x32 bin/blib.a(tftp.o)
 .text.tftp_send_error.constprop.9
                0x000000000000c36d       0x72 bin/blib.a(tftp.o)
 .text.tftp_rx  0x000000000000c3df      0x293 bin/blib.a(tftp.o)
 .text.tftp_socket_deliver
                0x000000000000c672        0x9 bin/blib.a(tftp.o)
 .text.elf_load
                0x000000000000c67b      0x141 bin/blib.a(elf.o)
                0x000000000000c67b                elf_load
 .text.embedded_init
                0x000000000000c7bc       0x19 bin/blib.a(embedded.o)
 .text.terminate_on_label_found
                0x000000000000c7d5        0x9 bin/blib.a(script.o)
 .text.prompt_exec
                0x000000000000c7de       0x54 bin/blib.a(script.o)
 .text.process_script
                0x000000000000c832      0x15d bin/blib.a(script.o)
 .text.script_exec
                0x000000000000c98f       0x3c bin/blib.a(script.o)
 .text.terminate_on_exit_or_failure
                0x000000000000c9cb       0x21 bin/blib.a(script.o)
 .text.script_exec_line
                0x000000000000c9ec        0xc bin/blib.a(script.o)
 .text.script_probe
                0x000000000000c9f8       0x63 bin/blib.a(script.o)
 .text.goto_exec
                0x000000000000ca5b       0x85 bin/blib.a(script.o)
 .text.goto_find_label
                0x000000000000cae0       0x2c bin/blib.a(script.o)
 .text.prep_segment
                0x000000000000cb0c       0x81 bin/blib.a(segment.o)
                0x000000000000cb0c                prep_segment
 .text.pci_bar  0x000000000000cb8d       0x4a bin/blib.a(pci.o)
 .text.adjust_pci_device
                0x000000000000cbd7       0x54 bin/blib.a(pci.o)
                0x000000000000cbd7                adjust_pci_device
 .text.pci_read_config
                0x000000000000cc2b      0x140 bin/blib.a(pci.o)
                0x000000000000cc2b                pci_read_config
 .text.pci_find_next
                0x000000000000cd6b       0x55 bin/blib.a(pci.o)
                0x000000000000cd6b                pci_find_next
 .text.pci_find_driver
                0x000000000000cdc0       0x5d bin/blib.a(pci.o)
                0x000000000000cdc0                pci_find_driver
 .text.pci_probe
                0x000000000000ce1d        0x7 bin/blib.a(pci.o)
                0x000000000000ce1d                pci_probe
 .text.pci_remove
                0x000000000000ce24        0x7 bin/blib.a(pci.o)
                0x000000000000ce24                pci_remove
 .text.pcibus_remove
                0x000000000000ce2b       0x3f bin/blib.a(pci.o)
 .text.pcibus_probe
                0x000000000000ce6a       0x86 bin/blib.a(pci.o)
 .text.pci_settings_applies
                0x000000000000cef0        0xd bin/blib.a(pci_settings.o)
 .text.pci_settings_init
                0x000000000000cefd       0x11 bin/blib.a(pci_settings.o)
 .text.pci_settings_fetch
                0x000000000000cf0e       0x7e bin/blib.a(pci_settings.o)
 .text.mii_restart
                0x000000000000cf8c       0x1f bin/blib.a(mii.o)
                0x000000000000cf8c                mii_restart
 .text.mii_reset
                0x000000000000cfab       0x4a bin/blib.a(mii.o)
                0x000000000000cfab                mii_reset
 .text.ibft_set_ipaddr_setting
                0x000000000000cff5       0x66 bin/blib.a(ibft.o)
 .text.ibft_set_string
                0x000000000000d05b       0x49 bin/blib.a(ibft.o)
 .text.ibft_describe
                0x000000000000d0a4      0x2cb bin/blib.a(ibft.o)
                0x000000000000d0a4                ibft_describe
 .text.scsicmd_read_capacity_cmd
                0x000000000000d36f       0x32 bin/blib.a(scsi.o)
 .text.scsicmd_test_unit_ready_cmd
                0x000000000000d3a1        0x5 bin/blib.a(scsi.o)
 .text.scsicmd_close
                0x000000000000d3a6       0x1a bin/blib.a(scsi.o)
 .text.scsidev_close
                0x000000000000d3c0       0x69 bin/blib.a(scsi.o)
 .text.scsicmd_write_cmd
                0x000000000000d429       0x54 bin/blib.a(scsi.o)
 .text.scsicmd_read_cmd
                0x000000000000d47d       0x54 bin/blib.a(scsi.o)
 .text.scsicmd_free
                0x000000000000d4d1       0x1e bin/blib.a(scsi.o)
 .text.scsi_response
                0x000000000000d4ef       0x2f bin/blib.a(scsi.o)
                0x000000000000d4ef                scsi_response
 .text.scsi_command
                0x000000000000d51e       0x40 bin/blib.a(scsi.o)
                0x000000000000d51e                scsi_command
 .text.scsicmd_command
                0x000000000000d55e       0x4b bin/blib.a(scsi.o)
 .text.scsicmd_read_capacity_done
                0x000000000000d5a9       0x91 bin/blib.a(scsi.o)
 .text.scsidev_command
                0x000000000000d63a       0xbb bin/blib.a(scsi.o)
 .text.scsidev_read_capacity
                0x000000000000d6f5       0x15 bin/blib.a(scsi.o)
 .text.scsidev_write
                0x000000000000d70a        0xc bin/blib.a(scsi.o)
 .text.scsidev_read
                0x000000000000d716        0xc bin/blib.a(scsi.o)
 .text.scsicmd_done
                0x000000000000d722       0x3a bin/blib.a(scsi.o)
 .text.scsidev_window
                0x000000000000d75c       0x11 bin/blib.a(scsi.o)
 .text.scsidev_ready
                0x000000000000d76d       0x2b bin/blib.a(scsi.o)
 .text.scsidev_step
                0x000000000000d798       0x42 bin/blib.a(scsi.o)
 .text.scsicmd_response
                0x000000000000d7da       0x20 bin/blib.a(scsi.o)
 .text.scsi_parse_lun
                0x000000000000d7fa       0x5f bin/blib.a(scsi.o)
                0x000000000000d7fa                scsi_parse_lun
 .text.scsi_open
                0x000000000000d859       0xa3 bin/blib.a(scsi.o)
                0x000000000000d859                scsi_open
 .text.write_bit
                0x000000000000d8fc        0xf bin/blib.a(bitbash.o)
                0x000000000000d8fc                write_bit
 .text.read_bit
                0x000000000000d90b        0xd bin/blib.a(bitbash.o)
                0x000000000000d90b                read_bit
 .text.smbios_applies
                0x000000000000d918        0xd bin/blib.a(smbios_settings.o)
 .text.smbios_init
                0x000000000000d925       0x11 bin/blib.a(smbios_settings.o)
 .text.smbios_fetch
                0x000000000000d936      0x102 bin/blib.a(smbios_settings.o)
 .text.chap_init
                0x000000000000da38       0x37 bin/blib.a(chap.o)
                0x000000000000da38                chap_init
 .text.chap_update
                0x000000000000da6f        0xf bin/blib.a(chap.o)
                0x000000000000da6f                chap_update
 .text.chap_respond
                0x000000000000da7e       0x10 bin/blib.a(chap.o)
                0x000000000000da7e                chap_respond
 .text.chap_finish
                0x000000000000da8e       0x16 bin/blib.a(chap.o)
                0x000000000000da8e                chap_finish
 .text.md5_f_0_15
                0x000000000000daa4       0x10 bin/blib.a(md5.o)
 .text.md5_f_16_31
                0x000000000000dab4       0x10 bin/blib.a(md5.o)
 .text.md5_f_32_47
                0x000000000000dac4        0xc bin/blib.a(md5.o)
 .text.md5_f_48_63
                0x000000000000dad0        0xe bin/blib.a(md5.o)
 .text.md5_init
                0x000000000000dade       0x23 bin/blib.a(md5.o)
 .text.md5_update
                0x000000000000db01       0xc6 bin/blib.a(md5.o)
 .text.md5_final
                0x000000000000dbc7       0x5a bin/blib.a(md5.o)
 .text.strerror
                0x000000000000dc21       0x6c bin/blib.a(strerror.o)
                0x000000000000dc21                strerror
 .text.autoboot_exec
                0x000000000000dc8d       0x12 bin/blib.a(autoboot_cmd.o)
 .text.config_exec
                0x000000000000dc9f       0x69 bin/blib.a(config_cmd.o)
 .text.dhcp_exec
                0x000000000000dd08       0x12 bin/blib.a(dhcp_cmd.o)
 .text.dhcp_payload
                0x000000000000dd1a       0x32 bin/blib.a(dhcp_cmd.o)
 .text.pxebs_exec
                0x000000000000dd4c       0x80 bin/blib.a(dhcp_cmd.o)
 .text.ifstat_payload
                0x000000000000ddcc        0x8 bin/blib.a(ifmgmt_cmd.o)
 .text.ifclose_payload
                0x000000000000ddd4        0x8 bin/blib.a(ifmgmt_cmd.o)
 .text.ifopen_payload
                0x000000000000dddc        0x5 bin/blib.a(ifmgmt_cmd.o)
 .text.ifcommon_exec
                0x000000000000dde1       0x90 bin/blib.a(ifmgmt_cmd.o)
                0x000000000000dde1                ifcommon_exec
 .text.ifstat_exec
                0x000000000000de71       0x12 bin/blib.a(ifmgmt_cmd.o)
 .text.ifclose_exec
                0x000000000000de83       0x12 bin/blib.a(ifmgmt_cmd.o)
 .text.ifopen_exec
                0x000000000000de95       0x12 bin/blib.a(ifmgmt_cmd.o)
 .text.image_clear_cmdline
                0x000000000000dea7        0x7 bin/blib.a(image_cmd.o)
 .text.imgsingle_exec
                0x000000000000deae      0x13f bin/blib.a(image_cmd.o)
 .text.imgargs_exec
                0x000000000000dfed        0xa bin/blib.a(image_cmd.o)
 .text.imgexec_exec
                0x000000000000dff7        0xa bin/blib.a(image_cmd.o)
 .text.imgselect_exec
                0x000000000000e001        0xa bin/blib.a(image_cmd.o)
 .text.imgfetch_exec
                0x000000000000e00b        0xa bin/blib.a(image_cmd.o)
 .text.imgselect
                0x000000000000e015        0x5 bin/blib.a(image_cmd.o)
 .text.imgmulti_exec
                0x000000000000e01a       0x94 bin/blib.a(image_cmd.o)
 .text.imgfree_exec
                0x000000000000e0ae        0xa bin/blib.a(image_cmd.o)
 .text.imgstat_exec
                0x000000000000e0b8        0xa bin/blib.a(image_cmd.o)
 .text.imgexec  0x000000000000e0c2       0x28 bin/blib.a(image_cmd.o)
 .text.login_exec
                0x000000000000e0ea       0x39 bin/blib.a(login_cmd.o)
 .text.choose_exec
                0x000000000000e123       0xbd bin/blib.a(menu_cmd.o)
 .text.item_exec
                0x000000000000e1e0       0xb4 bin/blib.a(menu_cmd.o)
 .text.menu_exec
                0x000000000000e294       0x67 bin/blib.a(menu_cmd.o)
 .text.clear_value
                0x000000000000e2fb        0x9 bin/blib.a(nvo_cmd.o)
 .text.inc_exec
                0x000000000000e304       0xc7 bin/blib.a(nvo_cmd.o)
 .text.read_value
                0x000000000000e3cb       0x2d bin/blib.a(nvo_cmd.o)
 .text.set_core_exec
                0x000000000000e3f8       0x96 bin/blib.a(nvo_cmd.o)
 .text.read_exec
                0x000000000000e48e       0x10 bin/blib.a(nvo_cmd.o)
 .text.clear_exec
                0x000000000000e49e       0x10 bin/blib.a(nvo_cmd.o)
 .text.set_exec
                0x000000000000e4ae       0x10 bin/blib.a(nvo_cmd.o)
 .text.set_value
                0x000000000000e4be       0x1b bin/blib.a(nvo_cmd.o)
 .text.show_exec
                0x000000000000e4d9       0xaa bin/blib.a(nvo_cmd.o)
 .text.reboot_exec
                0x000000000000e583       0x23 bin/blib.a(reboot_cmd.o)
 .text.route_exec
                0x000000000000e5a6       0x25 bin/blib.a(route_cmd.o)
 .text.sanboot_core_exec
                0x000000000000e5cb       0x9a bin/blib.a(sanboot_cmd.o)
 .text.sanunhook_exec
                0x000000000000e665        0xf bin/blib.a(sanboot_cmd.o)
 .text.sanboot_exec
                0x000000000000e674        0xf bin/blib.a(sanboot_cmd.o)
 .text.sanhook_exec
                0x000000000000e683        0xf bin/blib.a(sanboot_cmd.o)
 .text.sync_exec
                0x000000000000e692       0x45 bin/blib.a(sync_cmd.o)
 .text.login_ui
                0x000000000000e6d7      0x22c bin/blib.a(login_ui.o)
                0x000000000000e6d7                login_ui
 .text.draw_menu_item
                0x000000000000e903      0x163 bin/blib.a(menu_ui.o)
 .text.draw_menu_items
                0x000000000000ea66       0xd1 bin/blib.a(menu_ui.o)
 .text.show_menu
                0x000000000000eb37      0x3a6 bin/blib.a(menu_ui.o)
                0x000000000000eb37                show_menu
 .text.clearmsg
                0x000000000000eedd       0x18 bin/blib.a(settings_ui.o)
 .text.vmsg     0x000000000000eef5       0x61 bin/blib.a(settings_ui.o)
 .text.msg      0x000000000000ef56       0x12 bin/blib.a(settings_ui.o)
 .text.string_copy
                0x000000000000ef68       0x2d bin/blib.a(settings_ui.o)
 .text.draw_setting_row
                0x000000000000ef95       0xe7 bin/blib.a(settings_ui.o)
 .text.select_setting_row
                0x000000000000f07c      0x126 bin/blib.a(settings_ui.o)
 .text.reveal_setting_row.part.1
                0x000000000000f1a2       0xc0 bin/blib.a(settings_ui.o)
 .text.init_widget
                0x000000000000f262       0x8f bin/blib.a(settings_ui.o)
 .text.colour_set.constprop.2
                0x000000000000f2f1        0xe bin/blib.a(settings_ui.o)
 .text.alert    0x000000000000f2ff       0x45 bin/blib.a(settings_ui.o)
 .text.main_loop
                0x000000000000f344      0x31c bin/blib.a(settings_ui.o)
 .text.settings_ui
                0x000000000000f660       0x8f bin/blib.a(settings_ui.o)
                0x000000000000f660                settings_ui
 .text.ansiscr_peek
                0x000000000000f6ef        0x5 bin/blib.a(ansi_screen.o)
 .text.ansiscr_getc
                0x000000000000f6f4        0x5 bin/blib.a(ansi_screen.o)
 .text.ansiscr_movetoyx
                0x000000000000f6f9       0x30 bin/blib.a(ansi_screen.o)
 .text.ansiscr_exit
                0x000000000000f729       0x2a bin/blib.a(ansi_screen.o)
 .text.ansiscr_init
                0x000000000000f753       0x36 bin/blib.a(ansi_screen.o)
 .text.ansiscr_putc
                0x000000000000f789       0x77 bin/blib.a(ansi_screen.o)
 .text.wclrtobot
                0x000000000000f800       0x34 bin/blib.a(clear.o)
                0x000000000000f800                wclrtobot
 .text.wclrtoeol
                0x000000000000f834       0x31 bin/blib.a(clear.o)
                0x000000000000f834                wclrtoeol
 .text.werase   0x000000000000f865       0x17 bin/blib.a(clear.o)
                0x000000000000f865                werase
 .text.init_pair
                0x000000000000f87c       0x28 bin/blib.a(colour.o)
                0x000000000000f87c                init_pair
 .text.pair_content
                0x000000000000f8a4       0x28 bin/blib.a(colour.o)
                0x000000000000f8a4                pair_content
 .text._wupdcurs
                0x000000000000f8cc       0x16 bin/blib.a(mucurses.o)
 .text._wputch  0x000000000000f8e2       0x4e bin/blib.a(mucurses.o)
                0x000000000000f8e2                _wputch
 .text._wputc   0x000000000000f930        0xb bin/blib.a(mucurses.o)
                0x000000000000f930                _wputc
 .text._wputstr
                0x000000000000f93b       0x2f bin/blib.a(mucurses.o)
                0x000000000000f93b                _wputstr
 .text.wmove    0x000000000000f96a       0x1f bin/blib.a(mucurses.o)
                0x000000000000f96a                wmove
 .text._printw_handler
                0x000000000000f989        0xd bin/blib.a(print.o)
 .text.waddnstr
                0x000000000000f996        0xb bin/blib.a(print.o)
                0x000000000000f996                waddnstr
 .text.vw_printw
                0x000000000000f9a1       0x1b bin/blib.a(print.o)
                0x000000000000f9a1                vw_printw
 .text.wprintw  0x000000000000f9bc       0x12 bin/blib.a(print.o)
                0x000000000000f9bc                wprintw
 .text.wattroff
                0x000000000000f9ce        0x8 bin/blib.a(winattrs.o)
                0x000000000000f9ce                wattroff
 .text.wattron  0x000000000000f9d6        0x6 bin/blib.a(winattrs.o)
                0x000000000000f9d6                wattron
 .text.wattrset
                0x000000000000f9dc       0x11 bin/blib.a(winattrs.o)
                0x000000000000f9dc                wattrset
 .text.wcolour_set
                0x000000000000f9ed       0x1f bin/blib.a(winattrs.o)
                0x000000000000f9ed                wcolour_set
 .text.initscr  0x000000000000fa0c       0x37 bin/blib.a(wininit.o)
                0x000000000000fa0c                initscr
 .text.endwin   0x000000000000fa43       0x51 bin/blib.a(wininit.o)
                0x000000000000fa43                endwin
 .text.init_editbox
                0x000000000000fa94       0x55 bin/blib.a(editbox.o)
                0x000000000000fa94                init_editbox
 .text.draw_editbox
                0x000000000000fae9       0xef bin/blib.a(editbox.o)
                0x000000000000fae9                draw_editbox
 .text.shell_banner
                0x000000000000fbd8       0x28 bin/blib.a(autoboot.o)
 .text.parse_next_server_and_filename
                0x000000000000fc00       0x6f bin/blib.a(autoboot.o)
 .text.uriboot  0x000000000000fc6f      0x153 bin/blib.a(autoboot.o)
                0x000000000000fc6f                uriboot
 .text.fetch_next_server_and_filename
                0x000000000000fdc2       0xb1 bin/blib.a(autoboot.o)
                0x000000000000fdc2                fetch_next_server_and_filename
 .text.netboot.part.2
                0x000000000000fe73      0x201 bin/blib.a(autoboot.o)
 .text.netboot  0x0000000000010074       0x38 bin/blib.a(autoboot.o)
                0x0000000000010074                netboot
 .text.autoboot
                0x00000000000100ac       0x3d bin/blib.a(autoboot.o)
                0x00000000000100ac                autoboot
 .text.ipxe     0x00000000000100e9       0x93 bin/blib.a(autoboot.o)
                0x00000000000100e9                ipxe
 .text.dhcp     0x000000000001017c       0x54 bin/blib.a(dhcpmgmt.o)
                0x000000000001017c                dhcp
 .text.pxebs    0x00000000000101d0       0x39 bin/blib.a(dhcpmgmt.o)
                0x00000000000101d0                pxebs
 .text.ifstat_errors
                0x0000000000010209       0x36 bin/blib.a(ifmgmt.o)
 .text.ifopen   0x000000000001023f       0x2b bin/blib.a(ifmgmt.o)
                0x000000000001023f                ifopen
 .text.ifclose  0x000000000001026a        0x5 bin/blib.a(ifmgmt.o)
                0x000000000001026a                ifclose
 .text.ifstat   0x000000000001026f       0xc3 bin/blib.a(ifmgmt.o)
                0x000000000001026f                ifstat
 .text.iflinkwait
                0x0000000000010332       0x82 bin/blib.a(ifmgmt.o)
                0x0000000000010332                iflinkwait
 .text.imgdownload
                0x00000000000103b4       0xcf bin/blib.a(imgmgmt.o)
                0x00000000000103b4                imgdownload
 .text.imgdownload_string
                0x0000000000010483       0x2f bin/blib.a(imgmgmt.o)
                0x0000000000010483                imgdownload_string
 .text.imgacquire
                0x00000000000104b2       0x23 bin/blib.a(imgmgmt.o)
                0x00000000000104b2                imgacquire
 .text.imgstat  0x00000000000104d5       0x7f bin/blib.a(imgmgmt.o)
                0x00000000000104d5                imgstat
 .text.prompt   0x0000000000010554       0x5d bin/blib.a(prompt.o)
                0x0000000000010554                prompt
 .text.pxe_menu_parse
                0x00000000000105b1      0x15c bin/blib.a(pxemenu.o)
 .text.pxe_menu_draw_item
                0x000000000001070d       0xba bin/blib.a(pxemenu.o)
 .text.pxe_menu_select
                0x00000000000107c7      0x117 bin/blib.a(pxemenu.o)
 .text.pxe_menu_boot
                0x00000000000108de      0x161 bin/blib.a(pxemenu.o)
                0x00000000000108de                pxe_menu_boot
 .text.route    0x0000000000010a3f       0x31 bin/blib.a(route.o)
                0x0000000000010a3f                route
 .text.relocate
                0x0000000000010a70       0xd0 bin/blib.a(relocate.o)
                0x0000000000010a70                relocate
 .text.extmemsize
                0x0000000000010b40       0x70 bin/blib.a(memmap.o)
                0x0000000000010b40                extmemsize
 .text.x86_get_memmap
                0x0000000000010bb0      0x1d6 bin/blib.a(memmap.o)
                0x0000000000010bb0                get_memmap
                0x0000000000010bb0                x86_get_memmap
 .text.hook_bios_interrupt
                0x0000000000010d86       0x48 bin/blib.a(biosint.o)
                0x0000000000010d86                hook_bios_interrupt
 .text.unhook_bios_interrupt
                0x0000000000010dce       0x51 bin/blib.a(biosint.o)
                0x0000000000010dce                unhook_bios_interrupt
 .text.bios_cpu_nap
                0x0000000000010e1f        0xe bin/blib.a(bios_nap.o)
                0x0000000000010e1f                cpu_nap
 .text.bios_reboot
                0x0000000000010e2d       0x27 bin/blib.a(bios_reboot.o)
                0x0000000000010e2d                reboot
 .text.bios_currticks
                0x0000000000010e54       0x47 bin/blib.a(bios_timer.o)
                0x0000000000010e54                currticks
 .text.int13_command_capacity
                0x0000000000010e9b       0x11 bin/blib.a(int13.o)
 .text.int13_sync_num_drives
                0x0000000000010eac       0xf1 bin/blib.a(int13.o)
 .text.int13_block_window
                0x0000000000010f9d        0x3 bin/blib.a(int13.o)
 .text.int13_find
                0x0000000000010fa0       0x20 bin/blib.a(int13.o)
 .text.int13_block_close
                0x0000000000010fc0       0x14 bin/blib.a(int13.o)
 .text.int13_reopen_block
                0x0000000000010fd4       0x23 bin/blib.a(int13.o)
 .text.int13_free
                0x0000000000010ff7       0x13 bin/blib.a(int13.o)
 .text.int13_command_close
                0x000000000001100a       0x1b bin/blib.a(int13.o)
 .text.int13_command_expired
                0x0000000000011025        0xd bin/blib.a(int13.o)
 .text.int13_command_wait.isra.6.constprop.10
                0x0000000000011032       0x14 bin/blib.a(int13.o)
 .text.int13_command_start.constprop.11
                0x0000000000011046       0x65 bin/blib.a(int13.o)
 .text.int13_rw
                0x00000000000110ab       0xd7 bin/blib.a(int13.o)
 .text.int13_rw_sectors
                0x0000000000011182       0xb6 bin/blib.a(int13.o)
 .text.int13_extended_rw
                0x0000000000011238      0x103 bin/blib.a(int13.o)
 .text.int13_read_capacity
                0x000000000001133b       0x42 bin/blib.a(int13.o)
 .text.int13    0x000000000001137d      0x4d4 bin/blib.a(int13.o)
 .text.int13_hook
                0x0000000000011851      0x2f9 bin/blib.a(int13.o)
                0x0000000000011851                san_hook
 .text.int13_unhook
                0x0000000000011b4a       0x58 bin/blib.a(int13.o)
                0x0000000000011b4a                san_unhook
 .text.int13_boot
                0x0000000000011ba2      0x15c bin/blib.a(int13.o)
                0x0000000000011ba2                san_boot
 .text.int13_describe
                0x0000000000011cfe       0x9e bin/blib.a(int13.o)
                0x0000000000011cfe                san_describe
 .text.memtop_urealloc
                0x0000000000011d9c      0x12b bin/blib.a(memtop_umalloc.o)
                0x0000000000011d9c                urealloc
 .text.pcibios_num_bus
                0x0000000000011ec7       0x1d bin/blib.a(pcibios.o)
                0x0000000000011ec7                pci_num_bus
 .text.pcibios_read
                0x0000000000011ee4       0x2d bin/blib.a(pcibios.o)
                0x0000000000011ee4                pcibios_read
 .text.pcibios_write
                0x0000000000011f11       0x24 bin/blib.a(pcibios.o)
                0x0000000000011f11                pcibios_write
 .text.cpuid_is_supported
                0x0000000000011f35       0x18 bin/blib.a(cpuid.o)
                0x0000000000011f35                cpuid_is_supported
 .text.x86_features
                0x0000000000011f4d       0x5b bin/blib.a(cpuid.o)
                0x0000000000011f4d                x86_features
 .text.x86_tcpip_continue_chksum
                0x0000000000011fa8       0xca bin/blib.a(x86_tcpip.o)
                0x0000000000011fa8                x86_tcpip_continue_chksum
 .text.acpi_describe
                0x0000000000012072       0x40 bin/blib.a(acpi.o)
                0x0000000000012072                acpi_describe
 .text.acpi_fix_checksum
                0x00000000000120b2       0x17 bin/blib.a(acpi.o)
                0x00000000000120b2                acpi_fix_checksum
 .text.vasprintf
                0x00000000000120c9       0x3c bin/blib.a(asprintf.o)
                0x00000000000120c9                vasprintf
 .text.asprintf
                0x0000000000012105       0x12 bin/blib.a(asprintf.o)
                0x0000000000012105                asprintf
 .text.base16_encode
                0x0000000000012117       0x40 bin/blib.a(base16.o)
                0x0000000000012117                base16_encode
 .text.hex_decode
                0x0000000000012157       0x70 bin/blib.a(base16.o)
                0x0000000000012157                hex_decode
 .text.base16_decode
                0x00000000000121c7        0xc bin/blib.a(base16.o)
                0x00000000000121c7                base16_decode
 .text.base64_encode
                0x00000000000121d3       0x7e bin/blib.a(base64.o)
                0x00000000000121d3                base64_encode
 .text.base64_decode
                0x0000000000012251       0xc6 bin/blib.a(base64.o)
                0x0000000000012251                base64_decode
 .text.basename
                0x0000000000012317       0x18 bin/blib.a(basename.o)
                0x0000000000012317                basename
 .text.dirname  0x000000000001232f       0x2a bin/blib.a(basename.o)
                0x000000000001232f                dirname
 .text.bitmap_resize
                0x0000000000012359       0x5a bin/blib.a(bitmap.o)
                0x0000000000012359                bitmap_resize
 .text.bitmap_test
                0x00000000000123b3       0x24 bin/blib.a(bitmap.o)
                0x00000000000123b3                bitmap_test
 .text.bitmap_set
                0x00000000000123d7       0x32 bin/blib.a(bitmap.o)
                0x00000000000123d7                bitmap_set
 .text.__flsl   0x0000000000012409        0xe bin/blib.a(bitops.o)
                0x0000000000012409                __flsl
 .text.block_capacity
                0x0000000000012417       0x2f bin/blib.a(blockdev.o)
                0x0000000000012417                block_capacity
 .text.block_read_capacity
                0x0000000000012446       0x3a bin/blib.a(blockdev.o)
                0x0000000000012446                block_read_capacity
 .text.block_write
                0x0000000000012480       0x50 bin/blib.a(blockdev.o)
                0x0000000000012480                block_write
 .text.block_read
                0x00000000000124d0       0x50 bin/blib.a(blockdev.o)
                0x00000000000124d0                block_read
 .text.has_input
                0x0000000000012520       0x2b bin/blib.a(console.o)
 .text.putchar  0x000000000001254b       0x43 bin/blib.a(console.o)
                0x000000000001254b                putchar
 .text.getchar  0x000000000001258e       0x2b bin/blib.a(console.o)
                0x000000000001258e                getchar
 .text.iskey    0x00000000000125b9        0xe bin/blib.a(console.o)
                0x00000000000125b9                iskey
 .text.isspace  0x00000000000125c7       0x1f bin/blib.a(ctype.o)
                0x00000000000125c7                isspace
 .text.churi    0x00000000000125e6       0x27 bin/blib.a(cwuri.o)
                0x00000000000125e6                churi
 .text.downloader_progress
                0x000000000001260d        0xf bin/blib.a(downloader.o)
 .text.downloader_finished
                0x000000000001261c       0x1a bin/blib.a(downloader.o)
 .text.downloader_xfer_deliver
                0x0000000000012636       0x7e bin/blib.a(downloader.o)
 .text.downloader_free
                0x00000000000126b4       0x13 bin/blib.a(downloader.o)
 .text.create_downloader
                0x00000000000126c7       0x89 bin/blib.a(downloader.o)
                0x00000000000126c7                create_downloader
 .text.edd_describe
                0x0000000000012750       0x40 bin/blib.a(edd.o)
                0x0000000000012750                edd_describe
 .text.getchar_timeout
                0x0000000000012790       0x3c bin/blib.a(getkey.o)
 .text.getkey   0x00000000000127cc       0x4a bin/blib.a(getkey.o)
                0x00000000000127cc                getkey
 .text.job_progress
                0x0000000000012816       0x3a bin/blib.a(job.o)
                0x0000000000012816                job_progress
 .text.buffered_line
                0x0000000000012850        0xd bin/blib.a(linebuf.o)
                0x0000000000012850                buffered_line
 .text.empty_line_buffer
                0x000000000001285d       0x20 bin/blib.a(linebuf.o)
                0x000000000001285d                empty_line_buffer
 .text.line_buffer
                0x000000000001287d       0xaa bin/blib.a(linebuf.o)
                0x000000000001287d                line_buffer
 .text.add_menu_item
                0x0000000000012927       0x9a bin/blib.a(menu.o)
                0x0000000000012927                add_menu_item
 .text.destroy_menu
                0x00000000000129c1       0x3a bin/blib.a(menu.o)
                0x00000000000129c1                destroy_menu
 .text.find_menu
                0x00000000000129fb       0x2f bin/blib.a(menu.o)
                0x00000000000129fb                find_menu
 .text.create_menu
                0x0000000000012a2a       0x97 bin/blib.a(menu.o)
                0x0000000000012a2a                create_menu
 .text.monojob_close
                0x0000000000012ac1        0xb bin/blib.a(monojob.o)
 .text.monojob_wait
                0x0000000000012acc      0x123 bin/blib.a(monojob.o)
                0x0000000000012acc                monojob_wait
 .text.find_parameters
                0x0000000000012bef       0x2f bin/blib.a(params.o)
                0x0000000000012bef                find_parameters
 .text.destroy_parameters
                0x0000000000012c1e       0x3a bin/blib.a(params.o)
                0x0000000000012c1e                destroy_parameters
 .text.claim_parameters
                0x0000000000012c58       0x10 bin/blib.a(params.o)
                0x0000000000012c58                claim_parameters
 .text.pending_get
                0x0000000000012c68        0x9 bin/blib.a(pending.o)
                0x0000000000012c68                pending_get
 .text.pending_put
                0x0000000000012c71       0x10 bin/blib.a(pending.o)
                0x0000000000012c71                pending_put
 .text.pending_wait
                0x0000000000012c81       0x34 bin/blib.a(pending.o)
                0x0000000000012c81                pending_wait
 .text.srandom  0x0000000000012cb5        0x6 bin/blib.a(random.o)
                0x0000000000012cb5                srandom
 .text.random   0x0000000000012cbb       0x54 bin/blib.a(random.o)
                0x0000000000012cbb                random
 .text.named_window
                0x0000000000012d0f        0x3 bin/blib.a(resolv.o)
 .text.named_close
                0x0000000000012d12       0x1a bin/blib.a(resolv.o)
 .text.numeric_resolv
                0x0000000000012d2c       0x83 bin/blib.a(resolv.o)
 .text.named_resolv_done
                0x0000000000012daf       0x45 bin/blib.a(resolv.o)
 .text.resmux_child_close
                0x0000000000012df4       0x4a bin/blib.a(resolv.o)
 .text.resolv_done
                0x0000000000012e3e       0x2f bin/blib.a(resolv.o)
                0x0000000000012e3e                resolv_done
 .text.numeric_step
                0x0000000000012e6d       0x20 bin/blib.a(resolv.o)
 .text.resmux_child_resolv_done
                0x0000000000012e8d        0x8 bin/blib.a(resolv.o)
 .text.resolv   0x0000000000012e95       0xab bin/blib.a(resolv.o)
                0x0000000000012e95                resolv
 .text.xfer_open_named_socket
                0x0000000000012f40       0x96 bin/blib.a(resolv.o)
                0x0000000000012f40                xfer_open_named_socket
 .text.aoecmd_ata_cmd_len
                0x0000000000012fd6        0x7 bin/blib.a(aoe.o)
 .text.aoecmd_cfg_cmd_len
                0x0000000000012fdd        0x6 bin/blib.a(aoe.o)
 .text.aoecmd_cfg_cmd
                0x0000000000012fe3       0x13 bin/blib.a(aoe.o)
 .text.aoecmd_find_tag
                0x0000000000012ff6       0x20 bin/blib.a(aoe.o)
 .text.aoedev_window
                0x0000000000013016        0x9 bin/blib.a(aoe.o)
 .text.aoedev_identify_device
                0x000000000001301f        0x7 bin/blib.a(aoe.o)
 .text.aoecmd_close
                0x0000000000013026       0x44 bin/blib.a(aoe.o)
 .text.aoecmd_create
                0x000000000001306a       0x92 bin/blib.a(aoe.o)
 .text.aoedev_close
                0x00000000000130fc       0x5a bin/blib.a(aoe.o)
 .text.aoecmd_free
                0x0000000000013156       0x13 bin/blib.a(aoe.o)
 .text.aoedev_free
                0x0000000000013169       0x13 bin/blib.a(aoe.o)
 .text.aoecmd_tx
                0x000000000001317c       0xaa bin/blib.a(aoe.o)
 .text.aoecmd_expired
                0x0000000000013226       0x16 bin/blib.a(aoe.o)
 .text.aoecmd_ata_cmd
                0x000000000001323c       0x74 bin/blib.a(aoe.o)
 .text.aoecmd_ata_rsp
                0x00000000000132b0       0x3e bin/blib.a(aoe.o)
 .text.aoecmd_cfg_rsp
                0x00000000000132ee       0x2b bin/blib.a(aoe.o)
 .text.aoedev_ata_command
                0x0000000000013319       0x55 bin/blib.a(aoe.o)
 .text.aoe_rx   0x000000000001336e       0xdc bin/blib.a(aoe.o)
 .text.aoedev_describe
                0x000000000001344a       0x3c bin/blib.a(aoe.o)
 .text.aoedev_config_done
                0x0000000000013486       0x2e bin/blib.a(aoe.o)
 .text.aoe_open
                0x00000000000134b4      0x145 bin/blib.a(aoe.o)
 .text.used_len_ipv4
                0x00000000000135f9        0xb bin/blib.a(dhcppkt.o)
 .text.dhcppkt_settings_applies
                0x0000000000013604       0x19 bin/blib.a(dhcppkt.o)
 .text.used_len_string
                0x000000000001361d        0x5 bin/blib.a(dhcppkt.o)
 .text.dhcppkt_store
                0x0000000000013622       0x8e bin/blib.a(dhcppkt.o)
                0x0000000000013622                dhcppkt_store
 .text.dhcppkt_settings_store
                0x00000000000136b0        0xb bin/blib.a(dhcppkt.o)
 .text.dhcppkt_fetch
                0x00000000000136bb       0x83 bin/blib.a(dhcppkt.o)
                0x00000000000136bb                dhcppkt_fetch
 .text.dhcppkt_settings_fetch
                0x000000000001373e        0xb bin/blib.a(dhcppkt.o)
 .text.dhcppkt_init
                0x0000000000013749       0x44 bin/blib.a(dhcppkt.o)
                0x0000000000013749                dhcppkt_init
 .text.fragment_expired
                0x000000000001378d       0x1f bin/blib.a(fragment.o)
 .text.fragment_reassemble
                0x00000000000137ac      0x160 bin/blib.a(fragment.o)
                0x00000000000137ac                fragment_reassemble
 .text.icmpv4_rx
                0x000000000001390c       0x61 bin/blib.a(icmpv4.o)
 .text.sock_aton
                0x000000000001396d       0x36 bin/blib.a(socket.o)
                0x000000000001396d                sock_aton
 .text.tcp_demux
                0x00000000000139a3       0x20 bin/blib.a(tcp.o)
 .text.tcp_rx_seq
                0x00000000000139c3       0x23 bin/blib.a(tcp.o)
 .text.tcp_discard
                0x00000000000139e6       0x4c bin/blib.a(tcp.o)
 .text.tcp_process_tx_queue
                0x0000000000013a32       0x9e bin/blib.a(tcp.o)
 .text.tcp_rx_ack
                0x0000000000013ad0       0xb7 bin/blib.a(tcp.o)
 .text.tcp_close
                0x0000000000013b87       0xfb bin/blib.a(tcp.o)
 .text.tcp_wait_expired
                0x0000000000013c82       0x1a bin/blib.a(tcp.o)
 .text.tcp_shutdown
                0x0000000000013c9c       0x30 bin/blib.a(tcp.o)
 .text.tcp_open
                0x0000000000013ccc       0xe9 bin/blib.a(tcp.o)
 .text.tcp_xfer_window
                0x0000000000013db5       0x2e bin/blib.a(tcp.o)
 .text.tcp_port_available
                0x0000000000013de3       0x15 bin/blib.a(tcp.o)
 .text.tcp_open_uri
                0x0000000000013df8       0x50 bin/blib.a(tcp.o)
 .text.tcp_xmit.part.9
                0x0000000000013e48      0x1e6 bin/blib.a(tcp.o)
 .text.tcp_xfer_close
                0x000000000001402e       0x1b bin/blib.a(tcp.o)
 .text.tcp_expired
                0x0000000000014049       0x2d bin/blib.a(tcp.o)
 .text.tcp_xfer_deliver
                0x0000000000014076       0x2c bin/blib.a(tcp.o)
 .text.tcp_rx   0x00000000000140a2      0x456 bin/blib.a(tcp.o)
 .text.atacmd_done
                0x00000000000144f8        0x7 bin/blib.a(ata.o)
 .text.atacmd_data_buffer
                0x00000000000144ff        0xf bin/blib.a(ata.o)
 .text.atacmd_data_none
                0x000000000001450e        0x3 bin/blib.a(ata.o)
 .text.atacmd_data_priv
                0x0000000000014511       0x18 bin/blib.a(ata.o)
 .text.atadev_edd_describe
                0x0000000000014529       0x17 bin/blib.a(ata.o)
 .text.atacmd_close
                0x0000000000014540       0x1a bin/blib.a(ata.o)
 .text.atadev_close
                0x000000000001455a       0x5a bin/blib.a(ata.o)
 .text.atacmd_identify_done
                0x00000000000145b4       0x6e bin/blib.a(ata.o)
 .text.atacmd_free
                0x0000000000014622       0x1e bin/blib.a(ata.o)
 .text.ata_command
                0x0000000000014640       0x40 bin/blib.a(ata.o)
                0x0000000000014640                ata_command
 .text.atadev_command
                0x0000000000014680      0x14a bin/blib.a(ata.o)
 .text.atadev_read_capacity
                0x00000000000147ca       0x18 bin/blib.a(ata.o)
 .text.atadev_write
                0x00000000000147e2        0xc bin/blib.a(ata.o)
 .text.atadev_read
                0x00000000000147ee        0xc bin/blib.a(ata.o)
 .text.ata_open
                0x00000000000147fa       0x73 bin/blib.a(ata.o)
                0x00000000000147fa                ata_open
 .text.find_smbios_structure
                0x000000000001486d       0xc8 bin/blib.a(smbios.o)
                0x000000000001486d                find_smbios_structure
 .text.read_smbios_structure
                0x0000000000014935       0x21 bin/blib.a(smbios.o)
                0x0000000000014935                read_smbios_structure
 .text.read_smbios_string
                0x0000000000014956       0x6d bin/blib.a(smbios.o)
                0x0000000000014956                read_smbios_string
 .text.smbios_version
                0x00000000000149c3       0x1f bin/blib.a(smbios.o)
                0x00000000000149c3                smbios_version
 .text.insert_delete
                0x00000000000149e2       0xa5 bin/blib.a(editstring.o)
 .text.replace_string
                0x0000000000014a87       0x11 bin/blib.a(editstring.o)
                0x0000000000014a87                replace_string
 .text.edit_string
                0x0000000000014a98      0x117 bin/blib.a(editstring.o)
                0x0000000000014a98                edit_string
 .text.sync_console
                0x0000000000014baf       0x7c bin/blib.a(readline.o)
 .text.history_free
                0x0000000000014c2b       0x17 bin/blib.a(readline.o)
                0x0000000000014c2b                history_free
 .text.readline_history
                0x0000000000014c42      0x1d5 bin/blib.a(readline.o)
                0x0000000000014c42                readline_history
 .text.help_exec
                0x0000000000014e17       0x66 bin/blib.a(shell.o)
 .text.shell    0x0000000000014e7d       0x5e bin/blib.a(shell.o)
                0x0000000000014e7d                shell
 .text.shell_exec
                0x0000000000014edb       0x1b bin/blib.a(shell.o)
 .text.route_ipv4_print
                0x0000000000014ef6       0x87 bin/blib.a(route_ipv4.o)
 .text.unhide_etherboot
                0x0000000000014f7d       0x39 bin/blib.a(hidemem.o)
 .text.hide_basemem
                0x0000000000014fb6       0x28 bin/blib.a(hidemem.o)
                0x0000000000014fb6                hide_basemem
 .text.hide_umalloc
                0x0000000000014fde       0x3a bin/blib.a(hidemem.o)
                0x0000000000014fde                hide_umalloc
 .text.hide_textdata
                0x0000000000015018       0x47 bin/blib.a(hidemem.o)
                0x0000000000015018                hide_textdata
 .text.hide_etherboot
                0x000000000001505f       0x90 bin/blib.a(hidemem.o)
 .text.call_bootsector
                0x00000000000150ef       0x73 bin/blib.a(bootsector.o)
                0x00000000000150ef                call_bootsector
 .text.bios_find_smbios
                0x0000000000015162       0xbc bin/blib.a(bios_smbios.o)
                0x0000000000015162                find_smbios
 .text.icmp_tx_echo
                0x000000000001521e       0x43 bin/blib.a(icmp.o)
 .text.icmp_rx_echo_request
                0x0000000000015261       0x28 bin/blib.a(icmp.o)
                0x0000000000015261                icmp_rx_echo_request
 .text.ping_rx  0x0000000000015289        0x8 bin/blib.a(icmp.o)
                0x0000000000015289                ping_rx
 .text.icmp_rx_echo_reply
                0x0000000000015291       0x1b bin/blib.a(icmp.o)
                0x0000000000015291                icmp_rx_echo_reply
 *(.rodata)
 .rodata        0x00000000000152ac        0xc bin/blib.a(xfer.o)
 .rodata        0x00000000000152b8       0xbc bin/blib.a(embedded.o)
 *(.rodata.*)
 .rodata.realtek_eeprom_bits
                0x0000000000015374        0x4 bin/blib.a(realtek.o)
 .rodata.str1.1
                0x0000000000015378      0x117 bin/blib.a(realtek.o)
 .rodata.str1.1
                0x0000000000000000      0x117 bin/blib.a(bios_console.o)
                                          0x1 (size before relaxing)
 *fill*         0x000000000001548f        0x1 00
 .rodata.ansi_sequences
                0x0000000000015490       0x58 bin/blib.a(bios_console.o)
 .rodata.bios_attr_fcols.1507
                0x00000000000154e8        0xa bin/blib.a(bios_console.o)
 *fill*         0x00000000000154f2        0x2 00
 .rodata.bios_attr_bcols.1508
                0x00000000000154f4        0xa bin/blib.a(bios_console.o)
 .rodata.str1.1
                0x00000000000154fe       0x2a bin/blib.a(bzimage.o)
                                         0x2f (size before relaxing)
 .rodata.str1.1
                0x0000000000015528        0x4 bin/blib.a(elfboot.o)
 .rodata.e_ident.2356
                0x000000000001552c        0x7 bin/blib.a(elfboot.o)
 .rodata.str1.1
                0x0000000000015533       0x18 bin/blib.a(multiboot.o)
                                         0x1c (size before relaxing)
 .rodata.str1.1
                0x0000000000000000       0x18 bin/blib.a(pxe_image.o)
                                          0x4 (size before relaxing)
 .rodata.str1.1
                0x000000000001554b        0x6 bin/blib.a(pxe_file.o)
 .rodata.str1.1
                0x0000000000015551       0x13 bin/blib.a(pxe_tftp.o)
                                         0x1b (size before relaxing)
 .rodata.str1.1
                0x0000000000015564        0xa bin/blib.a(pxe_undi.o)
 .rodata.str1.1
                0x000000000001556e       0x24 bin/blib.a(cpuid_cmd.o)
                                         0x28 (size before relaxing)
 .rodata.str1.1
                0x0000000000015592        0x6 bin/blib.a(cpio.o)
 .rodata.str1.1
                0x0000000000015598       0x6c bin/blib.a(exec.o)
                                         0x80 (size before relaxing)
 .rodata.str1.1
                0x0000000000015604       0x9a bin/blib.a(getopt.o)
 .rodata.str1.1
                0x000000000001569e        0x6 bin/blib.a(image.o)
 .rodata.str1.1
                0x00000000000156a4       0x1d bin/blib.a(main.o)
                                         0x21 (size before relaxing)
 .rodata.str1.1
                0x00000000000156c1        0x4 bin/blib.a(nvo.o)
 .rodata.str1.1
                0x00000000000156c5      0x10f bin/blib.a(parseopt.o)
 .rodata.str1.1
                0x00000000000157d4      0x141 bin/blib.a(settings.o)
                                        0x17b (size before relaxing)
 *fill*         0x0000000000015915        0x3 00
 .rodata.setting_type_int_name
                0x0000000000015918       0x18 bin/blib.a(settings.o)
 .rodata.buildarch.3681
                0x0000000000015930        0x5 bin/blib.a(settings.o)
 *fill*         0x0000000000015935        0x3 00
 .rodata.platform.3688
                0x0000000000015938        0x7 bin/blib.a(settings.o)
 .rodata.str1.1
                0x000000000001593f       0x14 bin/blib.a(uri.o)
                                         0x27 (size before relaxing)
 *fill*         0x0000000000015953        0x1 00
 .rodata.separators.1371
                0x0000000000015954        0x9 bin/blib.a(uri.o)
 .rodata.str1.1
                0x000000000001595d       0x2d bin/blib.a(uuid.o)
 .rodata.str1.1
                0x000000000001598a        0xe bin/blib.a(version.o)
 .rodata.str1.1
                0x0000000000015998       0x18 bin/blib.a(vsprintf.o)
 .rodata.str1.1
                0x00000000000159b0        0x6 bin/blib.a(arp.o)
                                          0xa (size before relaxing)
 .rodata.empty_encap.2347
                0x00000000000159b6        0x1 bin/blib.a(dhcpopts.o)
 .rodata.str1.1
                0x00000000000159b7       0x27 bin/blib.a(ethernet.o)
 .rodata.str1.1
                0x00000000000159de        0x5 bin/blib.a(eth_slow.o)
 *fill*         0x00000000000159e3        0x1 00
 .rodata.eth_slow_address
                0x00000000000159e4        0x6 bin/blib.a(eth_slow.o)
 .rodata.str1.1
                0x00000000000159ea       0x10 bin/blib.a(fakedhcp.o)
                                         0x11 (size before relaxing)
 .rodata.str1.1
                0x00000000000159fa       0x43 bin/blib.a(ipv4.o)
                                         0x4e (size before relaxing)
 .rodata.str1.1
                0x0000000000015a3d        0xa bin/blib.a(neighbour.o)
 .rodata.str1.1
                0x0000000000015a47       0x18 bin/blib.a(netdevice.o)
 .rodata.str1.1
                0x0000000000015a5f       0x64 bin/blib.a(netdev_settings.o)
                                         0x6d (size before relaxing)
 *fill*         0x0000000000015ac3        0x1 00
 .rodata.bustypes.2268
                0x0000000000015ac4       0x1c bin/blib.a(netdev_settings.o)
 .rodata.str1.1
                0x0000000000015ae0        0xc bin/blib.a(rarp.o)
 .rodata.str1.1
                0x0000000000015aec        0x8 bin/blib.a(udp.o)
 .rodata.empty_sockaddr.2236
                0x0000000000015af4       0x20 bin/blib.a(udp.o)
 .rodata.str1.1
                0x0000000000015b14        0xa bin/blib.a(http.o)
 .rodata.str1.1
                0x0000000000015b1e      0x1c6 bin/blib.a(httpcore.o)
                                        0x1cf (size before relaxing)
 .rodata.http_socket_deliver
                0x0000000000015ce4       0x1c bin/blib.a(httpcore.o)
 .rodata.colon.2656
                0x0000000000015d00        0x1 bin/blib.a(httpcore.o)
 .rodata.str1.1
                0x0000000000015d01      0x271 bin/blib.a(iscsi.o)
                                        0x278 (size before relaxing)
 .rodata.str1.1
                0x0000000000015f72       0x5f bin/blib.a(dhcp.o)
                                         0x74 (size before relaxing)
 *fill*         0x0000000000015fd1        0x3 00
 .rodata.dhcp_op
                0x0000000000015fd4        0x9 bin/blib.a(dhcp.o)
 .rodata.str1.1
                0x0000000000015fdd       0x19 bin/blib.a(dns.o)
 .rodata.str1.1
                0x0000000000015ff6       0x76 bin/blib.a(tftp.o)
                                         0x7b (size before relaxing)
 .rodata.e_ident.1648
                0x000000000001606c        0x5 bin/blib.a(elf.o)
 .rodata.str1.1
                0x0000000000016071        0xf bin/blib.a(embedded.o)
 .rodata.str1.1
                0x0000000000016080       0x69 bin/blib.a(script.o)
 *fill*         0x00000000000160e9        0x3 00
 .rodata.ipxe_magic.2065
                0x00000000000160ec        0x7 bin/blib.a(script.o)
 *fill*         0x00000000000160f3        0x1 00
 .rodata.gpxe_magic.2066
                0x00000000000160f4        0x7 bin/blib.a(script.o)
 .rodata.str1.1
                0x00000000000160fb       0x1f bin/blib.a(segment.o)
 .rodata.str1.1
                0x000000000001611a       0x10 bin/blib.a(pci.o)
 .rodata.str1.1
                0x000000000001612a        0x4 bin/blib.a(pci_settings.o)
 .rodata.str1.1
                0x000000000001612e       0x29 bin/blib.a(scsi.o)
 .rodata.str1.1
                0x0000000000016157       0x60 bin/blib.a(smbios_settings.o)
                                         0x65 (size before relaxing)
 .rodata.str1.1
                0x00000000000161b7        0x4 bin/blib.a(md5.o)
 *fill*         0x00000000000161bb        0x1 00
 .rodata.r      0x00000000000161bc       0x40 bin/blib.a(md5.o)
 .rodata.k      0x00000000000161fc      0x100 bin/blib.a(md5.o)
 .rodata.str1.1
                0x00000000000162fc      0x1a2 bin/blib.a(strerror.o)
 .rodata.str1.1
                0x000000000001649e       0x1a bin/blib.a(autoboot_cmd.o)
 .rodata.str1.1
                0x00000000000164b8       0x2e bin/blib.a(config_cmd.o)
                                         0x2f (size before relaxing)
 .rodata.str1.1
                0x00000000000164e6       0x60 bin/blib.a(dhcp_cmd.o)
                                         0x7c (size before relaxing)
 .rodata.str1.1
                0x0000000000016546       0x16 bin/blib.a(ifmgmt_cmd.o)
                                         0x27 (size before relaxing)
 .rodata.str1.1
                0x000000000001655c      0x18b bin/blib.a(image_cmd.o)
                                        0x19c (size before relaxing)
 .rodata.str1.1
                0x00000000000166e7       0x25 bin/blib.a(login_cmd.o)
                                         0x26 (size before relaxing)
 .rodata.str1.1
                0x000000000001670c       0xfd bin/blib.a(menu_cmd.o)
                                        0x10f (size before relaxing)
 .rodata.str1.1
                0x0000000000016809       0x60 bin/blib.a(nvo_cmd.o)
                                         0x88 (size before relaxing)
 .rodata.str1.1
                0x0000000000016869       0x15 bin/blib.a(reboot_cmd.o)
 .rodata.str1.1
                0x000000000001687e        0x6 bin/blib.a(route_cmd.o)
                                          0x7 (size before relaxing)
 .rodata.str1.1
                0x0000000000016884       0xa5 bin/blib.a(sanboot_cmd.o)
                                         0xaa (size before relaxing)
 .rodata.str1.1
                0x0000000000016929       0x3c bin/blib.a(sync_cmd.o)
                                         0x44 (size before relaxing)
 .rodata.str1.1
                0x0000000000016965       0x14 bin/blib.a(login_ui.o)
 .rodata.str1.1
                0x0000000000016979        0x6 bin/blib.a(menu_ui.o)
                                         0x11 (size before relaxing)
 .rodata.str1.1
                0x000000000001697f       0xd3 bin/blib.a(settings_ui.o)
                                         0xe3 (size before relaxing)
 .rodata.str1.1
                0x0000000000016a52       0x1e bin/blib.a(ansi_screen.o)
 .rodata.str1.1
                0x0000000000000000        0x2 bin/blib.a(wininit.o)
 .rodata.str1.1
                0x0000000000000000        0x3 bin/blib.a(editbox.o)
 .rodata.str1.1
                0x0000000000016a70      0x4a6 bin/blib.a(autoboot.o)
                                        0x4bd (size before relaxing)
 .rodata.str1.1
                0x0000000000016f16       0x20 bin/blib.a(dhcpmgmt.o)
                                         0x21 (size before relaxing)
 .rodata.str1.1
                0x0000000000016f36       0xbb bin/blib.a(ifmgmt.o)
                                         0xcd (size before relaxing)
 .rodata.str1.1
                0x0000000000016ff1       0x7e bin/blib.a(imgmgmt.o)
                                         0x80 (size before relaxing)
 .rodata.str1.1
                0x000000000001706f        0x4 bin/blib.a(prompt.o)
                                          0x7 (size before relaxing)
 .rodata.str1.1
                0x0000000000017073        0xe bin/blib.a(pxemenu.o)
                                         0x21 (size before relaxing)
 .rodata.str1.1
                0x0000000000017081        0xc bin/blib.a(int13.o)
 *fill*         0x000000000001708d        0x3 00
 .rodata.primary_check.2931
                0x0000000000017090        0x6 bin/blib.a(int13.o)
 *fill*         0x0000000000017096        0x2 00
 .rodata.boot_check.2933
                0x0000000000017098       0x27 bin/blib.a(int13.o)
 *fill*         0x00000000000170bf        0x1 00
 .rodata.int13_fdd_geometries
                0x00000000000170c0       0x28 bin/blib.a(int13.o)
 .rodata.str1.1
                0x0000000000000000        0xc bin/blib.a(base16.o)
                                          0x5 (size before relaxing)
 .rodata.base64
                0x00000000000170e8       0x40 bin/blib.a(base64.o)
 .rodata.str1.1
                0x0000000000000000        0xc bin/blib.a(basename.o)
                                          0x4 (size before relaxing)
 .rodata.str1.1
                0x0000000000000000        0x1 bin/blib.a(menu.o)
 .rodata.str1.1
                0x0000000000017128       0x13 bin/blib.a(monojob.o)
                                         0x25 (size before relaxing)
 .rodata.str1.1
                0x000000000001713b        0x8 bin/blib.a(resolv.o)
 .rodata.str1.1
                0x0000000000017143        0x8 bin/blib.a(aoe.o)
 .rodata.str1.1
                0x000000000001714b        0x7 bin/blib.a(icmpv4.o)
 .rodata.str1.1
                0x0000000000017152        0x8 bin/blib.a(tcp.o)
 .rodata.str1.1
                0x000000000001715a        0x9 bin/blib.a(ata.o)
                                         0x14 (size before relaxing)
 .rodata.str1.1
                0x0000000000000000        0x3 bin/blib.a(readline.o)
 .rodata.str1.1
                0x0000000000017163       0x56 bin/blib.a(shell.o)
                                         0x60 (size before relaxing)
 *fill*         0x00000000000171b9        0x3 00
 .rodata.shell_prompt
                0x00000000000171bc        0x7 bin/blib.a(shell.o)
 .rodata.str1.1
                0x00000000000171c3       0x1f bin/blib.a(route_ipv4.o)
                                         0x24 (size before relaxing)
 *(.data)
 *fill*         0x00000000000171e2        0x2 00
 .data          0x00000000000171e4       0x14 bin/blib.a(librm.o)
                0x00000000000171e4                rm_sp
                0x00000000000171e6                rm_ss
                0x00000000000171ec                virt_offset
                0x00000000000171f0                text16
                0x00000000000171f4                data16
 *(.data.*)
 .data.realtek_operations
                0x00000000000171f8       0x14 bin/blib.a(realtek.o)
 .data.realtek_mii_operations
                0x000000000001720c        0x8 bin/blib.a(realtek.o)
 .data.realtek_basher_ops
                0x0000000000017214       0x10 bin/blib.a(realtek.o)
 .data.realtek_nics
                0x0000000000017224      0x174 bin/blib.a(realtek.o)
 .data.ansi_input
                0x0000000000017398        0x4 bin/blib.a(bios_console.o)
 .data.bios_ansiesc_ctx
                0x000000000001739c       0x1c bin/blib.a(bios_console.o)
 .data.bios_attr
                0x00000000000173b8        0x4 bin/blib.a(bios_console.o)
 .data.bios_ansiesc_handlers
                0x00000000000173bc       0x20 bin/blib.a(bios_console.o)
 .data.pxe_dhcp_packet_creators
                0x00000000000173dc        0xc bin/blib.a(pxe_preboot.o)
 .data.pxe_tftp
                0x00000000000173e8       0x2c bin/blib.a(pxe_tftp.o)
 .data.pxe_tftp_xfer_desc
                0x0000000000017414       0x10 bin/blib.a(pxe_tftp.o)
 .data.pxe_tftp_xfer_ops
                0x0000000000017424       0x18 bin/blib.a(pxe_tftp.o)
 .data.pxe_udp  0x000000000001743c       0x34 bin/blib.a(pxe_udp.o)
 .data.pxe_udp_xfer_desc
                0x0000000000017470       0x10 bin/blib.a(pxe_udp.o)
 .data.pxe_udp_xfer_operations
                0x0000000000017480        0x8 bin/blib.a(pxe_udp.o)
 .data.cpuid_cmd
                0x0000000000017488        0xc bin/blib.a(cpuid_cmd.o)
 .data.cpuid_opts
                0x0000000000017494       0x24 bin/blib.a(cpuid_cmd.o)
 .data.devices  0x00000000000174b8        0x8 bin/blib.a(device.o)
 .data.echo_cmd
                0x00000000000174c0        0xc bin/blib.a(exec.o)
 .data.exit_cmd
                0x00000000000174cc        0xc bin/blib.a(exec.o)
 .data.isset_cmd
                0x00000000000174d8        0xc bin/blib.a(exec.o)
 .data.iseq_cmd
                0x00000000000174e4        0xc bin/blib.a(exec.o)
 .data.sleep_cmd
                0x00000000000174f0        0xc bin/blib.a(exec.o)
 .data.echo_opts
                0x00000000000174fc        0xc bin/blib.a(exec.o)
 .data.images   0x0000000000017508        0x8 bin/blib.a(image.o)
                0x0000000000017508                images
 .data.null_intf
                0x0000000000017510        0xc bin/blib.a(interface.o)
                0x0000000000017510                null_intf
 .data.null_intf_desc
                0x000000000001751c       0x10 bin/blib.a(interface.o)
                0x000000000001751c                null_intf_desc
 .data.free_blocks
                0x000000000001752c        0x8 bin/blib.a(malloc.o)
 .data.nvo_settings_operations
                0x0000000000017534       0x14 bin/blib.a(nvo.o)
 .data.posix_file_xfer_desc
                0x0000000000017548       0x10 bin/blib.a(posix_io.o)
 .data.posix_files
                0x0000000000017558        0x8 bin/blib.a(posix_io.o)
 .data.posix_file_xfer_operations
                0x0000000000017560       0x10 bin/blib.a(posix_io.o)
 .data.run_queue
                0x0000000000017570        0x8 bin/blib.a(process.o)
 .data.generic_settings_root
                0x0000000000017578       0x2c bin/blib.a(settings.o)
                0x0000000000017578                generic_settings_root
 .data.generic_settings_operations
                0x00000000000175a4       0x14 bin/blib.a(settings.o)
                0x00000000000175a4                generic_settings_operations
 .data.builtin_settings
                0x00000000000175b8       0x24 bin/blib.a(settings.o)
 .data.builtin_settings_operations
                0x00000000000175dc       0x14 bin/blib.a(settings.o)
 .data.product_version
                0x00000000000175f0        0x4 bin/blib.a(version.o)
                0x00000000000175f0                product_version
 .data.type_sizes
                0x00000000000175f4        0x6 bin/blib.a(vsprintf.o)
 *fill*         0x00000000000175fa        0x2 00
 .data.arp_discovery
                0x00000000000175fc        0x8 bin/blib.a(arp.o)
                0x00000000000175fc                arp_discovery
 .data.eth_broadcast
                0x0000000000017604        0x6 bin/blib.a(ethernet.o)
                0x0000000000017604                eth_broadcast
 *fill*         0x000000000001760a        0x2 00
 .data.ipv4_miniroutes
                0x000000000001760c        0x8 bin/blib.a(ipv4.o)
                0x000000000001760c                ipv4_miniroutes
 .data.ipv4_reassembler
                0x0000000000017614       0x14 bin/blib.a(ipv4.o)
 .data.neighbours
                0x0000000000017628        0x8 bin/blib.a(neighbour.o)
                0x0000000000017628                neighbours
 .data.net_devices
                0x0000000000017630        0x8 bin/blib.a(netdevice.o)
                0x0000000000017630                net_devices
 .data.open_net_devices
                0x0000000000017638        0x8 bin/blib.a(netdevice.o)
 .data.net_process_desc
                0x0000000000017640        0xc bin/blib.a(netdevice.o)
 .data.netdev_settings_operations
                0x000000000001764c       0x14 bin/blib.a(netdev_settings.o)
                0x000000000001764c                netdev_settings_operations
 .data.netdev_redirect_settings
                0x0000000000017660       0x24 bin/blib.a(netdev_settings.o)
 .data.netdev_setting_operations
                0x0000000000017684       0x3c bin/blib.a(netdev_settings.o)
 .data.netdev_redirect_settings_operations
                0x00000000000176c0       0x14 bin/blib.a(netdev_settings.o)
 .data.null_netdev_operations
                0x00000000000176d4       0x14 bin/blib.a(nullnet.o)
                0x00000000000176d4                null_netdev_operations
 .data.timers   0x00000000000176e8        0x8 bin/blib.a(retry.o)
 .data.retry_process_desc
                0x00000000000176f0        0xc bin/blib.a(retry.o)
 .data.udp_sock_dgram
                0x00000000000176fc        0x4 bin/blib.a(udp.o)
                0x00000000000176fc                udp_sock_dgram
 .data.udp_xfer_desc
                0x0000000000017700       0x10 bin/blib.a(udp.o)
 .data.udp_conns
                0x0000000000017710        0x8 bin/blib.a(udp.o)
 .data.udp_xfer_operations
                0x0000000000017718       0x18 bin/blib.a(udp.o)
 .data.http_xfer_desc
                0x0000000000017730       0x10 bin/blib.a(httpcore.o)
 .data.http_partial_desc
                0x0000000000017740       0x10 bin/blib.a(httpcore.o)
 .data.http_socket_desc
                0x0000000000017750       0x10 bin/blib.a(httpcore.o)
 .data.http_process_desc
                0x0000000000017760        0xc bin/blib.a(httpcore.o)
 .data.http_line_handlers
                0x000000000001776c       0x14 bin/blib.a(httpcore.o)
 .data.http_header_handlers
                0x0000000000017780       0x30 bin/blib.a(httpcore.o)
 .data.http_auth_header_handlers
                0x00000000000177b0       0x18 bin/blib.a(httpcore.o)
 .data.http_xfer_operations
                0x00000000000177c8       0x28 bin/blib.a(httpcore.o)
 .data.http_partial_operations
                0x00000000000177f0        0x8 bin/blib.a(httpcore.o)
 .data.http_socket_operations
                0x00000000000177f8       0x20 bin/blib.a(httpcore.o)
 .data.iscsi_control_desc
                0x0000000000017818       0x10 bin/blib.a(iscsi.o)
 .data.iscsi_data_desc
                0x0000000000017828       0x10 bin/blib.a(iscsi.o)
 .data.iscsi_socket_desc
                0x0000000000017838       0x10 bin/blib.a(iscsi.o)
 .data.iscsi_process_desc
                0x0000000000017848        0xc bin/blib.a(iscsi.o)
 .data.iscsi_string_types
                0x0000000000017854       0x40 bin/blib.a(iscsi.o)
 .data.iscsi_control_op
                0x0000000000017894       0x20 bin/blib.a(iscsi.o)
 .data.iscsi_data_op
                0x00000000000178b4        0x8 bin/blib.a(iscsi.o)
 .data.iscsi_socket_operations
                0x00000000000178bc       0x20 bin/blib.a(iscsi.o)
 .data.dhcp_request_options_data
                0x00000000000178dc       0x50 bin/blib.a(dhcp.o)
 .data.dhcp_job_desc
                0x000000000001792c       0x10 bin/blib.a(dhcp.o)
 .data.dhcp_xfer_desc
                0x000000000001793c       0x10 bin/blib.a(dhcp.o)
 .data.dhcp_peer
                0x000000000001794c       0x20 bin/blib.a(dhcp.o)
 .data.dhcp_state_discover
                0x000000000001796c       0x14 bin/blib.a(dhcp.o)
 .data.dhcp_state_request
                0x0000000000017980       0x14 bin/blib.a(dhcp.o)
 .data.dhcp_state_proxy
                0x0000000000017994       0x14 bin/blib.a(dhcp.o)
 .data.peer.3045
                0x00000000000179a8       0x24 bin/blib.a(dhcp.o)
 .data.dhcp_state_pxebs
                0x00000000000179cc       0x14 bin/blib.a(dhcp.o)
 .data.dhcp_job_op
                0x00000000000179e0        0x8 bin/blib.a(dhcp.o)
 .data.dhcp_xfer_operations
                0x00000000000179e8        0x8 bin/blib.a(dhcp.o)
 .data.nameserver
                0x00000000000179f0       0x20 bin/blib.a(dns.o)
 .data.dns_resolv_desc
                0x0000000000017a10       0x10 bin/blib.a(dns.o)
 .data.dns_socket_desc
                0x0000000000017a20       0x10 bin/blib.a(dns.o)
 .data.dns_resolv_op
                0x0000000000017a30        0x8 bin/blib.a(dns.o)
 .data.dns_socket_operations
                0x0000000000017a38       0x10 bin/blib.a(dns.o)
 .data.tftp_mtftp_socket
                0x0000000000017a48       0x24 bin/blib.a(tftp.o)
 .data.tftp_xfer_desc
                0x0000000000017a6c       0x10 bin/blib.a(tftp.o)
 .data.tftp_socket_desc
                0x0000000000017a7c       0x10 bin/blib.a(tftp.o)
 .data.tftp_mc_socket_desc
                0x0000000000017a8c       0x10 bin/blib.a(tftp.o)
 .data.tftp_options
                0x0000000000017a9c       0x20 bin/blib.a(tftp.o)
 .data.tftp_xfer_operations
                0x0000000000017abc       0x10 bin/blib.a(tftp.o)
 .data.tftp_socket_operations
                0x0000000000017acc        0x8 bin/blib.a(tftp.o)
 .data.tftp_mc_socket_operations
                0x0000000000017ad4        0x8 bin/blib.a(tftp.o)
 .data.embedded_images
                0x0000000000017adc       0x30 bin/blib.a(embedded.o)
 .data.goto_cmd
                0x0000000000017b0c        0xc bin/blib.a(script.o)
 .data.prompt_cmd
                0x0000000000017b18        0xc bin/blib.a(script.o)
 .data.prompt_opts
                0x0000000000017b24       0x18 bin/blib.a(script.o)
 .data.pci_root_driver
                0x0000000000017b3c        0x8 bin/blib.a(pci.o)
 .data.pci_settings
                0x0000000000017b44       0x24 bin/blib.a(pci_settings.o)
 .data.pci_settings_operations
                0x0000000000017b68       0x14 bin/blib.a(pci_settings.o)
 .data.scsidev_block_desc
                0x0000000000017b7c       0x10 bin/blib.a(scsi.o)
 .data.scsidev_scsi_desc
                0x0000000000017b8c       0x10 bin/blib.a(scsi.o)
 .data.scsidev_ready_desc
                0x0000000000017b9c       0x10 bin/blib.a(scsi.o)
 .data.scsidev_process_desc
                0x0000000000017bac        0xc bin/blib.a(scsi.o)
 .data.scsicmd_read_capacity
                0x0000000000017bb8       0x10 bin/blib.a(scsi.o)
 .data.scsicmd_block_desc
                0x0000000000017bc8       0x10 bin/blib.a(scsi.o)
 .data.scsicmd_scsi_desc
                0x0000000000017bd8       0x10 bin/blib.a(scsi.o)
 .data.scsicmd_write
                0x0000000000017be8       0x10 bin/blib.a(scsi.o)
 .data.scsicmd_read
                0x0000000000017bf8       0x10 bin/blib.a(scsi.o)
 .data.scsicmd_test_unit_ready
                0x0000000000017c08       0x10 bin/blib.a(scsi.o)
 .data.scsidev_block_op
                0x0000000000017c18       0x28 bin/blib.a(scsi.o)
 .data.scsidev_scsi_op
                0x0000000000017c40       0x10 bin/blib.a(scsi.o)
 .data.scsidev_ready_op
                0x0000000000017c50        0x8 bin/blib.a(scsi.o)
 .data.scsicmd_block_op
                0x0000000000017c58        0x8 bin/blib.a(scsi.o)
 .data.scsicmd_scsi_op
                0x0000000000017c60       0x10 bin/blib.a(scsi.o)
 .data.smbios_settings
                0x0000000000017c70       0x24 bin/blib.a(smbios_settings.o)
 .data.smbios_settings_operations
                0x0000000000017c94       0x14 bin/blib.a(smbios_settings.o)
 .data.md5_algorithm
                0x0000000000017ca8       0x1c bin/blib.a(md5.o)
                0x0000000000017ca8                md5_algorithm
 .data.md5_steps
                0x0000000000017cc4       0x20 bin/blib.a(md5.o)
 .data.oid_md5  0x0000000000017ce4        0x8 bin/blib.a(md5.o)
 .data.autoboot_cmd
                0x0000000000017cec        0xc bin/blib.a(autoboot_cmd.o)
 .data.config_cmd
                0x0000000000017cf8        0xc bin/blib.a(config_cmd.o)
 .data.pxebs_cmd
                0x0000000000017d04        0xc bin/blib.a(dhcp_cmd.o)
 .data.dhcp_cmd
                0x0000000000017d10        0xc bin/blib.a(dhcp_cmd.o)
 .data.ifstat_cmd
                0x0000000000017d1c        0xc bin/blib.a(ifmgmt_cmd.o)
 .data.ifclose_cmd
                0x0000000000017d28        0xc bin/blib.a(ifmgmt_cmd.o)
 .data.ifopen_cmd
                0x0000000000017d34        0xc bin/blib.a(ifmgmt_cmd.o)
 .data.imgargs_desc
                0x0000000000017d40       0x14 bin/blib.a(image_cmd.o)
                0x0000000000017d40                imgargs_desc
 .data.imgexec_desc
                0x0000000000017d54       0x14 bin/blib.a(image_cmd.o)
                0x0000000000017d54                imgexec_desc
 .data.imgselect_desc
                0x0000000000017d68       0x14 bin/blib.a(image_cmd.o)
                0x0000000000017d68                imgselect_desc
 .data.imgfetch_desc
                0x0000000000017d7c       0x14 bin/blib.a(image_cmd.o)
                0x0000000000017d7c                imgfetch_desc
 .data.imgmulti_cmd
                0x0000000000017d90        0xc bin/blib.a(image_cmd.o)
 .data.imgsingle_cmd
                0x0000000000017d9c        0xc bin/blib.a(image_cmd.o)
 .data.imgexec_cmd
                0x0000000000017da8        0xc bin/blib.a(image_cmd.o)
 .data.imgfetch_cmd
                0x0000000000017db4        0xc bin/blib.a(image_cmd.o)
 .data.imgsingle_opts
                0x0000000000017dc0       0x24 bin/blib.a(image_cmd.o)
 .data.login_cmd
                0x0000000000017de4        0xc bin/blib.a(login_cmd.o)
 .data.choose_cmd
                0x0000000000017df0        0xc bin/blib.a(menu_cmd.o)
 .data.item_cmd
                0x0000000000017dfc        0xc bin/blib.a(menu_cmd.o)
 .data.menu_cmd
                0x0000000000017e08        0xc bin/blib.a(menu_cmd.o)
 .data.choose_opts
                0x0000000000017e14       0x30 bin/blib.a(menu_cmd.o)
 .data.item_opts
                0x0000000000017e44       0x30 bin/blib.a(menu_cmd.o)
 .data.menu_opts
                0x0000000000017e74       0x18 bin/blib.a(menu_cmd.o)
 .data.inc_cmd  0x0000000000017e8c        0xc bin/blib.a(nvo_cmd.o)
 .data.clear_read_cmd
                0x0000000000017e98        0xc bin/blib.a(nvo_cmd.o)
 .data.set_cmd  0x0000000000017ea4        0xc bin/blib.a(nvo_cmd.o)
 .data.show_cmd
                0x0000000000017eb0        0xc bin/blib.a(nvo_cmd.o)
 .data.reboot_cmd
                0x0000000000017ebc        0xc bin/blib.a(reboot_cmd.o)
 .data.reboot_opts
                0x0000000000017ec8        0xc bin/blib.a(reboot_cmd.o)
 .data.route_cmd
                0x0000000000017ed4        0xc bin/blib.a(route_cmd.o)
 .data.sanunhook_cmd
                0x0000000000017ee0        0xc bin/blib.a(sanboot_cmd.o)
 .data.sanboot_cmd
                0x0000000000017eec        0xc bin/blib.a(sanboot_cmd.o)
 .data.sanhook_cmd
                0x0000000000017ef8        0xc bin/blib.a(sanboot_cmd.o)
 .data.sanboot_opts
                0x0000000000017f04       0x24 bin/blib.a(sanboot_cmd.o)
 .data.sync_cmd
                0x0000000000017f28        0xc bin/blib.a(sync_cmd.o)
 .data.sync_opts
                0x0000000000017f34        0xc bin/blib.a(sync_cmd.o)
 .data._ansi_screen
                0x0000000000017f40       0x24 bin/blib.a(ansi_screen.o)
                0x0000000000017f40                _ansi_screen
 .data._LINES   0x0000000000017f64        0x2 bin/blib.a(ansi_screen.o)
                0x0000000000017f64                _LINES
 .data._COLS    0x0000000000017f66        0x2 bin/blib.a(ansi_screen.o)
                0x0000000000017f66                _COLS
 .data.cpairs   0x0000000000017f68       0x20 bin/blib.a(colour.o)
 .data._stdscr  0x0000000000017f88       0x24 bin/blib.a(mucurses.o)
                0x0000000000017f88                _stdscr
 .data.int13s   0x0000000000017fac        0x8 bin/blib.a(int13.o)
 .data.int13_block_desc
                0x0000000000017fb4       0x10 bin/blib.a(int13.o)
 .data.int13_command
                0x0000000000017fc4       0x3c bin/blib.a(int13.o)
 .data.int13_block_op
                0x0000000000018000       0x10 bin/blib.a(int13.o)
 .data.int13_command_desc
                0x0000000000018010       0x10 bin/blib.a(int13.o)
 .data.int13_command_op
                0x0000000000018020       0x10 bin/blib.a(int13.o)
 .data.console_usage
                0x0000000000018030        0x4 bin/blib.a(console.o)
                0x0000000000018030                console_usage
 .data.downloader_job_desc
                0x0000000000018034       0x10 bin/blib.a(downloader.o)
 .data.downloader_xfer_desc
                0x0000000000018044       0x10 bin/blib.a(downloader.o)
 .data.downloader_job_op
                0x0000000000018054       0x10 bin/blib.a(downloader.o)
 .data.downloader_xfer_operations
                0x0000000000018064       0x10 bin/blib.a(downloader.o)
 .data.menus    0x0000000000018074        0x8 bin/blib.a(menu.o)
 .data.monojob  0x000000000001807c        0xc bin/blib.a(monojob.o)
                0x000000000001807c                monojob
 .data.monojob_intf_desc
                0x0000000000018088       0x10 bin/blib.a(monojob.o)
 .data.monojob_intf_op
                0x0000000000018098        0x8 bin/blib.a(monojob.o)
 .data.parameters
                0x00000000000180a0        0x8 bin/blib.a(params.o)
 .data.numeric_process_desc
                0x00000000000180a8        0xc bin/blib.a(resolv.o)
 .data.resmux_child_desc
                0x00000000000180b4       0x10 bin/blib.a(resolv.o)
 .data.named_xfer_desc
                0x00000000000180c4       0x10 bin/blib.a(resolv.o)
 .data.named_resolv_desc
                0x00000000000180d4       0x10 bin/blib.a(resolv.o)
 .data.resmux_child_op
                0x00000000000180e4       0x10 bin/blib.a(resolv.o)
 .data.named_xfer_ops
                0x00000000000180f4       0x10 bin/blib.a(resolv.o)
 .data.named_resolv_op
                0x0000000000018104       0x10 bin/blib.a(resolv.o)
 .data.aoedev_ata_desc
                0x0000000000018114       0x10 bin/blib.a(aoe.o)
 .data.aoedev_config_desc
                0x0000000000018124       0x10 bin/blib.a(aoe.o)
 .data.aoecmd_cfg
                0x0000000000018134        0xc bin/blib.a(aoe.o)
 .data.aoecmd_ata
                0x0000000000018140        0xc bin/blib.a(aoe.o)
 .data.aoe_commands
                0x000000000001814c        0x8 bin/blib.a(aoe.o)
 .data.aoecmd_ata_desc
                0x0000000000018154       0x10 bin/blib.a(aoe.o)
 .data.aoedev_ata_op
                0x0000000000018164       0x28 bin/blib.a(aoe.o)
 .data.aoedev_config_op
                0x000000000001818c        0x8 bin/blib.a(aoe.o)
 .data.aoecmd_ata_op
                0x0000000000018194        0x8 bin/blib.a(aoe.o)
 .data.dhcp_packet_fields
                0x000000000001819c       0x30 bin/blib.a(dhcppkt.o)
 .data.dhcppkt_settings_operations
                0x00000000000181cc       0x14 bin/blib.a(dhcppkt.o)
 .data.tcp_sock_stream
                0x00000000000181e0        0x4 bin/blib.a(tcp.o)
                0x00000000000181e0                tcp_sock_stream
 .data.tcp_conns
                0x00000000000181e4        0x8 bin/blib.a(tcp.o)
 .data.tcp_xfer_desc
                0x00000000000181ec       0x10 bin/blib.a(tcp.o)
 .data.tcp_xfer_operations
                0x00000000000181fc       0x18 bin/blib.a(tcp.o)
 .data.atadev_block_desc
                0x0000000000018214       0x10 bin/blib.a(ata.o)
 .data.atadev_ata_desc
                0x0000000000018224       0x10 bin/blib.a(ata.o)
 .data.ata_commands
                0x0000000000018234        0x8 bin/blib.a(ata.o)
 .data.atacmd_identify
                0x000000000001823c       0x18 bin/blib.a(ata.o)
 .data.atacmd_block_desc
                0x0000000000018254       0x10 bin/blib.a(ata.o)
 .data.atacmd_ata_desc
                0x0000000000018264       0x10 bin/blib.a(ata.o)
 .data.atacmd_write
                0x0000000000018274       0x18 bin/blib.a(ata.o)
 .data.atacmd_read
                0x000000000001828c       0x18 bin/blib.a(ata.o)
 .data.atadev_block_op
                0x00000000000182a4       0x28 bin/blib.a(ata.o)
 .data.atadev_ata_op
                0x00000000000182cc        0x8 bin/blib.a(ata.o)
 .data.atacmd_block_op
                0x00000000000182d4        0x8 bin/blib.a(ata.o)
 .data.atacmd_ata_op
                0x00000000000182dc        0x8 bin/blib.a(ata.o)
 .data.shell_cmd
                0x00000000000182e4        0xc bin/blib.a(shell.o)
 *(SORT(.tbl.*))
 .tbl.arp_net_protocols.00
                0x00000000000182f0        0x0 bin/blib.a(arp.o)
 .tbl.arp_net_protocols.01
                0x00000000000182f0        0x8 bin/blib.a(ipv4.o)
                0x00000000000182f0                ipv4_arp_protocol
 .tbl.arp_net_protocols.99
                0x00000000000182f8        0x0 bin/blib.a(arp.o)
 .tbl.asn1_algorithms.01
                0x00000000000182f8       0x14 bin/blib.a(md5.o)
                0x00000000000182f8                oid_md5_algorithm
 .tbl.builtin_settings.00
                0x000000000001830c        0x0 bin/blib.a(settings.o)
 .tbl.builtin_settings.01
                0x000000000001830c       0x20 bin/blib.a(settings.o)
                0x000000000001830c                version_builtin_setting
                0x0000000000018314                platform_builtin_setting
                0x000000000001831c                buildarch_builtin_setting
                0x0000000000018324                errno_builtin_setting
 .tbl.builtin_settings.99
                0x000000000001832c        0x0 bin/blib.a(settings.o)
 .tbl.cache_discarders.00
                0x000000000001832c        0x0 bin/blib.a(malloc.o)
 .tbl.cache_discarders.02
                0x000000000001832c        0x4 bin/blib.a(netdevice.o)
                0x000000000001832c                net_discarder
 .tbl.cache_discarders.02
                0x0000000000018330        0x4 bin/blib.a(tcp.o)
                0x0000000000018330                tcp_discarder
 .tbl.cache_discarders.03
                0x0000000000018334        0x4 bin/blib.a(neighbour.o)
                0x0000000000018334                neighbour_discarder
 .tbl.cache_discarders.99
                0x0000000000018338        0x0 bin/blib.a(malloc.o)
 .tbl.commands.00
                0x0000000000018338        0x0 bin/blib.a(exec.o)
 .tbl.commands.00
                0x0000000000018338        0x0 bin/blib.a(shell.o)
 .tbl.commands.01
                0x0000000000018338        0x8 bin/blib.a(cpuid_cmd.o)
                0x0000000000018338                cpuid_command
 .tbl.commands.01
                0x0000000000018340       0x28 bin/blib.a(exec.o)
                0x0000000000018340                sleep_command
                0x0000000000018348                iseq_command
                0x0000000000018350                isset_command
                0x0000000000018358                exit_command
                0x0000000000018360                echo_command
 .tbl.commands.01
                0x0000000000018368       0x10 bin/blib.a(script.o)
                0x0000000000018368                prompt_command
                0x0000000000018370                goto_command
 .tbl.commands.01
                0x0000000000018378        0x8 bin/blib.a(autoboot_cmd.o)
                0x0000000000018378                autoboot_commands
 .tbl.commands.01
                0x0000000000018380        0x8 bin/blib.a(config_cmd.o)
                0x0000000000018380                config_command
 .tbl.commands.01
                0x0000000000018388       0x10 bin/blib.a(dhcp_cmd.o)
                0x0000000000018388                dhcp_commands
 .tbl.commands.01
                0x0000000000018398       0x18 bin/blib.a(ifmgmt_cmd.o)
                0x0000000000018398                ifmgmt_commands
 .tbl.commands.01
                0x00000000000183b0       0x60 bin/blib.a(image_cmd.o)
                0x00000000000183b0                image_commands
 .tbl.commands.01
                0x0000000000018410        0x8 bin/blib.a(login_cmd.o)
                0x0000000000018410                login_command
 .tbl.commands.01
                0x0000000000018418       0x18 bin/blib.a(menu_cmd.o)
                0x0000000000018418                menu_commands
 .tbl.commands.01
                0x0000000000018430       0x28 bin/blib.a(nvo_cmd.o)
                0x0000000000018430                nvo_commands
 .tbl.commands.01
                0x0000000000018458        0x8 bin/blib.a(reboot_cmd.o)
                0x0000000000018458                reboot_command
 .tbl.commands.01
                0x0000000000018460        0x8 bin/blib.a(route_cmd.o)
                0x0000000000018460                route_commands
 .tbl.commands.01
                0x0000000000018468       0x18 bin/blib.a(sanboot_cmd.o)
                0x0000000000018468                sanboot_commands
 .tbl.commands.01
                0x0000000000018480        0x8 bin/blib.a(sync_cmd.o)
                0x0000000000018480                sync_command
 .tbl.commands.01
                0x0000000000018488       0x10 bin/blib.a(shell.o)
                0x0000000000018488                shell_command
                0x0000000000018490                help_command
 .tbl.commands.99
                0x0000000000018498        0x0 bin/blib.a(exec.o)
 .tbl.commands.99
                0x0000000000018498        0x0 bin/blib.a(shell.o)
 .tbl.consoles.00
                0x0000000000018498        0x0 bin/blib.a(console.o)
 .tbl.consoles.01
                0x0000000000018498       0x14 bin/blib.a(bios_console.o)
                0x0000000000018498                bios_console
 .tbl.consoles.99
                0x00000000000184ac        0x0 bin/blib.a(console.o)
 .tbl.dhcp_features.00
                0x00000000000184ac        0x0 bin/blib.a(dhcp.o)
 .tbl.dhcp_features.01
                0x00000000000184ac        0x3 bin/blib.a(bzimage.o)
                0x00000000000184ac                __dhcp_feature_bzimage
 .tbl.dhcp_features.01
                0x00000000000184af        0x3 bin/blib.a(elfboot.o)
                0x00000000000184af                __dhcp_feature_elfboot
 .tbl.dhcp_features.01
                0x00000000000184b2        0x3 bin/blib.a(multiboot.o)
                0x00000000000184b2                __dhcp_feature_multiboot
 .tbl.dhcp_features.01
                0x00000000000184b5        0x3 bin/blib.a(pxe_image.o)
                0x00000000000184b5                __dhcp_feature_pxe_image
 .tbl.dhcp_features.01
                0x00000000000184b8        0x3 bin/blib.a(pxe_file.o)
                0x00000000000184b8                __dhcp_feature_pxe_file
 .tbl.dhcp_features.01
                0x00000000000184bb        0x5 bin/blib.a(version.o)
                0x00000000000184bb                __dhcp_feature_version
 .tbl.dhcp_features.01
                0x00000000000184c0        0x3 bin/blib.a(http.o)
                0x00000000000184c0                __dhcp_feature_http
 .tbl.dhcp_features.01
                0x00000000000184c3        0x3 bin/blib.a(iscsi.o)
                0x00000000000184c3                __dhcp_feature_iscsi
 .tbl.dhcp_features.01
                0x00000000000184c6        0x3 bin/blib.a(dns.o)
                0x00000000000184c6                __dhcp_feature_dns
 .tbl.dhcp_features.01
                0x00000000000184c9        0x3 bin/blib.a(tftp.o)
                0x00000000000184c9                __dhcp_feature_tftp
 .tbl.dhcp_features.01
                0x00000000000184cc        0x3 bin/blib.a(menu_cmd.o)
                0x00000000000184cc                __dhcp_feature_menu_cmd
 .tbl.dhcp_features.01
                0x00000000000184cf        0x3 bin/blib.a(aoe.o)
                0x00000000000184cf                __dhcp_feature_aoe
 .tbl.dhcp_features.99
                0x00000000000184d2        0x0 bin/blib.a(dhcp.o)
 *fill*         0x00000000000184d2        0x2 00
 .tbl.errortab.00
                0x00000000000184d4        0x0 bin/blib.a(strerror.o)
 .tbl.errortab.01
                0x00000000000184d4       0x10 bin/blib.a(netdevice.o)
                0x00000000000184d4                netdev_errors
 .tbl.errortab.01
                0x00000000000184e4        0x8 bin/blib.a(segment.o)
                0x00000000000184e4                segment_errors
 .tbl.errortab.01
                0x00000000000184ec       0x88 bin/blib.a(strerror.o)
                0x00000000000184ec                common_errors
 .tbl.errortab.99
                0x0000000000018574        0x0 bin/blib.a(strerror.o)
 .tbl.features.01
                0x0000000000018574        0x4 bin/blib.a(http.o)
                0x0000000000018574                __feature_http
 .tbl.features.01
                0x0000000000018578        0x4 bin/blib.a(iscsi.o)
                0x0000000000018578                __feature_iscsi
 .tbl.features.01
                0x000000000001857c        0x4 bin/blib.a(dns.o)
                0x000000000001857c                __feature_dns
 .tbl.features.01
                0x0000000000018580        0x4 bin/blib.a(tftp.o)
                0x0000000000018580                __feature_tftp
 .tbl.features.01
                0x0000000000018584        0x4 bin/blib.a(aoe.o)
                0x0000000000018584                __feature_aoe
 .tbl.features.02
                0x0000000000018588        0x4 bin/blib.a(bzimage.o)
                0x0000000000018588                __feature_bzimage
 .tbl.features.02
                0x000000000001858c        0x4 bin/blib.a(elfboot.o)
                0x000000000001858c                __feature_elfboot
 .tbl.features.02
                0x0000000000018590        0x4 bin/blib.a(multiboot.o)
                0x0000000000018590                __feature_multiboot
 .tbl.features.02
                0x0000000000018594        0x4 bin/blib.a(pxe_image.o)
                0x0000000000018594                __feature_pxe_image
 .tbl.features.03
                0x0000000000018598        0x4 bin/blib.a(pxe_file.o)
                0x0000000000018598                __feature_pxe_file
 .tbl.features.03
                0x000000000001859c        0x4 bin/blib.a(menu_cmd.o)
                0x000000000001859c                __feature_menu_cmd
 .tbl.icmp_echo_protocols.00
                0x00000000000185a0        0x0 bin/blib.a(icmp.o)
 .tbl.icmp_echo_protocols.01
                0x00000000000185a0        0xc bin/blib.a(icmpv4.o)
                0x00000000000185a0                icmpv4_echo_protocol
 .tbl.icmp_echo_protocols.99
                0x00000000000185ac        0x0 bin/blib.a(icmp.o)
 .tbl.image_types.00
                0x00000000000185ac        0x0 bin/blib.a(image.o)
 .tbl.image_types.01
                0x00000000000185ac        0xc bin/blib.a(multiboot.o)
                0x00000000000185ac                multiboot_image_type
 .tbl.image_types.02
                0x00000000000185b8        0xc bin/blib.a(bzimage.o)
                0x00000000000185b8                bzimage_image_type
 .tbl.image_types.02
                0x00000000000185c4        0xc bin/blib.a(elfboot.o)
                0x00000000000185c4                elfboot_image_type
 .tbl.image_types.02
                0x00000000000185d0        0xc bin/blib.a(script.o)
                0x00000000000185d0                script_image_type
 .tbl.image_types.03
                0x00000000000185dc        0xc bin/blib.a(pxe_image.o)
                0x00000000000185dc                pxe_image_type
 .tbl.image_types.99
                0x00000000000185e8        0x0 bin/blib.a(image.o)
 .tbl.init_fns.00
                0x00000000000185e8        0x0 bin/blib.a(init.o)
 .tbl.init_fns.01
                0x00000000000185e8        0x4 bin/blib.a(malloc.o)
                0x00000000000185e8                heap_init_fn
 .tbl.init_fns.04
                0x00000000000185ec        0x4 bin/blib.a(pxe_call.o)
                0x00000000000185ec                pxe_init_fn
 .tbl.init_fns.04
                0x00000000000185f0        0x4 bin/blib.a(process.o)
                0x00000000000185f0                process_init_fn
 .tbl.init_fns.04
                0x00000000000185f4        0x4 bin/blib.a(settings.o)
                0x00000000000185f4                builtin_init_fn
 .tbl.init_fns.04
                0x00000000000185f8        0x4 bin/blib.a(pci_settings.o)
                0x00000000000185f8                pci_settings_init_fn
 .tbl.init_fns.04
                0x00000000000185fc        0x4 bin/blib.a(smbios_settings.o)
                0x00000000000185fc                smbios_init_fn
 .tbl.init_fns.05
                0x0000000000018600        0x4 bin/blib.a(netdev_settings.o)
                0x0000000000018600                netdev_redirect_settings_init_fn
 .tbl.init_fns.05
                0x0000000000018604        0x4 bin/blib.a(embedded.o)
                0x0000000000018604                embedded_init_fn
 .tbl.init_fns.99
                0x0000000000018608        0x0 bin/blib.a(init.o)
 .tbl.keymap.00
                0x0000000000018608        0x0 bin/blib.a(bios_console.o)
 .tbl.keymap.01
                0x0000000000018608        0x0 bin/blib.a(keymap_us.o)
                0x0000000000018608                us_mapping
 .tbl.keymap.99
                0x0000000000018608        0x0 bin/blib.a(bios_console.o)
 .tbl.ll_protocols.01
                0x0000000000018608       0x2c bin/blib.a(ethernet.o)
                0x0000000000018608                ethernet_protocol
 .tbl.net_drivers.00
                0x0000000000018634        0x0 bin/blib.a(netdevice.o)
 .tbl.net_drivers.01
                0x0000000000018634       0x10 bin/blib.a(neighbour.o)
                0x0000000000018634                neighbour_net_driver
 .tbl.net_drivers.99
                0x0000000000018644        0x0 bin/blib.a(netdevice.o)
 .tbl.net_protocols.00
                0x0000000000018644        0x0 bin/blib.a(netdevice.o)
 .tbl.net_protocols.01
                0x0000000000018644       0x10 bin/blib.a(arp.o)
                0x0000000000018644                arp_protocol
 .tbl.net_protocols.01
                0x0000000000018654       0x10 bin/blib.a(eth_slow.o)
                0x0000000000018654                eth_slow_protocol
 .tbl.net_protocols.01
                0x0000000000018664       0x10 bin/blib.a(ipv4.o)
                0x0000000000018664                ipv4_protocol
 .tbl.net_protocols.01
                0x0000000000018674       0x10 bin/blib.a(rarp.o)
                0x0000000000018674                rarp_protocol
 .tbl.net_protocols.01
                0x0000000000018684       0x10 bin/blib.a(aoe.o)
                0x0000000000018684                aoe_protocol
 .tbl.net_protocols.99
                0x0000000000018694        0x0 bin/blib.a(netdevice.o)
 .tbl.pci_drivers.00
                0x0000000000018694        0x0 bin/blib.a(pci.o)
 .tbl.pci_drivers.01
                0x0000000000018694       0x10 bin/blib.a(realtek.o)
                0x0000000000018694                realtek_driver
 .tbl.pci_drivers.99
                0x00000000000186a4        0x0 bin/blib.a(pci.o)
 .tbl.processes.00
                0x00000000000186a4        0x0 bin/blib.a(process.o)
 .tbl.processes.01
                0x00000000000186a4       0x10 bin/blib.a(netdevice.o)
                0x00000000000186a4                net_process
 .tbl.processes.01
                0x00000000000186b4       0x10 bin/blib.a(retry.o)
                0x00000000000186b4                retry_process
 .tbl.processes.99
                0x00000000000186c4        0x0 bin/blib.a(process.o)
 .tbl.pxe_api_calls.00
                0x00000000000186c4        0x0 bin/blib.a(pxe_call.o)
 .tbl.pxe_api_calls.00
                0x00000000000186c4        0x0 bin/blib.a(pxe_file.o)
 .tbl.pxe_api_calls.01
                0x00000000000186c4        0x8 bin/blib.a(pxe_call.o)
                0x00000000000186c4                pxenv_unknown_api
 .tbl.pxe_api_calls.01
                0x00000000000186cc       0x40 bin/blib.a(pxe_file.o)
                0x00000000000186cc                pxe_file_api
 .tbl.pxe_api_calls.01
                0x000000000001870c       0x38 bin/blib.a(pxe_preboot.o)
                0x000000000001870c                pxe_preboot_api
 .tbl.pxe_api_calls.01
                0x0000000000018744       0x28 bin/blib.a(pxe_tftp.o)
                0x0000000000018744                pxe_tftp_api
 .tbl.pxe_api_calls.01
                0x000000000001876c       0x20 bin/blib.a(pxe_udp.o)
                0x000000000001876c                pxe_udp_api
 .tbl.pxe_api_calls.01
                0x000000000001878c       0xa0 bin/blib.a(pxe_undi.o)
                0x000000000001878c                pxe_undi_api
 .tbl.pxe_api_calls.99
                0x000000000001882c        0x0 bin/blib.a(pxe_call.o)
 .tbl.pxe_api_calls.99
                0x000000000001882c        0x0 bin/blib.a(pxe_file.o)
 .tbl.resolvers.00
                0x000000000001882c        0x0 bin/blib.a(resolv.o)
 .tbl.resolvers.01
                0x000000000001882c        0x8 bin/blib.a(resolv.o)
                0x000000000001882c                numeric_resolver
 .tbl.resolvers.02
                0x0000000000018834        0x8 bin/blib.a(dns.o)
                0x0000000000018834                dns_resolver
 .tbl.resolvers.99
                0x000000000001883c        0x0 bin/blib.a(resolv.o)
 .tbl.root_devices.00
                0x000000000001883c        0x0 bin/blib.a(device.o)
 .tbl.root_devices.01
                0x000000000001883c       0x48 bin/blib.a(pci.o)
                0x000000000001883c                pci_root_device
 .tbl.root_devices.99
                0x0000000000018884        0x0 bin/blib.a(device.o)
 .tbl.routing_families.00
                0x0000000000018884        0x0 bin/blib.a(route.o)
 .tbl.routing_families.01
                0x0000000000018884        0x4 bin/blib.a(route_ipv4.o)
                0x0000000000018884                ipv4_routing_family
 .tbl.routing_families.99
                0x0000000000018888        0x0 bin/blib.a(route.o)
 .tbl.setting_types.00
                0x0000000000018888        0x0 bin/blib.a(settings.o)
 .tbl.setting_types.01
                0x0000000000018888      0x118 bin/blib.a(settings.o)
                0x0000000000018888                setting_type_busdevfn
                0x000000000001889c                setting_type_uuid
                0x00000000000188b0                setting_type_hexraw
                0x00000000000188c4                setting_type_hexhyp
                0x00000000000188d8                setting_type_hex
                0x00000000000188ec                setting_type_uint32
                0x0000000000018900                setting_type_uint16
                0x0000000000018914                setting_type_uint8
                0x0000000000018928                setting_type_int32
                0x000000000001893c                setting_type_int16
                0x0000000000018950                setting_type_int8
                0x0000000000018964                setting_type_ipv4
                0x0000000000018978                setting_type_uristring
                0x000000000001898c                setting_type_string
 .tbl.setting_types.99
                0x00000000000189a0        0x0 bin/blib.a(settings.o)
 .tbl.settings.00
                0x00000000000189a0        0x0 bin/blib.a(settings.o)
 .tbl.settings.00
                0x00000000000189a0        0x0 bin/blib.a(settings_ui.o)
 .tbl.settings.01
                0x00000000000189a0       0x64 bin/blib.a(netdev_settings.o)
                0x00000000000189a0                chip_setting
                0x00000000000189b4                busid_setting
                0x00000000000189c8                busloc_setting
                0x00000000000189dc                bustype_setting
                0x00000000000189f0                mac_setting
 .tbl.settings.03
                0x0000000000018a04       0x3c bin/blib.a(ipv4.o)
                0x0000000000018a04                gateway_setting
                0x0000000000018a18                netmask_setting
                0x0000000000018a2c                ip_setting
 .tbl.settings.04
                0x0000000000018a40       0x14 bin/blib.a(settings.o)
                0x0000000000018a40                domain_setting
 .tbl.settings.04
                0x0000000000018a54       0x14 bin/blib.a(dns.o)
                0x0000000000018a54                dns_setting
 .tbl.settings.05
                0x0000000000018a68       0x28 bin/blib.a(settings.o)
                0x0000000000018a68                filename_setting
                0x0000000000018a7c                next_server_setting
 .tbl.settings.07
                0x0000000000018a90       0x14 bin/blib.a(settings.o)
                0x0000000000018a90                root_path_setting
 .tbl.settings.08
                0x0000000000018aa4       0x14 bin/blib.a(iscsi.o)
                0x0000000000018aa4                initiator_iqn_setting
 .tbl.settings.08
                0x0000000000018ab8       0x28 bin/blib.a(autoboot.o)
                0x0000000000018ab8                skip_san_boot_setting
                0x0000000000018acc                keep_san_setting
 .tbl.settings.09
                0x0000000000018ae0       0x14 bin/blib.a(settings.o)
                0x0000000000018ae0                hostname_setting
 .tbl.settings.09
                0x0000000000018af4       0x14 bin/blib.a(smbios_settings.o)
                0x0000000000018af4                uuid_setting
 .tbl.settings.10
                0x0000000000018b08       0x14 bin/blib.a(dhcp.o)
                0x0000000000018b08                user_class_setting
 .tbl.settings.10
                0x0000000000018b1c       0x50 bin/blib.a(smbios_settings.o)
                0x0000000000018b1c                smbios_predefined_settings
 .tbl.settings.11
                0x0000000000018b6c       0x28 bin/blib.a(settings.o)
                0x0000000000018b6c                password_setting
                0x0000000000018b80                username_setting
 .tbl.settings.12
                0x0000000000018b94       0x28 bin/blib.a(iscsi.o)
                0x0000000000018b94                reverse_password_setting
                0x0000000000018ba8                reverse_username_setting
 .tbl.settings.14
                0x0000000000018bbc       0x64 bin/blib.a(settings.o)
                0x0000000000018bbc                version_setting
                0x0000000000018bd0                platform_setting
                0x0000000000018be4                buildarch_setting
                0x0000000000018bf8                errno_setting
                0x0000000000018c0c                priority_setting
 .tbl.settings.14
                0x0000000000018c20       0x14 bin/blib.a(dhcp.o)
                0x0000000000018c20                dhcp_server_setting
 .tbl.settings.14
                0x0000000000018c34       0x14 bin/blib.a(autoboot.o)
                0x0000000000018c34                scriptlet_setting
 .tbl.settings.99
                0x0000000000018c48        0x0 bin/blib.a(settings.o)
 .tbl.settings.99
                0x0000000000018c48        0x0 bin/blib.a(settings_ui.o)
 .tbl.settings_applicators.00
                0x0000000000018c48        0x0 bin/blib.a(settings.o)
 .tbl.settings_applicators.01
                0x0000000000018c48        0x4 bin/blib.a(ipv4.o)
                0x0000000000018c48                ipv4_settings_applicator
 .tbl.settings_applicators.01
                0x0000000000018c4c        0x4 bin/blib.a(dns.o)
                0x0000000000018c4c                dns_applicator
 .tbl.settings_applicators.01
                0x0000000000018c50        0x4 bin/blib.a(tftp.o)
                0x0000000000018c50                tftp_settings_applicator
 .tbl.settings_applicators.99
                0x0000000000018c54        0x0 bin/blib.a(settings.o)
 .tbl.sockaddr_converters.00
                0x0000000000018c54        0x0 bin/blib.a(socket.o)
 .tbl.sockaddr_converters.01
                0x0000000000018c54        0xc bin/blib.a(ipv4.o)
                0x0000000000018c54                ipv4_sockaddr_converter
 .tbl.sockaddr_converters.99
                0x0000000000018c60        0x0 bin/blib.a(socket.o)
 .tbl.socket_openers.00
                0x0000000000018c60        0x0 bin/blib.a(open.o)
 .tbl.socket_openers.01
                0x0000000000018c60       0x18 bin/blib.a(udp.o)
                0x0000000000018c60                udp_ipv6_socket_opener
                0x0000000000018c6c                udp_ipv4_socket_opener
 .tbl.socket_openers.01
                0x0000000000018c78       0x18 bin/blib.a(tcp.o)
                0x0000000000018c78                tcp_ipv6_socket_opener
                0x0000000000018c84                tcp_ipv4_socket_opener
 .tbl.socket_openers.99
                0x0000000000018c90        0x0 bin/blib.a(open.o)
 .tbl.startup_fns.00
                0x0000000000018c90        0x0 bin/blib.a(init.o)
 .tbl.startup_fns.01
                0x0000000000018c90        0x8 bin/blib.a(malloc.o)
                0x0000000000018c90                heap_startup_fn
 .tbl.startup_fns.01
                0x0000000000018c98        0x8 bin/blib.a(tcp.o)
                0x0000000000018c98                tcp_startup_fn
 .tbl.startup_fns.01
                0x0000000000018ca0        0x8 bin/blib.a(hidemem.o)
                0x0000000000018ca0                hide_etherboot_startup_fn
 .tbl.startup_fns.02
                0x0000000000018ca8        0x8 bin/blib.a(device.o)
                0x0000000000018ca8                startup_devices
 .tbl.startup_fns.03
                0x0000000000018cb0        0x8 bin/blib.a(initrd.o)
                0x0000000000018cb0                startup_initrd
 .tbl.startup_fns.99
                0x0000000000018cb8        0x0 bin/blib.a(init.o)
 .tbl.tcpip_net_protocols.00
                0x0000000000018cb8        0x0 bin/blib.a(tcpip.o)
 .tbl.tcpip_net_protocols.01
                0x0000000000018cb8        0xc bin/blib.a(ipv4.o)
                0x0000000000018cb8                ipv4_tcpip_protocol
 .tbl.tcpip_net_protocols.99
                0x0000000000018cc4        0x0 bin/blib.a(tcpip.o)
 .tbl.tcpip_protocols.00
                0x0000000000018cc4        0x0 bin/blib.a(tcpip.o)
 .tbl.tcpip_protocols.01
                0x0000000000018cc4        0xc bin/blib.a(udp.o)
                0x0000000000018cc4                udp_protocol
 .tbl.tcpip_protocols.01
                0x0000000000018cd0        0xc bin/blib.a(icmpv4.o)
                0x0000000000018cd0                icmpv4_protocol
 .tbl.tcpip_protocols.01
                0x0000000000018cdc        0xc bin/blib.a(tcp.o)
                0x0000000000018cdc                tcp_protocol
 .tbl.tcpip_protocols.99
                0x0000000000018ce8        0x0 bin/blib.a(tcpip.o)
 .tbl.uri_openers.00
                0x0000000000018ce8        0x0 bin/blib.a(open.o)
 .tbl.uri_openers.01
                0x0000000000018ce8        0x8 bin/blib.a(udp.o)
                0x0000000000018ce8                udp_uri_opener
 .tbl.uri_openers.01
                0x0000000000018cf0        0x8 bin/blib.a(http.o)
                0x0000000000018cf0                http_uri_opener
 .tbl.uri_openers.01
                0x0000000000018cf8        0x8 bin/blib.a(iscsi.o)
                0x0000000000018cf8                iscsi_uri_opener
 .tbl.uri_openers.01
                0x0000000000018d00       0x20 bin/blib.a(tftp.o)
                0x0000000000018d00                mtftp_uri_opener
                0x0000000000018d08                tftm_uri_opener
                0x0000000000018d10                tftpsize_uri_opener
                0x0000000000018d18                tftp_uri_opener
 .tbl.uri_openers.01
                0x0000000000018d20        0x8 bin/blib.a(aoe.o)
                0x0000000000018d20                aoe_uri_opener
 .tbl.uri_openers.01
                0x0000000000018d28        0x8 bin/blib.a(tcp.o)
                0x0000000000018d28                tcp_uri_opener
 .tbl.uri_openers.99
                0x0000000000018d30        0x0 bin/blib.a(open.o)
 *(.provided)
 .provided      0x0000000000018d30        0x0 bin/blib.a(realtek.o)
                0x0000000000018d30                obj_realtek
                0x0000000000018d30                __licence__gpl2_or_later__realtek
                0x0000000000018d30                __licence__bsd3__realtek
                0x0000000000018d30                __licence__gpl2_only__realtek
 .provided      0x0000000000018d30        0x0 bin/blib.a(nvs.o)
                0x0000000000018d30                __licence__gpl2_or_later__nvs
                0x0000000000018d30                obj_nvs
                0x0000000000018d30                __licence__gpl2_only__nvs
 .provided      0x0000000000018d30        0x0 bin/blib.a(threewire.o)
                0x0000000000018d30                __licence__gpl2_only__threewire
                0x0000000000018d30                obj_threewire
                0x0000000000018d30                __licence__gpl2_or_later__threewire
 .provided      0x0000000000018d30        0x0 bin/blib.a(spi_bit.o)
                0x0000000000018d30                obj_spi_bit
                0x0000000000018d30                __licence__gpl2_or_later__spi_bit
                0x0000000000018d30                __licence__gpl2_only__spi_bit
 .provided      0x0000000000018d30        0x0 bin/blib.a(config.o)
                0x0000000000018d30                __licence__gpl2_or_later__config
                0x0000000000018d30                obj_config
 .provided      0x0000000000018d30        0x0 bin/blib.a(timer2.o)
                0x0000000000018d30                obj_timer2
                0x0000000000018d30                __licence__gpl2_or_later__timer2
                0x0000000000018d30                __licence__gpl2_only__timer2
 .provided      0x0000000000018d30        0x0 bin/blib.a(bios_console.o)
                0x0000000000018d30                __licence__gpl2_or_later__bios_console
                0x0000000000018d30                __licence__gpl2_only__bios_console
                0x0000000000018d30                obj_bios_console
 .provided      0x0000000000018d30        0x0 bin/blib.a(bzimage.o)
                0x0000000000018d30                obj_bzimage
                0x0000000000018d30                __licence__gpl2_or_later__bzimage
                0x0000000000018d30                __licence__gpl2_only__bzimage
 .provided      0x0000000000018d30        0x0 bin/blib.a(elfboot.o)
                0x0000000000018d30                __licence__gpl2_or_later__elfboot
                0x0000000000018d30                __licence__gpl2_only__elfboot
                0x0000000000018d30                obj_elfboot
 .provided      0x0000000000018d30        0x0 bin/blib.a(initrd.o)
                0x0000000000018d30                obj_initrd
                0x0000000000018d30                __licence__gpl2_only__initrd
                0x0000000000018d30                __licence__gpl2_or_later__initrd
 .provided      0x0000000000018d30        0x0 bin/blib.a(multiboot.o)
                0x0000000000018d30                __licence__gpl2_only__multiboot
                0x0000000000018d30                __licence__gpl2_or_later__multiboot
                0x0000000000018d30                obj_multiboot
 .provided      0x0000000000018d30        0x0 bin/blib.a(pxe_image.o)
                0x0000000000018d30                __licence__gpl2_only__pxe_image
                0x0000000000018d30                __licence__gpl2_or_later__pxe_image
                0x0000000000018d30                obj_pxe_image
 .provided      0x0000000000018d30        0x0 bin/blib.a(pxe_call.o)
                0x0000000000018d30                __licence__gpl2_only__pxe_call
                0x0000000000018d30                __licence__gpl2_or_later__pxe_call
                0x0000000000018d30                obj_pxe_call
 .provided      0x0000000000018d30        0x0 bin/blib.a(pxe_file.o)
                0x0000000000018d30                __licence__gpl2_or_later__pxe_file
                0x0000000000018d30                __licence__gpl2_only__pxe_file
                0x0000000000018d30                obj_pxe_file
 .provided      0x0000000000018d30        0x0 bin/blib.a(pxe_loader.o)
                0x0000000000018d30                obj_pxe_loader
                0x0000000000018d30                __licence__gpl2_or_later__pxe_loader
                0x0000000000018d30                __licence__gpl2_only__pxe_loader
 .provided      0x0000000000018d30        0x0 bin/blib.a(pxe_preboot.o)
                0x0000000000018d30                __licence__gpl2_or_later__pxe_preboot
                0x0000000000018d30                obj_pxe_preboot
                0x0000000000018d30                __licence__gpl2_only__pxe_preboot
 .provided      0x0000000000018d30        0x0 bin/blib.a(pxe_tftp.o)
                0x0000000000018d30                __licence__gpl2_or_later__pxe_tftp
                0x0000000000018d30                __licence__gpl2_only__pxe_tftp
                0x0000000000018d30                obj_pxe_tftp
 .provided      0x0000000000018d30        0x0 bin/blib.a(pxe_udp.o)
                0x0000000000018d30                obj_pxe_udp
                0x0000000000018d30                __licence__gpl2_only__pxe_udp
                0x0000000000018d30                __licence__gpl2_or_later__pxe_udp
 .provided      0x0000000000018d30        0x0 bin/blib.a(pxe_undi.o)
                0x0000000000018d30                obj_pxe_undi
                0x0000000000018d30                __licence__gpl2_or_later__pxe_undi
                0x0000000000018d30                __licence__gpl2_only__pxe_undi
 .provided      0x0000000000018d30        0x0 bin/blib.a(x86_string.o)
                0x0000000000018d30                __licence__gpl2_or_later__x86_string
                0x0000000000018d30                obj_x86_string
                0x0000000000018d30                __licence__gpl2_only__x86_string
 .provided      0x0000000000018d30        0x0 bin/blib.a(cpuid_cmd.o)
                0x0000000000018d30                obj_cpuid_cmd
                0x0000000000018d30                __licence__gpl2_or_later__cpuid_cmd
                0x0000000000018d30                __licence__gpl2_only__cpuid_cmd
 .provided      0x0000000000018d30        0x0 bin/blib.a(setjmp.o)
                0x0000000000018d30                __licence__gpl2_or_later__setjmp
                0x0000000000018d30                obj_setjmp
 .provided      0x0000000000018d30        0x0 bin/blib.a(virtaddr.o)
                0x0000000000018d30                obj_virtaddr
                0x0000000000018d30                __licence__gpl2_or_later__virtaddr
 .provided      0x0000000000018d30        0x0 bin/blib.a(librm.o)
                0x0000000000018d30                __licence__gpl2_or_later__librm
                0x0000000000018d30                obj_librm
 .provided      0x0000000000018d30        0x0 bin/blib.a(libprefix.o)
                0x0000000000018d30                __licence__gpl2_or_later(long, int, bool, long double *,...)(float, int, long long)
                0x0000000000018d30                obj_libprefix
 .provided      0x0000000000018d30        0x0 bin/blib.a(romprefix.o)
                0x0000000000018d30                __licence__gpl2_or_later__romprefix
                0x0000000000018d30                obj_romprefix
 .provided      0x0000000000018d30        0x0 bin/blib.a(unnrv2b16.o)
                0x0000000000018d30                obj_unnrv2b16
                0x0000000000018d30                __licence__gpl2_or_later__unnrv2b16
 .provided      0x0000000000018d30        0x0 bin/blib.a(pxe_entry.o)
                0x0000000000018d30                __licence__gpl2_or_later__pxe_entry
                0x0000000000018d30                obj_pxe_entry
 .provided      0x0000000000018d30        0x0 bin/blib.a(ansiesc.o)
                0x0000000000018d30                obj_ansiesc
                0x0000000000018d30                __licence__gpl2_only__ansiesc
                0x0000000000018d30                __licence__gpl2_or_later__ansiesc
 .provided      0x0000000000018d30        0x0 bin/blib.a(cpio.o)
                0x0000000000018d30                __licence__gpl2_or_later__cpio
                0x0000000000018d30                __licence__gpl2_only__cpio
                0x0000000000018d30                obj_cpio
 .provided      0x0000000000018d30        0x0 bin/blib.a(device.o)
                0x0000000000018d30                __licence__gpl2_or_later(double,...)(void, int, char,...)
                0x0000000000018d30                __licence__gpl2_only(double,...)(void, int, char,...)
                0x0000000000018d30                obj_device
 .provided      0x0000000000018d30        0x0 bin/blib.a(exec.o)
                0x0000000000018d30                __licence__gpl2_only(...)(long long,...)(char)
                0x0000000000018d30                obj_exec
                0x0000000000018d30                __licence__gpl2_or_later(...)(long long,...)(char)
 .provided      0x0000000000018d30        0x0 bin/blib.a(getopt.o)
                0x0000000000018d30                __licence__gpl2_only__getopt
                0x0000000000018d30                __licence__gpl2_or_later__getopt
                0x0000000000018d30                obj_getopt
 .provided      0x0000000000018d30        0x0 bin/blib.a(image.o)
                0x0000000000018d30                obj_image
                0x0000000000018d30                __licence__gpl2_only__image
                0x0000000000018d30                __licence__gpl2_or_later__image
 .provided      0x0000000000018d30        0x0 bin/blib.a(init.o)
                0x0000000000018d30                __licence__gpl2_or_later__init
                0x0000000000018d30                __licence__gpl2_only__init
                0x0000000000018d30                obj_init
 .provided      0x0000000000018d30        0x0 bin/blib.a(interface.o)
                0x0000000000018d30                __licence__gpl2_only__interface
                0x0000000000018d30                obj_interface
                0x0000000000018d30                __licence__gpl2_or_later__interface
 .provided      0x0000000000018d30        0x0 bin/blib.a(iobuf.o)
                0x0000000000018d30                __licence__gpl2_or_later__iobuf
                0x0000000000018d30                __licence__gpl2_only__iobuf
                0x0000000000018d30                obj_iobuf
                0x0000000000018d30                __licence__bsd3__iobuf
 .provided      0x0000000000018d30        0x0 bin/blib.a(list.o)
                0x0000000000018d30                obj_list
                0x0000000000018d30                __licence__gpl2_or_later__list
                0x0000000000018d30                __licence__gpl2_only__list
 .provided      0x0000000000018d30        0x0 bin/blib.a(main.o)
                0x0000000000018d30                __licence__gpl2_or_later__main
                0x0000000000018d30                obj_main
                0x0000000000018d30                __licence__gpl2_only__main
 .provided      0x0000000000018d30        0x0 bin/blib.a(malloc.o)
                0x0000000000018d30                __licence__gpl2_or_later__malloc
                0x0000000000018d30                obj_malloc
                0x0000000000018d30                __licence__bsd3__malloc
                0x0000000000018d30                __licence__gpl2_only__malloc
 .provided      0x0000000000018d30        0x0 bin/blib.a(memblock.o)
                0x0000000000018d30                __licence__gpl2_or_later__memblock
                0x0000000000018d30                __licence__gpl2_only__memblock
                0x0000000000018d30                obj_memblock
 .provided      0x0000000000018d30        0x0 bin/blib.a(misc.o)
                0x0000000000018d30                __licence__gpl2_or_later__misc
                0x0000000000018d30                obj_misc
 .provided      0x0000000000018d30        0x0 bin/blib.a(nvo.o)
                0x0000000000018d30                obj_nvo
                0x0000000000018d30                __licence__gpl2_only__nvo
                0x0000000000018d30                __licence__gpl2_or_later__nvo
 .provided      0x0000000000018d30        0x0 bin/blib.a(open.o)
                0x0000000000018d30                __licence__gpl2_or_later__open
                0x0000000000018d30                obj_open
                0x0000000000018d30                __licence__gpl2_only__open
 .provided      0x0000000000018d30        0x0 bin/blib.a(parseopt.o)
                0x0000000000018d30                __licence__gpl2_only__parseopt
                0x0000000000018d30                obj_parseopt
                0x0000000000018d30                __licence__gpl2_or_later__parseopt
 .provided      0x0000000000018d30        0x0 bin/blib.a(posix_io.o)
                0x0000000000018d30                __licence__gpl2_or_later__posix_io
                0x0000000000018d30                __licence__gpl2_only__posix_io
                0x0000000000018d30                obj_posix_io
 .provided      0x0000000000018d30        0x0 bin/blib.a(process.o)
                0x0000000000018d30                __licence__gpl2_only__process
                0x0000000000018d30                __licence__gpl2_or_later__process
                0x0000000000018d30                obj_process
 .provided      0x0000000000018d30        0x0 bin/blib.a(refcnt.o)
                0x0000000000018d30                obj_refcnt
                0x0000000000018d30                __licence__gpl2_or_later__refcnt
                0x0000000000018d30                __licence__gpl2_only__refcnt
 .provided      0x0000000000018d30        0x0 bin/blib.a(settings.o)
                0x0000000000018d30                __licence__gpl2_only__settings
                0x0000000000018d30                __licence__gpl2_or_later__settings
                0x0000000000018d30                obj_settings
 .provided      0x0000000000018d30        0x0 bin/blib.a(string.o)
                0x0000000000018d30                __licence__gpl2_only__string
                0x0000000000018d30                obj_string
                0x0000000000018d30                __licence__gpl2_or_later__string
 .provided      0x0000000000018d30        0x0 bin/blib.a(timer.o)
                0x0000000000018d30                obj_timer
                0x0000000000018d30                __licence__gpl2_only__timer
                0x0000000000018d30                __licence__gpl2_or_later__timer
 .provided      0x0000000000018d30        0x0 bin/blib.a(uri.o)
                0x0000000000018d30                __licence__gpl2_only(long double, int) __restrict
                0x0000000000018d30                obj_uri
                0x0000000000018d30                __licence__gpl2_or_later(long double, int) __restrict
 .provided      0x0000000000018d30        0x0 bin/blib.a(uuid.o)
                0x0000000000018d30                obj_uuid
                0x0000000000018d30                __licence__gpl2_or_later(int, double) __restrict
 .provided      0x0000000000018d30        0x0 bin/blib.a(version.o)
                0x0000000000018d30                __licence__gpl2_only__version
                0x0000000000018d30                obj_version
                0x0000000000018d30                __licence__gpl2_or_later__version
 .provided      0x0000000000018d30        0x0 bin/blib.a(vsprintf.o)
                0x0000000000018d30                __licence__gpl2_only__vsprintf
                0x0000000000018d30                __licence__gpl2_or_later__vsprintf
                0x0000000000018d30                obj_vsprintf
 .provided      0x0000000000018d30        0x0 bin/blib.a(xfer.o)
                0x0000000000018d30                obj_xfer
                0x0000000000018d30                __licence__gpl2_or_later(long long, float,...)(long double)
                0x0000000000018d30                __licence__gpl2_only(long long, float,...)(long double)
 .provided      0x0000000000018d30        0x0 bin/blib.a(arp.o)
                0x0000000000018d30                __licence__gpl2_only__arp
                0x0000000000018d30                __licence__gpl2_or_later__arp
                0x0000000000018d30                obj_arp
 .provided      0x0000000000018d30        0x0 bin/blib.a(dhcpopts.o)
                0x0000000000018d30                __licence__gpl2_only__dhcpopts
                0x0000000000018d30                __licence__gpl2_or_later__dhcpopts
                0x0000000000018d30                obj_dhcpopts
 .provided      0x0000000000018d30        0x0 bin/blib.a(ethernet.o)
                0x0000000000018d30                __licence__gpl2_or_later__ethernet
                0x0000000000018d30                obj_ethernet
                0x0000000000018d30                __licence__gpl2_only__ethernet
 .provided      0x0000000000018d30        0x0 bin/blib.a(eth_slow.o)
                0x0000000000018d30                __licence__gpl2_or_later__eth_slow
                0x0000000000018d30                obj_eth_slow
                0x0000000000018d30                __licence__gpl2_only__eth_slow
 .provided      0x0000000000018d30        0x0 bin/blib.a(fakedhcp.o)
                0x0000000000018d30                __licence__gpl2_or_later__fakedhcp
                0x0000000000018d30                obj_fakedhcp
                0x0000000000018d30                __licence__gpl2_only__fakedhcp
 .provided      0x0000000000018d30        0x0 bin/blib.a(iobpad.o)
                0x0000000000018d30                obj_iobpad
                0x0000000000018d30                __licence__gpl2_only__iobpad
                0x0000000000018d30                __licence__gpl2_or_later__iobpad
 .provided      0x0000000000018d30        0x0 bin/blib.a(ipv4.o)
                0x0000000000018d30                __licence__gpl2_or_later__ipv4
                0x0000000000018d30                __licence__gpl2_only__ipv4
                0x0000000000018d30                obj_ipv4
 .provided      0x0000000000018d30        0x0 bin/blib.a(neighbour.o)
                0x0000000000018d30                obj_neighbour
                0x0000000000018d30                __licence__gpl2_only__neighbour
                0x0000000000018d30                __licence__gpl2_or_later__neighbour
                0x0000000000018d30                __licence__bsd3__neighbour
 .provided      0x0000000000018d30        0x0 bin/blib.a(netdevice.o)
                0x0000000000018d30                __licence__gpl2_or_later__netdevice
                0x0000000000018d30                __licence__gpl2_only__netdevice
                0x0000000000018d30                __licence__bsd3__netdevice
                0x0000000000018d30                obj_netdevice
 .provided      0x0000000000018d30        0x0 bin/blib.a(netdev_settings.o)
                0x0000000000018d30                __licence__gpl2_only__netdev_settings
                0x0000000000018d30                __licence__gpl2_or_later__netdev_settings
                0x0000000000018d30                obj_netdev_settings
 .provided      0x0000000000018d30        0x0 bin/blib.a(nullnet.o)
                0x0000000000018d30                __licence__gpl2_or_later__nullnet
                0x0000000000018d30                __licence__gpl2_only__nullnet
                0x0000000000018d30                obj_nullnet
 .provided      0x0000000000018d30        0x0 bin/blib.a(rarp.o)
                0x0000000000018d30                __licence__gpl2_only__rarp
                0x0000000000018d30                obj_rarp
                0x0000000000018d30                __licence__gpl2_or_later__rarp
 .provided      0x0000000000018d30        0x0 bin/blib.a(retry.o)
                0x0000000000018d30                obj_retry
                0x0000000000018d30                __licence__gpl2_or_later__retry
                0x0000000000018d30                __licence__gpl2_only__retry
 .provided      0x0000000000018d30        0x0 bin/blib.a(tcpip.o)
                0x0000000000018d30                obj_tcpip
                0x0000000000018d30                __licence__gpl2_or_later__tcpip
                0x0000000000018d30                __licence__gpl2_only__tcpip
 .provided      0x0000000000018d30        0x0 bin/blib.a(udp.o)
                0x0000000000018d30                obj_udp
                0x0000000000018d30                __licence__gpl2_or_later(double,  *) __restrict
                0x0000000000018d30                __licence__gpl2_only(double,  *) __restrict
 .provided      0x0000000000018d30        0x0 bin/blib.a(http.o)
                0x0000000000018d30                __licence__gpl2_only__http
                0x0000000000018d30                __licence__gpl2_or_later__http
                0x0000000000018d30                obj_http
 .provided      0x0000000000018d30        0x0 bin/blib.a(httpcore.o)
                0x0000000000018d30                obj_httpcore
                0x0000000000018d30                __licence__gpl2_or_later__httpcore
                0x0000000000018d30                __licence__gpl2_only__httpcore
 .provided      0x0000000000018d30        0x0 bin/blib.a(iscsi.o)
                0x0000000000018d30                __licence__gpl2_only(int, short, char, short, int)
                0x0000000000018d30                __licence__gpl2_or_later(int, short, char, short, int)
                0x0000000000018d30                __licence(bool, short, double, __, int, short, char, short, int)
                0x0000000000018d30                obj_iscsi
 .provided      0x0000000000018d30        0x0 bin/blib.a(dhcp.o)
                0x0000000000018d30                __licence__gpl2_or_later__dhcp
                0x0000000000018d30                __licence__gpl2_only__dhcp
                0x0000000000018d30                obj_dhcp
 .provided      0x0000000000018d30        0x0 bin/blib.a(dns.o)
                0x0000000000018d30                __licence__gpl2_or_later__dns
                0x0000000000018d30                obj_dns
                0x0000000000018d30                __licence__gpl2_only__dns
 .provided      0x0000000000018d30        0x0 bin/blib.a(tftp.o)
                0x0000000000018d30                __licence__gpl2_or_later__tftp
                0x0000000000018d30                __licence__gpl2_only__tftp
                0x0000000000018d30                obj_tftp
 .provided      0x0000000000018d30        0x0 bin/blib.a(elf.o)
                0x0000000000018d30                obj_elf
                0x0000000000018d30                __licence__gpl2_only(...)(long, float)
                0x0000000000018d30                __licence__gpl2_or_later(...)(long, float)
 .provided      0x0000000000018d30        0x0 bin/blib.a(embedded.o)
                0x0000000000018d30                obj_embedded
                0x0000000000018d30                __licence__gpl2_only__embedded
                0x0000000000018d30                __licence__gpl2_or_later__embedded
 .provided      0x0000000000018d30        0x0 bin/blib.a(script.o)
                0x0000000000018d30                __licence__gpl2_or_later__script
                0x0000000000018d30                obj_script
                0x0000000000018d30                __licence__gpl2_only__script
 .provided      0x0000000000018d30        0x0 bin/blib.a(segment.o)
                0x0000000000018d30                obj_segment
                0x0000000000018d30                __licence__gpl2_or_later__segment
                0x0000000000018d30                __licence__gpl2_only__segment
 .provided      0x0000000000018d30        0x0 bin/blib.a(pci.o)
                0x0000000000018d30                obj_pci
                0x0000000000018d30                __licence__gpl2_or_later(char *, int)
                0x0000000000018d30                __licence__gpl2_only(char *, int)
 .provided      0x0000000000018d30        0x0 bin/blib.a(pci_settings.o)
                0x0000000000018d30                __licence__gpl2_only__pci_settings
                0x0000000000018d30                __licence__gpl2_or_later__pci_settings
                0x0000000000018d30                obj_pci_settings
 .provided      0x0000000000018d30        0x0 bin/blib.a(mii.o)
                0x0000000000018d30                __licence__gpl2_only__mii
                0x0000000000018d30                obj_mii
                0x0000000000018d30                __licence__gpl2_or_later__mii
 .provided      0x0000000000018d30        0x0 bin/blib.a(ibft.o)
                0x0000000000018d30                __licence__gpl2_or_later__ibft
                0x0000000000018d30                __licence__bsd2__ibft
                0x0000000000018d30                obj_ibft
                0x0000000000018d30                __licence__gpl2_only__ibft
 .provided      0x0000000000018d30        0x0 bin/blib.a(scsi.o)
                0x0000000000018d30                __licence__gpl2_or_later(short, char, short, int)
                0x0000000000018d30                obj_scsi
                0x0000000000018d30                __licence__gpl2_only(short, char, short, int)
 .provided      0x0000000000018d30        0x0 bin/blib.a(bitbash.o)
                0x0000000000018d30                __licence__gpl2_or_later__bitbash
                0x0000000000018d30                obj_bitbash
 .provided      0x0000000000018d30        0x0 bin/blib.a(smbios_settings.o)
                0x0000000000018d30                obj_smbios_settings
                0x0000000000018d30                __licence__gpl2_only__smbios_settings
                0x0000000000018d30                __licence__gpl2_or_later__smbios_settings
 .provided      0x0000000000018d30        0x0 bin/blib.a(chap.o)
                0x0000000000018d30                obj_chap
                0x0000000000018d30                __licence__gpl2_only__chap
                0x0000000000018d30                __licence__gpl2_or_later__chap
 .provided      0x0000000000018d30        0x0 bin/blib.a(md5.o)
                0x0000000000018d30                obj_md5
                0x0000000000018d30                __licence__gpl2_or_later__md5
                0x0000000000018d30                __licence__gpl2_only__md5
 .provided      0x0000000000018d30        0x0 bin/blib.a(strerror.o)
                0x0000000000018d30                obj_strerror
                0x0000000000018d30                __licence__gpl2_or_later__strerror
                0x0000000000018d30                __licence__gpl2_only__strerror
 .provided      0x0000000000018d30        0x0 bin/blib.a(autoboot_cmd.o)
                0x0000000000018d30                __licence__gpl2_or_later__autoboot_cmd
                0x0000000000018d30                obj_autoboot_cmd
                0x0000000000018d30                __licence__gpl2_only__autoboot_cmd
 .provided      0x0000000000018d30        0x0 bin/blib.a(config_cmd.o)
                0x0000000000018d30                obj_config_cmd
                0x0000000000018d30                __licence__gpl2_only__config_cmd
                0x0000000000018d30                __licence__gpl2_or_later__config_cmd
 .provided      0x0000000000018d30        0x0 bin/blib.a(dhcp_cmd.o)
                0x0000000000018d30                obj_dhcp_cmd
                0x0000000000018d30                __licence__gpl2_or_later__dhcp_cmd
                0x0000000000018d30                __licence__gpl2_only__dhcp_cmd
 .provided      0x0000000000018d30        0x0 bin/blib.a(ifmgmt_cmd.o)
                0x0000000000018d30                obj_ifmgmt_cmd
                0x0000000000018d30                __licence__gpl2_or_later__ifmgmt_cmd
                0x0000000000018d30                __licence__gpl2_only__ifmgmt_cmd
 .provided      0x0000000000018d30        0x0 bin/blib.a(image_cmd.o)
                0x0000000000018d30                obj_image_cmd
                0x0000000000018d30                __licence__gpl2_or_later__image_cmd
                0x0000000000018d30                __licence__gpl2_only__image_cmd
 .provided      0x0000000000018d30        0x0 bin/blib.a(login_cmd.o)
                0x0000000000018d30                obj_login_cmd
                0x0000000000018d30                __licence__gpl2_only__login_cmd
                0x0000000000018d30                __licence__gpl2_or_later__login_cmd
 .provided      0x0000000000018d30        0x0 bin/blib.a(menu_cmd.o)
                0x0000000000018d30                obj_menu_cmd
                0x0000000000018d30                __licence__gpl2_or_later__menu_cmd
                0x0000000000018d30                __licence__gpl2_only__menu_cmd
 .provided      0x0000000000018d30        0x0 bin/blib.a(nvo_cmd.o)
                0x0000000000018d30                obj_nvo_cmd
                0x0000000000018d30                __licence__gpl2_or_later__nvo_cmd
                0x0000000000018d30                __licence__gpl2_only__nvo_cmd
 .provided      0x0000000000018d30        0x0 bin/blib.a(reboot_cmd.o)
                0x0000000000018d30                __licence__gpl2_only__reboot_cmd
                0x0000000000018d30                obj_reboot_cmd
                0x0000000000018d30                __licence__gpl2_or_later__reboot_cmd
 .provided      0x0000000000018d30        0x0 bin/blib.a(route_cmd.o)
                0x0000000000018d30                __licence__gpl2_or_later__route_cmd
                0x0000000000018d30                __licence__gpl2_only__route_cmd
                0x0000000000018d30                obj_route_cmd
 .provided      0x0000000000018d30        0x0 bin/blib.a(sanboot_cmd.o)
                0x0000000000018d30                __licence__gpl2_only__sanboot_cmd
                0x0000000000018d30                __licence__gpl2_or_later__sanboot_cmd
                0x0000000000018d30                obj_sanboot_cmd
 .provided      0x0000000000018d30        0x0 bin/blib.a(sync_cmd.o)
                0x0000000000018d30                __licence__gpl2_or_later__sync_cmd
                0x0000000000018d30                obj_sync_cmd
                0x0000000000018d30                __licence__gpl2_only__sync_cmd
 .provided      0x0000000000018d30        0x0 bin/blib.a(login_ui.o)
                0x0000000000018d30                __licence__gpl2_or_later__login_ui
                0x0000000000018d30                obj_login_ui
                0x0000000000018d30                __licence__gpl2_only__login_ui
 .provided      0x0000000000018d30        0x0 bin/blib.a(menu_ui.o)
                0x0000000000018d30                __licence__gpl2_or_later__menu_ui
                0x0000000000018d30                obj_menu_ui
                0x0000000000018d30                __licence__gpl2_only__menu_ui
 .provided      0x0000000000018d30        0x0 bin/blib.a(settings_ui.o)
                0x0000000000018d30                obj_settings_ui
                0x0000000000018d30                __licence__gpl2_only__settings_ui
                0x0000000000018d30                __licence__gpl2_or_later__settings_ui
 .provided      0x0000000000018d30        0x0 bin/blib.a(ansi_screen.o)
                0x0000000000018d30                __licence__gpl2_or_later__ansi_screen
                0x0000000000018d30                obj_ansi_screen
 .provided      0x0000000000018d30        0x0 bin/blib.a(clear.o)
                0x0000000000018d30                obj_clear
                0x0000000000018d30                __licence__gpl2_or_later__clear
 .provided      0x0000000000018d30        0x0 bin/blib.a(colour.o)
                0x0000000000018d30                obj_colour
                0x0000000000018d30                __licence__gpl2_or_later__colour
 .provided      0x0000000000018d30        0x0 bin/blib.a(mucurses.o)
                0x0000000000018d30                __licence__gpl2_or_later__mucurses
                0x0000000000018d30                obj_mucurses
 .provided      0x0000000000018d30        0x0 bin/blib.a(print.o)
                0x0000000000018d30                obj_print
                0x0000000000018d30                __licence__gpl2_only__print
                0x0000000000018d30                __licence__gpl2_or_later__print
 .provided      0x0000000000018d30        0x0 bin/blib.a(winattrs.o)
                0x0000000000018d30                obj_winattrs
                0x0000000000018d30                __licence__gpl2_or_later__winattrs
 .provided      0x0000000000018d30        0x0 bin/blib.a(wininit.o)
                0x0000000000018d30                obj_wininit
                0x0000000000018d30                __licence__gpl2_or_later__wininit
                0x0000000000018d30                __licence__gpl2_only__wininit
 .provided      0x0000000000018d30        0x0 bin/blib.a(editbox.o)
                0x0000000000018d30                __licence__gpl2_or_later__editbox
                0x0000000000018d30                obj_editbox
                0x0000000000018d30                __licence__gpl2_only__editbox
 .provided      0x0000000000018d30        0x0 bin/blib.a(keymap_us.o)
                0x0000000000018d30                __licence__public_domain__keymap_us
                0x0000000000018d30                obj_keymap_us
                0x0000000000018d30                __licence__gpl2_or_later__keymap_us
 .provided      0x0000000000018d30        0x0 bin/blib.a(autoboot.o)
                0x0000000000018d30                __licence__gpl2_only__autoboot
                0x0000000000018d30                obj_autoboot
                0x0000000000018d30                __licence__gpl2_or_later__autoboot
 .provided      0x0000000000018d30        0x0 bin/blib.a(dhcpmgmt.o)
                0x0000000000018d30                __licence__gpl2_only__dhcpmgmt
                0x0000000000018d30                __licence__gpl2_or_later__dhcpmgmt
                0x0000000000018d30                obj_dhcpmgmt
 .provided      0x0000000000018d30        0x0 bin/blib.a(ifmgmt.o)
                0x0000000000018d30                __licence__gpl2_or_later__ifmgmt
                0x0000000000018d30                __licence__gpl2_only__ifmgmt
                0x0000000000018d30                obj_ifmgmt
 .provided      0x0000000000018d30        0x0 bin/blib.a(imgmgmt.o)
                0x0000000000018d30                __licence__gpl2_only__imgmgmt
                0x0000000000018d30                __licence__gpl2_or_later__imgmgmt
                0x0000000000018d30                obj_imgmgmt
 .provided      0x0000000000018d30        0x0 bin/blib.a(prompt.o)
                0x0000000000018d30                __licence__gpl2_or_later__prompt
                0x0000000000018d30                obj_prompt
 .provided      0x0000000000018d30        0x0 bin/blib.a(pxemenu.o)
                0x0000000000018d30                __licence__gpl2_or_later__pxemenu
                0x0000000000018d30                obj_pxemenu
                0x0000000000018d30                __licence__gpl2_only__pxemenu
 .provided      0x0000000000018d30        0x0 bin/blib.a(route.o)
                0x0000000000018d30                __licence__gpl2_only__route
                0x0000000000018d30                obj_route
                0x0000000000018d30                __licence__gpl2_or_later__route
 .provided      0x0000000000018d30        0x0 bin/blib.a(config_ethernet.o)
                0x0000000000018d30                __licence__gpl2_or_later__config_ethernet
                0x0000000000018d30                obj_config_ethernet
 .provided      0x0000000000018d30        0x0 bin/blib.a(config_romprefix.o)
                0x0000000000018d30                obj_config_romprefix
                0x0000000000018d30                __licence__gpl2_or_later__config_romprefix
 .provided      0x0000000000018d30        0x0 bin/blib.a(config_route.o)
                0x0000000000018d30                __licence__gpl2_or_later__config_route
                0x0000000000018d30                obj_config_route
 .provided      0x0000000000018d30        0x0 bin/blib.a(basemem_packet.o)
                0x0000000000018d30                __licence__gpl2_only__basemem_packet
                0x0000000000018d30                obj_basemem_packet
                0x0000000000018d30                __licence__gpl2_or_later__basemem_packet
 .provided      0x0000000000018d30        0x0 bin/blib.a(relocate.o)
                0x0000000000018d30                __licence__gpl2_or_later__relocate
                0x0000000000018d30                __licence__gpl2_only__relocate
                0x0000000000018d30                obj_relocate
 .provided      0x0000000000018d30        0x0 bin/blib.a(memmap.o)
                0x0000000000018d30                __licence__gpl2_only__memmap
                0x0000000000018d30                __licence__gpl2_or_later__memmap
                0x0000000000018d30                obj_memmap
 .provided      0x0000000000018d30        0x0 bin/blib.a(biosint.o)
                0x0000000000018d30                __licence__gpl2_or_later__biosint
                0x0000000000018d30                obj_biosint
                0x0000000000018d30                __licence__gpl2_only__biosint
 .provided      0x0000000000018d30        0x0 bin/blib.a(bios_nap.o)
                0x0000000000018d30                __licence__gpl2_only__bios_nap
                0x0000000000018d30                obj_bios_nap
                0x0000000000018d30                __licence__gpl2_or_later__bios_nap
 .provided      0x0000000000018d30        0x0 bin/blib.a(bios_reboot.o)
                0x0000000000018d30                __licence__gpl2_or_later__bios_reboot
                0x0000000000018d30                __licence__gpl2_only__bios_reboot
                0x0000000000018d30                obj_bios_reboot
 .provided      0x0000000000018d30        0x0 bin/blib.a(bios_timer.o)
                0x0000000000018d30                obj_bios_timer
                0x0000000000018d30                __licence__gpl2_or_later__bios_timer
                0x0000000000018d30                __licence__gpl2_only__bios_timer
 .provided      0x0000000000018d30        0x0 bin/blib.a(int13.o)
                0x0000000000018d30                __licence__gpl2_only__int13
                0x0000000000018d30                __licence__gpl2_or_later__int13
                0x0000000000018d30                obj_int13
 .provided      0x0000000000018d30        0x0 bin/blib.a(memtop_umalloc.o)
                0x0000000000018d30                obj_memtop_umalloc
                0x0000000000018d30                __licence__gpl2_only__memtop_umalloc
                0x0000000000018d30                __licence__gpl2_or_later__memtop_umalloc
 .provided      0x0000000000018d30        0x0 bin/blib.a(pcibios.o)
                0x0000000000018d30                obj_pcibios
                0x0000000000018d30                __licence__gpl2_or_later__pcibios
                0x0000000000018d30                __licence__gpl2_only__pcibios
 .provided      0x0000000000018d30        0x0 bin/blib.a(cpuid.o)
                0x0000000000018d30                obj_cpuid
                0x0000000000018d30                __licence__gpl2_or_later(char, int __restrict *, double)
                0x0000000000018d30                __licence__gpl2_only(char, int __restrict *, double)
 .provided      0x0000000000018d30        0x0 bin/blib.a(x86_tcpip.o)
                0x0000000000018d30                obj_x86_tcpip
                0x0000000000018d30                __licence__gpl2_or_later__x86_tcpip
 .provided      0x0000000000018d30        0x0 bin/blib.a(stack16.o)
                0x0000000000018d30                obj_stack16
                0x0000000000018d30                __licence__gpl2_or_later__stack16
 .provided      0x0000000000018d30        0x0 bin/blib.a(stack.o)
                0x0000000000018d30                obj_stack
                0x0000000000018d30                __licence__gpl2_or_later__stack
 .provided      0x0000000000018d30        0x0 bin/blib.a(liba20.o)
                0x0000000000018d30                __licence__gpl2_or_later__liba20
                0x0000000000018d30                obj_liba20
 .provided      0x0000000000018d30        0x0 bin/blib.a(undiloader.o)
                0x0000000000018d30                obj_undiloader
                0x0000000000018d30                __licence__gpl2_or_later__undiloader
 .provided      0x0000000000018d30        0x0 bin/blib.a(acpi.o)
                0x0000000000018d30                __licence__gpl2_or_later__acpi
                0x0000000000018d30                __licence__gpl2_only__acpi
                0x0000000000018d30                obj_acpi
 .provided      0x0000000000018d30        0x0 bin/blib.a(asprintf.o)
                0x0000000000018d30                __licence__gpl2_only__asprintf
                0x0000000000018d30                __licence__gpl2_or_later__asprintf
                0x0000000000018d30                obj_asprintf
 .provided      0x0000000000018d30        0x0 bin/blib.a(base16.o)
                0x0000000000018d30                obj_base16
                0x0000000000018d30                __licence__gpl2_only__base16
                0x0000000000018d30                __licence__gpl2_or_later__base16
 .provided      0x0000000000018d30        0x0 bin/blib.a(base64.o)
                0x0000000000018d30                __licence__gpl2_only__base64
                0x0000000000018d30                obj_base64
                0x0000000000018d30                __licence__gpl2_or_later__base64
 .provided      0x0000000000018d30        0x0 bin/blib.a(basename.o)
                0x0000000000018d30                obj_basename
                0x0000000000018d30                __licence__gpl2_or_later__basename
                0x0000000000018d30                __licence__gpl2_only__basename
 .provided      0x0000000000018d30        0x0 bin/blib.a(bitmap.o)
                0x0000000000018d30                obj_bitmap
                0x0000000000018d30                __licence__gpl2_only__bitmap
                0x0000000000018d30                __licence__gpl2_or_later__bitmap
 .provided      0x0000000000018d30        0x0 bin/blib.a(bitops.o)
                0x0000000000018d30                __licence__gpl2_or_later__bitops
                0x0000000000018d30                __licence__gpl2_only__bitops
                0x0000000000018d30                obj_bitops
 .provided      0x0000000000018d30        0x0 bin/blib.a(blockdev.o)
                0x0000000000018d30                obj_blockdev
                0x0000000000018d30                __licence__gpl2_or_later__blockdev
                0x0000000000018d30                __licence__gpl2_only__blockdev
 .provided      0x0000000000018d30        0x0 bin/blib.a(console.o)
                0x0000000000018d30                __licence__gpl2_or_later__console
                0x0000000000018d30                obj_console
                0x0000000000018d30                __licence__gpl2_only__console
 .provided      0x0000000000018d30        0x0 bin/blib.a(ctype.o)
                0x0000000000018d30                obj_ctype
                0x0000000000018d30                __licence__gpl2_or_later__ctype
 .provided      0x0000000000018d30        0x0 bin/blib.a(cwuri.o)
                0x0000000000018d30                __licence__gpl2_or_later(char, wchar_t, long double __restrict, int)
                0x0000000000018d30                obj_cwuri
                0x0000000000018d30                __licence__gpl2_only(char, wchar_t, long double __restrict, int)
 .provided      0x0000000000018d30        0x0 bin/blib.a(downloader.o)
                0x0000000000018d30                __licence__gpl2_or_later__downloader
                0x0000000000018d30                __licence__gpl2_only__downloader
                0x0000000000018d30                obj_downloader
 .provided      0x0000000000018d30        0x0 bin/blib.a(edd.o)
                0x0000000000018d30                obj_edd
                0x0000000000018d30                __licence__gpl2_or_later(...)(double, double)
                0x0000000000018d30                __licence__gpl2_only(...)(double, double)
 .provided      0x0000000000018d30        0x0 bin/blib.a(errno.o)
                0x0000000000018d30                __licence__gpl2_or_later__errno
                0x0000000000018d30                obj_errno
 .provided      0x0000000000018d30        0x0 bin/blib.a(getkey.o)
                0x0000000000018d30                __licence__gpl2_or_later__getkey
                0x0000000000018d30                obj_getkey
                0x0000000000018d30                __licence__gpl2_only__getkey
 .provided      0x0000000000018d30        0x0 bin/blib.a(job.o)
                0x0000000000018d30                __licence__gpl2_only__job
                0x0000000000018d30                __licence__gpl2_or_later__job
                0x0000000000018d30                obj_job
 .provided      0x0000000000018d30        0x0 bin/blib.a(linebuf.o)
                0x0000000000018d30                __licence__gpl2_only__linebuf
                0x0000000000018d30                __licence__gpl2_or_later__linebuf
                0x0000000000018d30                obj_linebuf
 .provided      0x0000000000018d30        0x0 bin/blib.a(menu.o)
                0x0000000000018d30                __licence__gpl2_or_later__menu
                0x0000000000018d30                __licence__gpl2_only__menu
                0x0000000000018d30                obj_menu
 .provided      0x0000000000018d30        0x0 bin/blib.a(monojob.o)
                0x0000000000018d30                __licence__gpl2_only__monojob
                0x0000000000018d30                obj_monojob
                0x0000000000018d30                __licence__gpl2_or_later__monojob
 .provided      0x0000000000018d30        0x0 bin/blib.a(params.o)
                0x0000000000018d30                __licence__gpl2_only__params
                0x0000000000018d30                obj_params
                0x0000000000018d30                __licence__gpl2_or_later__params
 .provided      0x0000000000018d30        0x0 bin/blib.a(pending.o)
                0x0000000000018d30                obj_pending
                0x0000000000018d30                __licence__gpl2_or_later__pending
                0x0000000000018d30                __licence__gpl2_only__pending
 .provided      0x0000000000018d30        0x0 bin/blib.a(random.o)
                0x0000000000018d30                __licence__gpl2_or_later__random
                0x0000000000018d30                obj_random
 .provided      0x0000000000018d30        0x0 bin/blib.a(resolv.o)
                0x0000000000018d30                __licence__gpl2_or_later__resolv
                0x0000000000018d30                obj_resolv
                0x0000000000018d30                __licence__gpl2_only__resolv
 .provided      0x0000000000018d30        0x0 bin/blib.a(aoe.o)
                0x0000000000018d30                __licence__gpl2_or_later__aoe
                0x0000000000018d30                obj_aoe
                0x0000000000018d30                __licence__gpl2_only__aoe
 .provided      0x0000000000018d30        0x0 bin/blib.a(dhcppkt.o)
                0x0000000000018d30                __licence__gpl2_or_later__dhcppkt
                0x0000000000018d30                obj_dhcppkt
                0x0000000000018d30                __licence__gpl2_only__dhcppkt
 .provided      0x0000000000018d30        0x0 bin/blib.a(fragment.o)
                0x0000000000018d30                __licence__gpl2_only__fragment
                0x0000000000018d30                obj_fragment
                0x0000000000018d30                __licence__gpl2_or_later__fragment
 .provided      0x0000000000018d30        0x0 bin/blib.a(icmpv4.o)
                0x0000000000018d30                obj_icmpv4
                0x0000000000018d30                __licence__gpl2_only__icmpv4
                0x0000000000018d30                __licence__gpl2_or_later__icmpv4
 .provided      0x0000000000018d30        0x0 bin/blib.a(socket.o)
                0x0000000000018d30                __licence__gpl2_or_later__socket
                0x0000000000018d30                __licence__gpl2_only__socket
                0x0000000000018d30                obj_socket
 .provided      0x0000000000018d30        0x0 bin/blib.a(tcp.o)
                0x0000000000018d30                obj_tcp
                0x0000000000018d30                __licence__gpl2_or_later__tcp
                0x0000000000018d30                __licence__gpl2_only__tcp
                0x0000000000018d30                __licence(bool, short, double, __t, char,  *)
 .provided      0x0000000000018d30        0x0 bin/blib.a(ata.o)
                0x0000000000018d30                __licence__gpl2_or_later__ata
                0x0000000000018d30                __licence__gpl2_only__ata
                0x0000000000018d30                obj_ata
 .provided      0x0000000000018d30        0x0 bin/blib.a(smbios.o)
                0x0000000000018d30                __licence__gpl2_only__smbios
                0x0000000000018d30                obj_smbios
                0x0000000000018d30                __licence__gpl2_or_later__smbios
 .provided      0x0000000000018d30        0x0 bin/blib.a(editstring.o)
                0x0000000000018d30                obj_editstring
                0x0000000000018d30                __licence__gpl2_or_later__editstring
                0x0000000000018d30                __licence__gpl2_only__editstring
 .provided      0x0000000000018d30        0x0 bin/blib.a(readline.o)
                0x0000000000018d30                __licence__gpl2_or_later__readline
                0x0000000000018d30                obj_readline
                0x0000000000018d30                __licence__gpl2_only__readline
 .provided      0x0000000000018d30        0x0 bin/blib.a(shell.o)
                0x0000000000018d30                __licence__gpl2_or_later__shell
                0x0000000000018d30                __licence__gpl2_only__shell
                0x0000000000018d30                obj_shell
 .provided      0x0000000000018d30        0x0 bin/blib.a(route_ipv4.o)
                0x0000000000018d30                __licence__gpl2_only__route_ipv4
                0x0000000000018d30                __licence__gpl2_or_later__route_ipv4
                0x0000000000018d30                obj_route_ipv4
 .provided      0x0000000000018d30        0x0 bin/blib.a(hidemem.o)
                0x0000000000018d30                __licence__gpl2_or_later__hidemem
                0x0000000000018d30                __licence__gpl2_only__hidemem
                0x0000000000018d30                obj_hidemem
 .provided      0x0000000000018d30        0x0 bin/blib.a(bootsector.o)
                0x0000000000018d30                __licence__gpl2_or_later__bootsector
                0x0000000000018d30                __licence__gpl2_only__bootsector
                0x0000000000018d30                obj_bootsector
 .provided      0x0000000000018d30        0x0 bin/blib.a(bios_smbios.o)
                0x0000000000018d30                __licence__gpl2_only__bios_smbios
                0x0000000000018d30                __licence__gpl2_or_later__bios_smbios
                0x0000000000018d30                obj_bios_smbios
 .provided      0x0000000000018d30        0x0 bin/blib.a(e820mangler.o)
                0x0000000000018d30                __licence__gpl2_or_later__e820mangler
                0x0000000000018d30                obj_e820mangler
 .provided      0x0000000000018d30        0x0 bin/blib.a(icmp.o)
                0x0000000000018d30                obj_icmp
                0x0000000000018d30                __licence__gpl2_or_later__icmp
                0x0000000000018d30                __licence__gpl2_only__icmp
 .provided      0x0000000000018d30        0x0 bin/blib.a(patch_cf.o)
                0x0000000000018d30                obj_patch_cf
                0x0000000000018d30                __licence__gpl2_or_later__patch_cf
 *(.provided.*)
                0x0000000000018d30                _mtextdata = .

.iplt           0x0000000000018d30        0x0 load address 0x0000000000019e20
 .iplt          0x0000000000000000        0x0 bin/blib.a(realtek.o)

.igot.plt       0x0000000000018d30        0x0 load address 0x0000000000019e20
 .igot.plt      0x0000000000000000        0x0 bin/blib.a(realtek.o)

.bss.textdata   0x0000000000018d30    0x81198 load address 0x0000000000019ed0
 *(.bss)
 *(.bss.*)
 .bss.mb_cmdline_offset
                0x0000000000018d30        0x4 bin/blib.a(multiboot.o)
 .bss.int_1a_hooked
                0x0000000000018d34        0x4 bin/blib.a(pxe_call.o)
 .bss.pxe_netdev
                0x0000000000018d38        0x4 bin/blib.a(pxe_undi.o)
                0x0000000000018d38                pxe_netdev
 .bss.undi_tx_count
                0x0000000000018d3c        0x4 bin/blib.a(pxe_undi.o)
 .bss.device_keep_count
                0x0000000000018d40        0x4 bin/blib.a(device.o)
                0x0000000000018d40                device_keep_count
 .bss.stop_state
                0x0000000000018d44        0x4 bin/blib.a(exec.o)
 .bss.exit_opts
                0x0000000000018d48        0x0 bin/blib.a(exec.o)
 .bss.isset_opts
                0x0000000000018d48        0x0 bin/blib.a(exec.o)
 .bss.iseq_opts
                0x0000000000018d48        0x0 bin/blib.a(exec.o)
 .bss.sleep_opts
                0x0000000000018d48        0x0 bin/blib.a(exec.o)
 .bss.imgindex.1767
                0x0000000000018d48        0x4 bin/blib.a(image.o)
 .bss.require_trusted_images
                0x0000000000018d4c        0x4 bin/blib.a(image.o)
 .bss.started   0x0000000000018d50        0x4 bin/blib.a(init.o)
 .bss.null_intf_op
                0x0000000000018d54        0x0 bin/blib.a(interface.o)
 .bss.heap      0x0000000000018d54    0x80000 bin/blib.a(malloc.o)
 .bss.buf.3083  0x0000000000098d54       0x10 bin/blib.a(settings.o)
 .bss.buf.918   0x0000000000098d64       0x25 bin/blib.a(uuid.o)
 *fill*         0x0000000000098d89        0x3 00
 .bss.dummy_metadata
                0x0000000000098d8c       0x14 bin/blib.a(xfer.o)
 .bss.buf.1934  0x0000000000098da0       0x12 bin/blib.a(ethernet.o)
 *fill*         0x0000000000098db2        0x2 00
 .bss.buf.2738  0x0000000000098db4       0x10 bin/blib.a(ipv4.o)
 .bss.next_ident_high
                0x0000000000098dc4        0x1 bin/blib.a(ipv4.o)
 *fill*         0x0000000000098dc5        0x3 00
 .bss.ifindex.2164
                0x0000000000098dc8        0x4 bin/blib.a(netdevice.o)
 .bss.itt_idx.3278
                0x0000000000098dcc        0x2 bin/blib.a(iscsi.o)
 *fill*         0x0000000000098dce        0x2 00
 .bss.localdomain
                0x0000000000098dd0        0x4 bin/blib.a(dns.o)
 .bss.qid.2669  0x0000000000098dd4        0x4 bin/blib.a(dns.o)
 .bss.tftp_server.3166
                0x0000000000098dd8        0x4 bin/blib.a(tftp.o)
 .bss.script_offset
                0x0000000000098ddc        0x4 bin/blib.a(script.o)
 .bss.goto_label
                0x0000000000098de0        0x4 bin/blib.a(script.o)
 .bss.goto_opts
                0x0000000000098de4        0x0 bin/blib.a(script.o)
 .bss.end.2128  0x0000000000098de4        0x4 bin/blib.a(pci.o)
 .bss.pci_settings_scope
                0x0000000000098de8        0x1 bin/blib.a(pci_settings.o)
 .bss.smbios_settings_scope
                0x0000000000098de9        0x1 bin/blib.a(smbios_settings.o)
 *fill*         0x0000000000098dea        0x2 00
 .bss.errbuf.1068
                0x0000000000098dec       0x40 bin/blib.a(strerror.o)
 .bss.config_opts
                0x0000000000098e2c        0x0 bin/blib.a(config_cmd.o)
 .bss.pxebs_opts
                0x0000000000098e2c        0x0 bin/blib.a(dhcp_cmd.o)
 .bss.imgmulti_opts
                0x0000000000098e2c        0x0 bin/blib.a(image_cmd.o)
 .bss.login_opts
                0x0000000000098e2c        0x0 bin/blib.a(login_cmd.o)
 .bss.inc_opts  0x0000000000098e2c        0x0 bin/blib.a(nvo_cmd.o)
 .bss.set_core_opts
                0x0000000000098e2c        0x0 bin/blib.a(nvo_cmd.o)
 .bss.show_opts
                0x0000000000098e2c        0x0 bin/blib.a(nvo_cmd.o)
 .bss.route_opts
                0x0000000000098e2c        0x0 bin/blib.a(route_cmd.o)
 .bss.saved_usage
                0x0000000000098e2c        0x4 bin/blib.a(ansi_screen.o)
 .bss.days.1447
                0x0000000000098e30        0x4 bin/blib.a(bios_timer.o)
 .bss.equipment_word
                0x0000000000098e34        0x2 bin/blib.a(int13.o)
 *fill*         0x0000000000098e36        0x2 00
 .bss.bottom    0x0000000000098e38        0x4 bin/blib.a(memtop_umalloc.o)
 .bss.top       0x0000000000098e3c        0x4 bin/blib.a(memtop_umalloc.o)
 .bss.heap_size
                0x0000000000098e40        0x4 bin/blib.a(memtop_umalloc.o)
 .bss.cwuri     0x0000000000098e44        0x4 bin/blib.a(cwuri.o)
                0x0000000000098e44                cwuri
 .bss.monojob_rc
                0x0000000000098e48        0x4 bin/blib.a(monojob.o)
 .bss.pending_total
                0x0000000000098e4c        0x4 bin/blib.a(pending.o)
 .bss.rnd_seed  0x0000000000098e50        0x4 bin/blib.a(random.o)
 .bss.tag_idx.2947
                0x0000000000098e54        0x2 bin/blib.a(aoe.o)
 *fill*         0x0000000000098e56        0x2 00
 .bss.smbios    0x0000000000098e58       0x10 bin/blib.a(smbios.o)
 .bss.shell_opts
                0x0000000000098e68        0x0 bin/blib.a(shell.o)
 .bss.int18_vector
                0x0000000000098e68        0x4 bin/blib.a(bootsector.o)
 .bss.int19_vector
                0x0000000000098e6c        0x4 bin/blib.a(bootsector.o)
 .bss.offset.1509
                0x0000000000098e70        0x4 bin/blib.a(bios_smbios.o)
 *(COMMON)
 COMMON         0x0000000000098e74        0x8 bin/blib.a(initrd.o)
                0x0000000000098e74                initrd_top
                0x0000000000098e78                initrd_bottom
 COMMON         0x0000000000098e7c        0x4 bin/blib.a(pxe_image.o)
                0x0000000000098e7c                pxe_cmdline
 COMMON         0x0000000000098e80       0x1c bin/blib.a(pxe_call.o)
                0x0000000000098e80                pxe_restart_nbp
 COMMON         0x0000000000098e9c        0x2 bin/blib.a(pxe_preboot.o)
                0x0000000000098e9c                isapnp_read_port
 *fill*         0x0000000000098e9e        0x2 00
 COMMON         0x0000000000098ea0       0x10 bin/blib.a(getopt.o)
                0x0000000000098ea0                optarg
                0x0000000000098ea4                optind
                0x0000000000098ea8                nextchar
                0x0000000000098eac                optopt
 COMMON         0x0000000000098eb0        0x4 bin/blib.a(image.o)
                0x0000000000098eb0                current_image
 COMMON         0x0000000000098eb4        0x4 bin/blib.a(malloc.o)
                0x0000000000098eb4                freemem
 COMMON         0x0000000000098eb8        0x1 bin/blib.a(settings.o)
                0x0000000000098eb8                builtin_scope
 *fill*         0x0000000000098eb9        0x3 00
 COMMON         0x0000000000098ebc        0x4 bin/blib.a(dhcp.o)
                0x0000000000098ebc                dhcp_last_xid
 COMMON         0x0000000000098ec0        0x0 bin/blib.a(ifmgmt_cmd.o)
                0x0000000000098ec0                ifcommon_opts
 COMMON         0x0000000000098ec0        0x4 bin/blib.a(errno.o)
                0x0000000000098ec0                errno
 *(.stack)
 *fill*         0x0000000000098ec4        0x4 00
 .stack         0x0000000000098ec8     0x1000 bin/blib.a(stack.o)
                0x0000000000098ec8                _stack
                0x0000000000099ec8                _estack
 *(.stack.*)
                0x0000000000099ec8                _etextdata = .
                0x0000000000018d30                _textdata_filesz = (ABSOLUTE (_mtextdata) - ABSOLUTE (_textdata))
                0x0000000000099ec8                _textdata_memsz = (ABSOLUTE (_etextdata) - ABSOLUTE (_textdata))

.pprefix        0x0000000000000000        0x0 load address 0x0000000000000990
                0x0000000000000000                _pprefix = .
 *(.pprefix)
 *(.pprefix.*)
                0x0000000000000000                _mpprefix = .

.bss.pprefix    0x0000000000099ec8        0x0 load address 0x0000000000019ed0
                0x0000000000099ec8                _epprefix = .
                0x0000000000000000                _pprefix_filesz = (ABSOLUTE (_mpprefix) - ABSOLUTE (_pprefix))
                0x0000000000099ec8                _pprefix_memsz = (ABSOLUTE (_epprefix) - ABSOLUTE (_pprefix))

.zinfo          0x0000000000000000       0xb0 load address 0x0000000000019e20
                0x0000000000000000                _zinfo = .
 *(.zinfo)
 .zinfo         0x0000000000000000       0x70 bin/blib.a(libprefix.o)
 *(.zinfo.*)
 .zinfo.fixup   0x0000000000000070       0x40 bin/blib.a(romprefix.o)
                0x00000000000000b0                _mzinfo = .

.bss.zinfo      0x00000000000000b0        0x0 load address 0x0000000000019ed0
                0x00000000000000b0                _ezinfo = .
                0x00000000000000b0                _zinfo_filesz = (ABSOLUTE (_mzinfo) - ABSOLUTE (_zinfo))
                0x00000000000000b0                _zinfo_memsz = (ABSOLUTE (_ezinfo) - ABSOLUTE (_zinfo))

.weak           0x0000000000000000        0x0 load address 0x0000000000019ed0
                0x0000000000000000                _weak = .
 *(.weak)
 *(.weak.*)
                0x0000000000000000                _eweak = .
                0x0000000000000001                _assert = ASSERT ((_weak == _eweak), .weak is non-zero length)

/DISCARD/
 *(.comment)
 *(.comment.*)
 *(.note)
 *(.note.*)
 *(.eh_frame)
 *(.eh_frame.*)
 *(.rel)
 *(.rel.*)
 *(.einfo)
 *(.einfo.*)
 *(.discard)
 *(.discard.*)
                0x0000000000000000                . = 0x0
                0x0000000000000000                . = ALIGN (_max_align)
                0x0000000000000000                _prefix_lma = .
                0x0000000000000894                . = (. + _prefix_filesz)
                0x00000000000008a0                . = ALIGN (_max_align)
                0x00000000000008a0                _text16_early_lma = .
                0x000000000000098e                . = (. + _text16_early_filesz)
                0x0000000000000990                . = ALIGN (_max_align)
                0x0000000000000990                . = ALIGN (_payload_align)
                0x0000000000000990                _pprefix_lma = .
                0x0000000000000990                . = (. + _pprefix_filesz)
                0x0000000000000990                . = ALIGN (_max_align)
                0x0000000000000990                _payload_lma = .
                0x0000000000000000                _pprefix_skip = (ABSOLUTE (_payload_lma) - ABSOLUTE (_pprefix_lma))
                0x0000000000000990                _text16_late_lma = .
                0x000000000000100c                . = (. + _text16_late_filesz)
                0x0000000000001010                . = ALIGN (_max_align)
                0x0000000000001010                _data16_lma = .
                0x00000000000010e2                . = (. + _data16_filesz)
                0x00000000000010f0                . = ALIGN (_max_align)
                0x00000000000010f0                _textdata_lma = .
                0x0000000000019e20                . = (. + _textdata_filesz)
                0x0000000000019e20                _filesz = .
                0x0000000000019e20                . = ALIGN (_max_align)
                0x0000000000019e20                _zinfo_lma = .
                0x0000000000019ed0                . = (. + _zinfo_filesz)
                0x0000000000019ed0                . = ALIGN (_max_align)
                0x0000000000019ed0                _end_lma = .
                0x0000000000000077                _text16_memsz_pgh = ((_text16_memsz + 0xf) / 0x10)
                0x00000000000002ce                _data16_memsz_pgh = ((_data16_memsz + 0xf) / 0x10)
                0x00000000000099ed                _textdata_memsz_pgh = ((_textdata_memsz + 0xf) / 0x10)
                0x0000000000000268                _textdata_memsz_kb = ((_textdata_memsz + 0x3ff) / 0x400)
                0x0000000000000000                check__rom_start = _rom_start
                0x0000000000018d30                check_obj_realtek = obj_realtek
                0x0000000000018d30                check_obj_config = obj_config
                0x00000000000010ec                pci_vendor_id = 0x10ec
                0x0000000000008139                pci_device_id = 0x8139
LOAD bin/blib.a
                0x00000000dcddf8e3                _build_id = 0xdcddf8e3
OUTPUT(bin/rtl8139.rom.tmp elf32-i386)

.debug_frame    0x0000000000000000     0xa920
 .debug_frame   0x0000000000000000      0x2e8 bin/blib.a(realtek.o)
 .debug_frame   0x00000000000002e8       0xd4 bin/blib.a(nvs.o)
 .debug_frame   0x00000000000003bc       0xbc bin/blib.a(threewire.o)
 .debug_frame   0x0000000000000478       0xf0 bin/blib.a(spi_bit.o)
 .debug_frame   0x0000000000000568       0x30 bin/blib.a(timer2.o)
 .debug_frame   0x0000000000000598       0xc8 bin/blib.a(bios_console.o)
 .debug_frame   0x0000000000000660       0xdc bin/blib.a(bzimage.o)
 .debug_frame   0x000000000000073c       0x60 bin/blib.a(elfboot.o)
 .debug_frame   0x000000000000079c       0x84 bin/blib.a(initrd.o)
 .debug_frame   0x0000000000000820      0x118 bin/blib.a(multiboot.o)
 .debug_frame   0x0000000000000938       0x50 bin/blib.a(pxe_image.o)
 .debug_frame   0x0000000000000988      0x158 bin/blib.a(pxe_call.o)
 .debug_frame   0x0000000000000ae0      0x150 bin/blib.a(pxe_file.o)
 .debug_frame   0x0000000000000c30       0x30 bin/blib.a(pxe_loader.o)
 .debug_frame   0x0000000000000c60       0xd4 bin/blib.a(pxe_preboot.o)
 .debug_frame   0x0000000000000d34      0x1c0 bin/blib.a(pxe_tftp.o)
 .debug_frame   0x0000000000000ef4       0xe8 bin/blib.a(pxe_udp.o)
 .debug_frame   0x0000000000000fdc      0x2e0 bin/blib.a(pxe_undi.o)
 .debug_frame   0x00000000000012bc       0xd0 bin/blib.a(x86_string.o)
 .debug_frame   0x000000000000138c       0x4c bin/blib.a(cpuid_cmd.o)
 .debug_frame   0x00000000000013d8       0x38 bin/blib.a(ansiesc.o)
 .debug_frame   0x0000000000001410       0x48 bin/blib.a(cpio.o)
 .debug_frame   0x0000000000001458       0x7c bin/blib.a(device.o)
 .debug_frame   0x00000000000014d4      0x260 bin/blib.a(exec.o)
 .debug_frame   0x0000000000001734       0xb0 bin/blib.a(getopt.o)
 .debug_frame   0x00000000000017e4      0x1f0 bin/blib.a(image.o)
 .debug_frame   0x00000000000019d4       0x70 bin/blib.a(init.o)
 .debug_frame   0x0000000000001a44      0x170 bin/blib.a(interface.o)
 .debug_frame   0x0000000000001bb4       0xd0 bin/blib.a(iobuf.o)
 .debug_frame   0x0000000000001c84      0x118 bin/blib.a(list.o)
 .debug_frame   0x0000000000001d9c       0x38 bin/blib.a(main.o)
 .debug_frame   0x0000000000001dd4      0x154 bin/blib.a(malloc.o)
 .debug_frame   0x0000000000001f28       0x50 bin/blib.a(memblock.o)
 .debug_frame   0x0000000000001f78       0x9c bin/blib.a(misc.o)
 .debug_frame   0x0000000000002014      0x15c bin/blib.a(nvo.o)
 .debug_frame   0x0000000000002170      0x10c bin/blib.a(open.o)
 .debug_frame   0x000000000000227c      0x248 bin/blib.a(parseopt.o)
 .debug_frame   0x00000000000024c4      0x16c bin/blib.a(posix_io.o)
 .debug_frame   0x0000000000002630       0xac bin/blib.a(process.o)
 .debug_frame   0x00000000000026dc       0x44 bin/blib.a(refcnt.o)
 .debug_frame   0x0000000000002720      0xc8c bin/blib.a(settings.o)
 .debug_frame   0x00000000000033ac      0x1ac bin/blib.a(string.o)
 .debug_frame   0x0000000000003558       0x4c bin/blib.a(timer.o)
 .debug_frame   0x00000000000035a4      0x214 bin/blib.a(uri.o)
 .debug_frame   0x00000000000037b8       0x6c bin/blib.a(uuid.o)
 .debug_frame   0x0000000000003824      0x16c bin/blib.a(vsprintf.o)
 .debug_frame   0x0000000000003990      0x1c4 bin/blib.a(xfer.o)
 .debug_frame   0x0000000000003b54       0xc4 bin/blib.a(arp.o)
 .debug_frame   0x0000000000003c18      0x15c bin/blib.a(dhcpopts.o)
 .debug_frame   0x0000000000003d74       0xe0 bin/blib.a(ethernet.o)
 .debug_frame   0x0000000000003e54       0x68 bin/blib.a(eth_slow.o)
 .debug_frame   0x0000000000003ebc       0xf0 bin/blib.a(fakedhcp.o)
 .debug_frame   0x0000000000003fac       0x40 bin/blib.a(iobpad.o)
 .debug_frame   0x0000000000003fec      0x1f4 bin/blib.a(ipv4.o)
 .debug_frame   0x00000000000041e0      0x228 bin/blib.a(neighbour.o)
 .debug_frame   0x0000000000004408      0x468 bin/blib.a(netdevice.o)
 .debug_frame   0x0000000000004870      0x1b8 bin/blib.a(netdev_settings.o)
 .debug_frame   0x0000000000004a28       0x64 bin/blib.a(nullnet.o)
 .debug_frame   0x0000000000004a8c       0x34 bin/blib.a(rarp.o)
 .debug_frame   0x0000000000004ac0       0xc4 bin/blib.a(retry.o)
 .debug_frame   0x0000000000004b84      0x100 bin/blib.a(tcpip.o)
 .debug_frame   0x0000000000004c84      0x184 bin/blib.a(udp.o)
 .debug_frame   0x0000000000004e08       0x30 bin/blib.a(http.o)
 .debug_frame   0x0000000000004e38      0x4f0 bin/blib.a(httpcore.o)
 .debug_frame   0x0000000000005328      0x564 bin/blib.a(iscsi.o)
 .debug_frame   0x000000000000588c      0x484 bin/blib.a(dhcp.o)
 .debug_frame   0x0000000000005d10      0x130 bin/blib.a(dns.o)
 .debug_frame   0x0000000000005e40      0x3ac bin/blib.a(tftp.o)
 .debug_frame   0x00000000000061ec       0x50 bin/blib.a(elf.o)
 .debug_frame   0x000000000000623c       0x24 bin/blib.a(embedded.o)
 .debug_frame   0x0000000000006260      0x18c bin/blib.a(script.o)
 .debug_frame   0x00000000000063ec       0x50 bin/blib.a(segment.o)
 .debug_frame   0x000000000000643c      0x19c bin/blib.a(pci.o)
 .debug_frame   0x00000000000065d8       0x70 bin/blib.a(pci_settings.o)
 .debug_frame   0x0000000000006648       0x68 bin/blib.a(mii.o)
 .debug_frame   0x00000000000066b0       0xc8 bin/blib.a(ibft.o)
 .debug_frame   0x0000000000006778      0x358 bin/blib.a(scsi.o)
 .debug_frame   0x0000000000006ad0       0x40 bin/blib.a(bitbash.o)
 .debug_frame   0x0000000000006b10       0x68 bin/blib.a(smbios_settings.o)
 .debug_frame   0x0000000000006b78       0x80 bin/blib.a(chap.o)
 .debug_frame   0x0000000000006bf8       0xcc bin/blib.a(md5.o)
 .debug_frame   0x0000000000006cc4       0x48 bin/blib.a(strerror.o)
 .debug_frame   0x0000000000006d0c       0x30 bin/blib.a(autoboot_cmd.o)
 .debug_frame   0x0000000000006d3c       0x60 bin/blib.a(config_cmd.o)
 .debug_frame   0x0000000000006d9c       0xa8 bin/blib.a(dhcp_cmd.o)
 .debug_frame   0x0000000000006e44       0xe0 bin/blib.a(ifmgmt_cmd.o)
 .debug_frame   0x0000000000006f24      0x18c bin/blib.a(image_cmd.o)
 .debug_frame   0x00000000000070b0       0x50 bin/blib.a(login_cmd.o)
 .debug_frame   0x0000000000007100       0xf4 bin/blib.a(menu_cmd.o)
 .debug_frame   0x00000000000071f4      0x1b8 bin/blib.a(nvo_cmd.o)
 .debug_frame   0x00000000000073ac       0x40 bin/blib.a(reboot_cmd.o)
 .debug_frame   0x00000000000073ec       0x38 bin/blib.a(route_cmd.o)
 .debug_frame   0x0000000000007424       0xb4 bin/blib.a(sanboot_cmd.o)
 .debug_frame   0x00000000000074d8       0x50 bin/blib.a(sync_cmd.o)
 .debug_frame   0x0000000000007528       0xd8 bin/blib.a(login_ui.o)
 .debug_frame   0x0000000000007600      0x10c bin/blib.a(menu_ui.o)
 .debug_frame   0x000000000000770c      0x2a8 bin/blib.a(settings_ui.o)
 .debug_frame   0x00000000000079b4       0xf0 bin/blib.a(ansi_screen.o)
 .debug_frame   0x0000000000007aa4       0xd0 bin/blib.a(clear.o)
 .debug_frame   0x0000000000007b74       0x70 bin/blib.a(colour.o)
 .debug_frame   0x0000000000007be4      0x100 bin/blib.a(mucurses.o)
 .debug_frame   0x0000000000007ce4       0x78 bin/blib.a(print.o)
 .debug_frame   0x0000000000007d5c       0xbc bin/blib.a(winattrs.o)
 .debug_frame   0x0000000000007e18       0x48 bin/blib.a(wininit.o)
 .debug_frame   0x0000000000007e60       0x80 bin/blib.a(editbox.o)
 .debug_frame   0x0000000000007ee0      0x2c0 bin/blib.a(autoboot.o)
 .debug_frame   0x00000000000081a0       0x88 bin/blib.a(dhcpmgmt.o)
 .debug_frame   0x0000000000008228      0x174 bin/blib.a(ifmgmt.o)
 .debug_frame   0x000000000000839c      0x10c bin/blib.a(imgmgmt.o)
 .debug_frame   0x00000000000084a8       0x58 bin/blib.a(prompt.o)
 .debug_frame   0x0000000000008500      0x16c bin/blib.a(pxemenu.o)
 .debug_frame   0x000000000000866c       0x38 bin/blib.a(route.o)
 .debug_frame   0x00000000000086a4       0x50 bin/blib.a(relocate.o)
 .debug_frame   0x00000000000086f4       0x88 bin/blib.a(memmap.o)
 .debug_frame   0x000000000000877c       0x5c bin/blib.a(biosint.o)
 .debug_frame   0x00000000000087d8       0x24 bin/blib.a(bios_nap.o)
 .debug_frame   0x00000000000087fc       0x24 bin/blib.a(bios_reboot.o)
 .debug_frame   0x0000000000008820       0x2c bin/blib.a(bios_timer.o)
 .debug_frame   0x000000000000884c      0x3b0 bin/blib.a(int13.o)
 .debug_frame   0x0000000000008bfc       0x50 bin/blib.a(memtop_umalloc.o)
 .debug_frame   0x0000000000008c4c       0x98 bin/blib.a(pcibios.o)
 .debug_frame   0x0000000000008ce4       0x50 bin/blib.a(cpuid.o)
 .debug_frame   0x0000000000008d34       0x50 bin/blib.a(x86_tcpip.o)
 .debug_frame   0x0000000000008d84       0x64 bin/blib.a(acpi.o)
 .debug_frame   0x0000000000008de8       0x70 bin/blib.a(asprintf.o)
 .debug_frame   0x0000000000008e58       0xb8 bin/blib.a(base16.o)
 .debug_frame   0x0000000000008f10       0x8c bin/blib.a(base64.o)
 .debug_frame   0x0000000000008f9c       0x4c bin/blib.a(basename.o)
 .debug_frame   0x0000000000008fe8       0x94 bin/blib.a(bitmap.o)
 .debug_frame   0x000000000000907c       0x24 bin/blib.a(bitops.o)
 .debug_frame   0x00000000000090a0       0xe4 bin/blib.a(blockdev.o)
 .debug_frame   0x0000000000009184       0x74 bin/blib.a(console.o)
 .debug_frame   0x00000000000091f8       0x24 bin/blib.a(ctype.o)
 .debug_frame   0x000000000000921c       0x30 bin/blib.a(cwuri.o)
 .debug_frame   0x000000000000924c       0xc0 bin/blib.a(downloader.o)
 .debug_frame   0x000000000000930c       0x48 bin/blib.a(edd.o)
 .debug_frame   0x0000000000009354       0x68 bin/blib.a(getkey.o)
 .debug_frame   0x00000000000093bc       0x3c bin/blib.a(job.o)
 .debug_frame   0x00000000000093f8       0x7c bin/blib.a(linebuf.o)
 .debug_frame   0x0000000000009474       0xdc bin/blib.a(menu.o)
 .debug_frame   0x0000000000009550       0xb8 bin/blib.a(monojob.o)
 .debug_frame   0x0000000000009608       0xdc bin/blib.a(params.o)
 .debug_frame   0x00000000000096e4       0x58 bin/blib.a(pending.o)
 .debug_frame   0x000000000000973c       0x40 bin/blib.a(random.o)
 .debug_frame   0x000000000000977c      0x1dc bin/blib.a(resolv.o)
 .debug_frame   0x0000000000009958      0x2f4 bin/blib.a(aoe.o)
 .debug_frame   0x0000000000009c4c      0x144 bin/blib.a(dhcppkt.o)
 .debug_frame   0x0000000000009d90       0x6c bin/blib.a(fragment.o)
 .debug_frame   0x0000000000009dfc       0x40 bin/blib.a(icmpv4.o)
 .debug_frame   0x0000000000009e3c       0x50 bin/blib.a(socket.o)
 .debug_frame   0x0000000000009e8c      0x300 bin/blib.a(tcp.o)
 .debug_frame   0x000000000000a18c      0x22c bin/blib.a(ata.o)
 .debug_frame   0x000000000000a3b8       0xb8 bin/blib.a(smbios.o)
 .debug_frame   0x000000000000a470       0x8c bin/blib.a(editstring.o)
 .debug_frame   0x000000000000a4fc       0xe8 bin/blib.a(readline.o)
 .debug_frame   0x000000000000a5e4       0xc8 bin/blib.a(shell.o)
 .debug_frame   0x000000000000a6ac       0x78 bin/blib.a(route_ipv4.o)
 .debug_frame   0x000000000000a724       0x8c bin/blib.a(hidemem.o)
 .debug_frame   0x000000000000a7b0       0x4c bin/blib.a(bootsector.o)
 .debug_frame   0x000000000000a7fc       0x40 bin/blib.a(bios_smbios.o)
 .debug_frame   0x000000000000a83c       0xe4 bin/blib.a(icmp.o)

.debug_info     0x0000000000000000    0x86c23
 .debug_info    0x0000000000000000     0x422c bin/blib.a(realtek.o)
 .debug_info    0x000000000000422c      0x44b bin/blib.a(nvs.o)
 .debug_info    0x0000000000004677      0x3e7 bin/blib.a(threewire.o)
 .debug_info    0x0000000000004a5e      0x6fc bin/blib.a(spi_bit.o)
 .debug_info    0x000000000000515a      0x40c bin/blib.a(config.o)
 .debug_info    0x0000000000005566      0x3d7 bin/blib.a(timer2.o)
 .debug_info    0x000000000000593d      0x63d bin/blib.a(bios_console.o)
 .debug_info    0x0000000000005f7a     0x2beb bin/blib.a(bzimage.o)
 .debug_info    0x0000000000008b65     0x1069 bin/blib.a(elfboot.o)
 .debug_info    0x0000000000009bce     0x118a bin/blib.a(initrd.o)
 .debug_info    0x000000000000ad58     0x1f7d bin/blib.a(multiboot.o)
 .debug_info    0x000000000000ccd5      0xfcd bin/blib.a(pxe_image.o)
 .debug_info    0x000000000000dca2     0x24ea bin/blib.a(pxe_call.o)
 .debug_info    0x000000000001018c     0x2636 bin/blib.a(pxe_file.o)
 .debug_info    0x00000000000127c2      0x56e bin/blib.a(pxe_loader.o)
 .debug_info    0x0000000000012d30     0x25c4 bin/blib.a(pxe_preboot.o)
 .debug_info    0x00000000000152f4     0x1d66 bin/blib.a(pxe_tftp.o)
 .debug_info    0x000000000001705a     0x1d64 bin/blib.a(pxe_udp.o)
 .debug_info    0x0000000000018dbe     0x31e9 bin/blib.a(pxe_undi.o)
 .debug_info    0x000000000001bfa7      0x340 bin/blib.a(x86_string.o)
 .debug_info    0x000000000001c2e7      0x725 bin/blib.a(cpuid_cmd.o)
 .debug_info    0x000000000001ca0c      0x312 bin/blib.a(ansiesc.o)
 .debug_info    0x000000000001cd1e      0x306 bin/blib.a(cpio.o)
 .debug_info    0x000000000001d024      0x6e9 bin/blib.a(device.o)
 .debug_info    0x000000000001d70d      0xfc3 bin/blib.a(exec.o)
 .debug_info    0x000000000001e6d0      0x3ea bin/blib.a(getopt.o)
 .debug_info    0x000000000001eaba      0xb83 bin/blib.a(image.o)
 .debug_info    0x000000000001f63d      0x1f9 bin/blib.a(init.o)
 .debug_info    0x000000000001f836      0x694 bin/blib.a(interface.o)
 .debug_info    0x000000000001feca      0x842 bin/blib.a(iobuf.o)
 .debug_info    0x000000000002070c      0x7fb bin/blib.a(list.o)
 .debug_info    0x0000000000020f07      0x137 bin/blib.a(main.o)
 .debug_info    0x000000000002103e      0xb15 bin/blib.a(malloc.o)
 .debug_info    0x0000000000021b53      0x25e bin/blib.a(memblock.o)
 .debug_info    0x0000000000021db1      0x2e5 bin/blib.a(misc.o)
 .debug_info    0x0000000000022096     0x1242 bin/blib.a(nvo.o)
 .debug_info    0x00000000000232d8      0x7e9 bin/blib.a(open.o)
 .debug_info    0x0000000000023ac1     0x10c7 bin/blib.a(parseopt.o)
 .debug_info    0x0000000000024b88      0xe02 bin/blib.a(posix_io.o)
 .debug_info    0x000000000002598a      0x4b3 bin/blib.a(process.o)
 .debug_info    0x0000000000025e3d      0x18f bin/blib.a(refcnt.o)
 .debug_info    0x0000000000025fcc     0x3f43 bin/blib.a(settings.o)
 .debug_info    0x0000000000029f0f      0x658 bin/blib.a(string.o)
 .debug_info    0x000000000002a567      0x162 bin/blib.a(timer.o)
 .debug_info    0x000000000002a6c9      0xb56 bin/blib.a(uri.o)
 .debug_info    0x000000000002b21f      0x272 bin/blib.a(uuid.o)
 .debug_info    0x000000000002b491      0x9ba bin/blib.a(version.o)
 .debug_info    0x000000000002be4b      0x89f bin/blib.a(vsprintf.o)
 .debug_info    0x000000000002c6ea      0xb19 bin/blib.a(xfer.o)
 .debug_info    0x000000000002d203     0x12bb bin/blib.a(arp.o)
 .debug_info    0x000000000002e4be     0x13ba bin/blib.a(dhcpopts.o)
 .debug_info    0x000000000002f878     0x1384 bin/blib.a(ethernet.o)
 .debug_info    0x0000000000030bfc     0x1378 bin/blib.a(eth_slow.o)
 .debug_info    0x0000000000031f74      0xe9d bin/blib.a(fakedhcp.o)
 .debug_info    0x0000000000032e11      0x5ee bin/blib.a(iobpad.o)
 .debug_info    0x00000000000333ff     0x21ec bin/blib.a(ipv4.o)
 .debug_info    0x00000000000355eb     0x1721 bin/blib.a(neighbour.o)
 .debug_info    0x0000000000036d0c     0x1e49 bin/blib.a(netdevice.o)
 .debug_info    0x0000000000038b55     0x12d0 bin/blib.a(netdev_settings.o)
 .debug_info    0x0000000000039e25      0xa5d bin/blib.a(nullnet.o)
 .debug_info    0x000000000003a882      0xa98 bin/blib.a(rarp.o)
 .debug_info    0x000000000003b31a      0x530 bin/blib.a(retry.o)
 .debug_info    0x000000000003b84a      0x5d6 bin/blib.a(tcpip.o)
 .debug_info    0x000000000003be20     0x1a94 bin/blib.a(udp.o)
 .debug_info    0x000000000003d8b4      0xa59 bin/blib.a(http.o)
 .debug_info    0x000000000003e30d     0x2ba0 bin/blib.a(httpcore.o)
 .debug_info    0x0000000000040ead     0x4e41 bin/blib.a(iscsi.o)
 .debug_info    0x0000000000045cee     0x2d06 bin/blib.a(dhcp.o)
 .debug_info    0x00000000000489f4     0x195a bin/blib.a(dns.o)
 .debug_info    0x000000000004a34e     0x2ec1 bin/blib.a(tftp.o)
 .debug_info    0x000000000004d20f      0xcc8 bin/blib.a(elf.o)
 .debug_info    0x000000000004ded7      0x3a2 bin/blib.a(embedded.o)
 .debug_info    0x000000000004e279     0x1248 bin/blib.a(script.o)
 .debug_info    0x000000000004f4c1      0x43c bin/blib.a(segment.o)
 .debug_info    0x000000000004f8fd      0xd5f bin/blib.a(pci.o)
 .debug_info    0x000000000005065c      0x9c0 bin/blib.a(pci_settings.o)
 .debug_info    0x000000000005101c      0xb43 bin/blib.a(mii.o)
 .debug_info    0x0000000000051b5f     0x2a33 bin/blib.a(ibft.o)
 .debug_info    0x0000000000054592     0x1fbc bin/blib.a(scsi.o)
 .debug_info    0x000000000005654e      0x1be bin/blib.a(bitbash.o)
 .debug_info    0x000000000005670c      0xac2 bin/blib.a(smbios_settings.o)
 .debug_info    0x00000000000571ce      0x492 bin/blib.a(chap.o)
 .debug_info    0x0000000000057660      0xca4 bin/blib.a(md5.o)
 .debug_info    0x0000000000058304      0x29b bin/blib.a(strerror.o)
 .debug_info    0x000000000005859f      0xb17 bin/blib.a(autoboot_cmd.o)
 .debug_info    0x00000000000590b6      0x6aa bin/blib.a(config_cmd.o)
 .debug_info    0x0000000000059760      0xc6a bin/blib.a(dhcp_cmd.o)
 .debug_info    0x000000000005a3ca      0xcdf bin/blib.a(ifmgmt_cmd.o)
 .debug_info    0x000000000005b0a9      0xd7d bin/blib.a(image_cmd.o)
 .debug_info    0x000000000005be26      0x678 bin/blib.a(login_cmd.o)
 .debug_info    0x000000000005c49e      0xf50 bin/blib.a(menu_cmd.o)
 .debug_info    0x000000000005d3ee      0xc66 bin/blib.a(nvo_cmd.o)
 .debug_info    0x000000000005e054      0x67a bin/blib.a(reboot_cmd.o)
 .debug_info    0x000000000005e6ce      0x65b bin/blib.a(route_cmd.o)
 .debug_info    0x000000000005ed29      0x9bc bin/blib.a(sanboot_cmd.o)
 .debug_info    0x000000000005f6e5      0x68c bin/blib.a(sync_cmd.o)
 .debug_info    0x000000000005fd71      0x963 bin/blib.a(login_ui.o)
 .debug_info    0x00000000000606d4      0xe1a bin/blib.a(menu_ui.o)
 .debug_info    0x00000000000614ee     0x14b4 bin/blib.a(settings_ui.o)
 .debug_info    0x00000000000629a2      0x5ad bin/blib.a(ansi_screen.o)
 .debug_info    0x0000000000062f4f      0x512 bin/blib.a(clear.o)
 .debug_info    0x0000000000063461      0x3fa bin/blib.a(colour.o)
 .debug_info    0x000000000006385b      0x4d9 bin/blib.a(mucurses.o)
 .debug_info    0x0000000000063d34      0x4e0 bin/blib.a(print.o)
 .debug_info    0x0000000000064214      0x5b9 bin/blib.a(winattrs.o)
 .debug_info    0x00000000000647cd      0x3df bin/blib.a(wininit.o)
 .debug_info    0x0000000000064bac      0x7da bin/blib.a(editbox.o)
 .debug_info    0x0000000000065386      0x12e bin/blib.a(keymap_us.o)
 .debug_info    0x00000000000654b4     0x1398 bin/blib.a(autoboot.o)
 .debug_info    0x000000000006684c      0x9f9 bin/blib.a(dhcpmgmt.o)
 .debug_info    0x0000000000067245      0xbb8 bin/blib.a(ifmgmt.o)
 .debug_info    0x0000000000067dfd      0x603 bin/blib.a(imgmgmt.o)
 .debug_info    0x0000000000068400      0x130 bin/blib.a(prompt.o)
 .debug_info    0x0000000000068530     0x1342 bin/blib.a(pxemenu.o)
 .debug_info    0x0000000000069872      0x9aa bin/blib.a(route.o)
 .debug_info    0x000000000006a21c       0x9a bin/blib.a(config_ethernet.o)
 .debug_info    0x000000000006a2b6       0x9a bin/blib.a(config_romprefix.o)
 .debug_info    0x000000000006a350       0x9a bin/blib.a(config_route.o)
 .debug_info    0x000000000006a3ea      0x10a bin/blib.a(basemem_packet.o)
 .debug_info    0x000000000006a4f4      0x614 bin/blib.a(relocate.o)
 .debug_info    0x000000000006ab08      0x993 bin/blib.a(memmap.o)
 .debug_info    0x000000000006b49b      0xb69 bin/blib.a(biosint.o)
 .debug_info    0x000000000006c004       0xfa bin/blib.a(bios_nap.o)
 .debug_info    0x000000000006c0fe      0x583 bin/blib.a(bios_reboot.o)
 .debug_info    0x000000000006c681      0x7c7 bin/blib.a(bios_timer.o)
 .debug_info    0x000000000006ce48     0x5087 bin/blib.a(int13.o)
 .debug_info    0x0000000000071ecf      0xc5a bin/blib.a(memtop_umalloc.o)
 .debug_info    0x0000000000072b29      0x4f5 bin/blib.a(pcibios.o)
 .debug_info    0x000000000007301e      0x580 bin/blib.a(cpuid.o)
 .debug_info    0x000000000007359e      0x1fc bin/blib.a(x86_tcpip.o)
 .debug_info    0x000000000007379a      0x3b4 bin/blib.a(acpi.o)
 .debug_info    0x0000000000073b4e      0x1d0 bin/blib.a(asprintf.o)
 .debug_info    0x0000000000073d1e      0x273 bin/blib.a(base16.o)
 .debug_info    0x0000000000073f91      0x362 bin/blib.a(base64.o)
 .debug_info    0x00000000000742f3      0x158 bin/blib.a(basename.o)
 .debug_info    0x000000000007444b      0x261 bin/blib.a(bitmap.o)
 .debug_info    0x00000000000746ac      0x121 bin/blib.a(bitops.o)
 .debug_info    0x00000000000747cd      0x4e9 bin/blib.a(blockdev.o)
 .debug_info    0x0000000000074cb6      0x227 bin/blib.a(console.o)
 .debug_info    0x0000000000074edd       0xab bin/blib.a(ctype.o)
 .debug_info    0x0000000000074f88      0x268 bin/blib.a(cwuri.o)
 .debug_info    0x00000000000751f0      0xc88 bin/blib.a(downloader.o)
 .debug_info    0x0000000000075e78      0x4a0 bin/blib.a(edd.o)
 .debug_info    0x0000000000076318       0x8f bin/blib.a(errno.o)
 .debug_info    0x00000000000763a7      0x185 bin/blib.a(getkey.o)
 .debug_info    0x000000000007652c      0x327 bin/blib.a(job.o)
 .debug_info    0x0000000000076853      0x394 bin/blib.a(linebuf.o)
 .debug_info    0x0000000000076be7      0x4e9 bin/blib.a(menu.o)
 .debug_info    0x00000000000770d0      0x390 bin/blib.a(monojob.o)
 .debug_info    0x0000000000077460      0x4b0 bin/blib.a(params.o)
 .debug_info    0x0000000000077910      0x1a1 bin/blib.a(pending.o)
 .debug_info    0x0000000000077ab1      0x14f bin/blib.a(random.o)
 .debug_info    0x0000000000077c00      0xe8d bin/blib.a(resolv.o)
 .debug_info    0x0000000000078a8d     0x2e31 bin/blib.a(aoe.o)
 .debug_info    0x000000000007b8be     0x1273 bin/blib.a(dhcppkt.o)
 .debug_info    0x000000000007cb31      0x9f8 bin/blib.a(fragment.o)
 .debug_info    0x000000000007d529      0x43f bin/blib.a(icmpv4.o)
 .debug_info    0x000000000007d968      0x253 bin/blib.a(socket.o)
 .debug_info    0x000000000007dbbb     0x35e8 bin/blib.a(tcp.o)
 .debug_info    0x00000000000811a3     0x13e5 bin/blib.a(ata.o)
 .debug_info    0x0000000000082588      0xacf bin/blib.a(smbios.o)
 .debug_info    0x0000000000083057      0x612 bin/blib.a(editstring.o)
 .debug_info    0x0000000000083669      0x7b7 bin/blib.a(readline.o)
 .debug_info    0x0000000000083e20      0x881 bin/blib.a(shell.o)
 .debug_info    0x00000000000846a1      0xaa7 bin/blib.a(route_ipv4.o)
 .debug_info    0x0000000000085148      0x99d bin/blib.a(hidemem.o)
 .debug_info    0x0000000000085ae5      0x1a9 bin/blib.a(bootsector.o)
 .debug_info    0x0000000000085c8e      0x89c bin/blib.a(bios_smbios.o)
 .debug_info    0x000000000008652a      0x6f9 bin/blib.a(icmp.o)

.debug_abbrev   0x0000000000000000    0x16dea
 .debug_abbrev  0x0000000000000000      0x4ce bin/blib.a(realtek.o)
 .debug_abbrev  0x00000000000004ce      0x1ae bin/blib.a(nvs.o)
 .debug_abbrev  0x000000000000067c      0x171 bin/blib.a(threewire.o)
 .debug_abbrev  0x00000000000007ed      0x22c bin/blib.a(spi_bit.o)
 .debug_abbrev  0x0000000000000a19       0x89 bin/blib.a(config.o)
 .debug_abbrev  0x0000000000000aa2      0x181 bin/blib.a(timer2.o)
 .debug_abbrev  0x0000000000000c23      0x21e bin/blib.a(bios_console.o)
 .debug_abbrev  0x0000000000000e41      0x373 bin/blib.a(bzimage.o)
 .debug_abbrev  0x00000000000011b4      0x2d0 bin/blib.a(elfboot.o)
 .debug_abbrev  0x0000000000001484      0x2e9 bin/blib.a(initrd.o)
 .debug_abbrev  0x000000000000176d      0x3f5 bin/blib.a(multiboot.o)
 .debug_abbrev  0x0000000000001b62      0x28d bin/blib.a(pxe_image.o)
 .debug_abbrev  0x0000000000001def      0x425 bin/blib.a(pxe_call.o)
 .debug_abbrev  0x0000000000002214      0x368 bin/blib.a(pxe_file.o)
 .debug_abbrev  0x000000000000257c      0x104 bin/blib.a(pxe_loader.o)
 .debug_abbrev  0x0000000000002680      0x3e0 bin/blib.a(pxe_preboot.o)
 .debug_abbrev  0x0000000000002a60      0x395 bin/blib.a(pxe_tftp.o)
 .debug_abbrev  0x0000000000002df5      0x354 bin/blib.a(pxe_udp.o)
 .debug_abbrev  0x0000000000003149      0x422 bin/blib.a(pxe_undi.o)
 .debug_abbrev  0x000000000000356b      0x10f bin/blib.a(x86_string.o)
 .debug_abbrev  0x000000000000367a      0x163 bin/blib.a(cpuid_cmd.o)
 .debug_abbrev  0x00000000000037dd      0x177 bin/blib.a(ansiesc.o)
 .debug_abbrev  0x0000000000003954      0x161 bin/blib.a(cpio.o)
 .debug_abbrev  0x0000000000003ab5      0x20d bin/blib.a(device.o)
 .debug_abbrev  0x0000000000003cc2      0x3dd bin/blib.a(exec.o)
 .debug_abbrev  0x000000000000409f      0x181 bin/blib.a(getopt.o)
 .debug_abbrev  0x0000000000004220      0x325 bin/blib.a(image.o)
 .debug_abbrev  0x0000000000004545       0xe0 bin/blib.a(init.o)
 .debug_abbrev  0x0000000000004625      0x26e bin/blib.a(interface.o)
 .debug_abbrev  0x0000000000004893      0x237 bin/blib.a(iobuf.o)
 .debug_abbrev  0x0000000000004aca      0x1c5 bin/blib.a(list.o)
 .debug_abbrev  0x0000000000004c8f       0x95 bin/blib.a(main.o)
 .debug_abbrev  0x0000000000004d24      0x341 bin/blib.a(malloc.o)
 .debug_abbrev  0x0000000000005065      0x146 bin/blib.a(memblock.o)
 .debug_abbrev  0x00000000000051ab      0x192 bin/blib.a(misc.o)
 .debug_abbrev  0x000000000000533d      0x35d bin/blib.a(nvo.o)
 .debug_abbrev  0x000000000000569a      0x28d bin/blib.a(open.o)
 .debug_abbrev  0x0000000000005927      0x2c4 bin/blib.a(parseopt.o)
 .debug_abbrev  0x0000000000005beb      0x323 bin/blib.a(posix_io.o)
 .debug_abbrev  0x0000000000005f0e      0x1cd bin/blib.a(process.o)
 .debug_abbrev  0x00000000000060db       0xb9 bin/blib.a(refcnt.o)
 .debug_abbrev  0x0000000000006194      0x5ae bin/blib.a(settings.o)
 .debug_abbrev  0x0000000000006742      0x1f2 bin/blib.a(string.o)
 .debug_abbrev  0x0000000000006934       0xc2 bin/blib.a(timer.o)
 .debug_abbrev  0x00000000000069f6      0x326 bin/blib.a(uri.o)
 .debug_abbrev  0x0000000000006d1c      0x138 bin/blib.a(uuid.o)
 .debug_abbrev  0x0000000000006e54      0x11d bin/blib.a(version.o)
 .debug_abbrev  0x0000000000006f71      0x2ff bin/blib.a(vsprintf.o)
 .debug_abbrev  0x0000000000007270      0x2e1 bin/blib.a(xfer.o)
 .debug_abbrev  0x0000000000007551      0x25f bin/blib.a(arp.o)
 .debug_abbrev  0x00000000000077b0      0x36d bin/blib.a(dhcpopts.o)
 .debug_abbrev  0x0000000000007b1d      0x2bb bin/blib.a(ethernet.o)
 .debug_abbrev  0x0000000000007dd8      0x266 bin/blib.a(eth_slow.o)
 .debug_abbrev  0x000000000000803e      0x22f bin/blib.a(fakedhcp.o)
 .debug_abbrev  0x000000000000826d      0x1c0 bin/blib.a(iobpad.o)
 .debug_abbrev  0x000000000000842d      0x436 bin/blib.a(ipv4.o)
 .debug_abbrev  0x0000000000008863      0x354 bin/blib.a(neighbour.o)
 .debug_abbrev  0x0000000000008bb7      0x47d bin/blib.a(netdevice.o)
 .debug_abbrev  0x0000000000009034      0x320 bin/blib.a(netdev_settings.o)
 .debug_abbrev  0x0000000000009354      0x169 bin/blib.a(nullnet.o)
 .debug_abbrev  0x00000000000094bd      0x154 bin/blib.a(rarp.o)
 .debug_abbrev  0x0000000000009611      0x1a8 bin/blib.a(retry.o)
 .debug_abbrev  0x00000000000097b9      0x1a5 bin/blib.a(tcpip.o)
 .debug_abbrev  0x000000000000995e      0x3f1 bin/blib.a(udp.o)
 .debug_abbrev  0x0000000000009d4f      0x15d bin/blib.a(http.o)
 .debug_abbrev  0x0000000000009eac      0x4b3 bin/blib.a(httpcore.o)
 .debug_abbrev  0x000000000000a35f      0x4d0 bin/blib.a(iscsi.o)
 .debug_abbrev  0x000000000000a82f      0x462 bin/blib.a(dhcp.o)
 .debug_abbrev  0x000000000000ac91      0x3c8 bin/blib.a(dns.o)
 .debug_abbrev  0x000000000000b059      0x49c bin/blib.a(tftp.o)
 .debug_abbrev  0x000000000000b4f5      0x265 bin/blib.a(elf.o)
 .debug_abbrev  0x000000000000b75a      0x14f bin/blib.a(embedded.o)
 .debug_abbrev  0x000000000000b8a9      0x421 bin/blib.a(script.o)
 .debug_abbrev  0x000000000000bcca      0x1d4 bin/blib.a(segment.o)
 .debug_abbrev  0x000000000000be9e      0x3b8 bin/blib.a(pci.o)
 .debug_abbrev  0x000000000000c256      0x296 bin/blib.a(pci_settings.o)
 .debug_abbrev  0x000000000000c4ec      0x1f8 bin/blib.a(mii.o)
 .debug_abbrev  0x000000000000c6e4      0x37d bin/blib.a(ibft.o)
 .debug_abbrev  0x000000000000ca61      0x46e bin/blib.a(scsi.o)
 .debug_abbrev  0x000000000000cecf       0xdd bin/blib.a(bitbash.o)
 .debug_abbrev  0x000000000000cfac      0x280 bin/blib.a(smbios_settings.o)
 .debug_abbrev  0x000000000000d22c      0x1a5 bin/blib.a(chap.o)
 .debug_abbrev  0x000000000000d3d1      0x2c2 bin/blib.a(md5.o)
 .debug_abbrev  0x000000000000d693      0x14c bin/blib.a(strerror.o)
 .debug_abbrev  0x000000000000d7df      0x154 bin/blib.a(autoboot_cmd.o)
 .debug_abbrev  0x000000000000d933      0x186 bin/blib.a(config_cmd.o)
 .debug_abbrev  0x000000000000dab9      0x203 bin/blib.a(dhcp_cmd.o)
 .debug_abbrev  0x000000000000dcbc      0x1d6 bin/blib.a(ifmgmt_cmd.o)
 .debug_abbrev  0x000000000000de92      0x2c9 bin/blib.a(image_cmd.o)
 .debug_abbrev  0x000000000000e15b      0x186 bin/blib.a(login_cmd.o)
 .debug_abbrev  0x000000000000e2e1      0x1b5 bin/blib.a(menu_cmd.o)
 .debug_abbrev  0x000000000000e496      0x2af bin/blib.a(nvo_cmd.o)
 .debug_abbrev  0x000000000000e745      0x145 bin/blib.a(reboot_cmd.o)
 .debug_abbrev  0x000000000000e88a      0x143 bin/blib.a(route_cmd.o)
 .debug_abbrev  0x000000000000e9cd      0x235 bin/blib.a(sanboot_cmd.o)
 .debug_abbrev  0x000000000000ec02      0x163 bin/blib.a(sync_cmd.o)
 .debug_abbrev  0x000000000000ed65      0x1bd bin/blib.a(login_ui.o)
 .debug_abbrev  0x000000000000ef22      0x321 bin/blib.a(menu_ui.o)
 .debug_abbrev  0x000000000000f243      0x3fb bin/blib.a(settings_ui.o)
 .debug_abbrev  0x000000000000f63e      0x1c4 bin/blib.a(ansi_screen.o)
 .debug_abbrev  0x000000000000f802      0x143 bin/blib.a(clear.o)
 .debug_abbrev  0x000000000000f945      0x129 bin/blib.a(colour.o)
 .debug_abbrev  0x000000000000fa6e      0x198 bin/blib.a(mucurses.o)
 .debug_abbrev  0x000000000000fc06      0x174 bin/blib.a(print.o)
 .debug_abbrev  0x000000000000fd7a      0x190 bin/blib.a(winattrs.o)
 .debug_abbrev  0x000000000000ff0a      0x152 bin/blib.a(wininit.o)
 .debug_abbrev  0x000000000001005c      0x223 bin/blib.a(editbox.o)
 .debug_abbrev  0x000000000001027f       0x8e bin/blib.a(keymap_us.o)
 .debug_abbrev  0x000000000001030d      0x3f2 bin/blib.a(autoboot.o)
 .debug_abbrev  0x00000000000106ff      0x156 bin/blib.a(dhcpmgmt.o)
 .debug_abbrev  0x0000000000010855      0x1ed bin/blib.a(ifmgmt.o)
 .debug_abbrev  0x0000000000010a42      0x1db bin/blib.a(imgmgmt.o)
 .debug_abbrev  0x0000000000010c1d       0xc5 bin/blib.a(prompt.o)
 .debug_abbrev  0x0000000000010ce2      0x383 bin/blib.a(pxemenu.o)
 .debug_abbrev  0x0000000000011065      0x14e bin/blib.a(route.o)
 .debug_abbrev  0x00000000000111b3       0x69 bin/blib.a(config_ethernet.o)
 .debug_abbrev  0x000000000001121c       0x69 bin/blib.a(config_romprefix.o)
 .debug_abbrev  0x0000000000011285       0x69 bin/blib.a(config_route.o)
 .debug_abbrev  0x00000000000112ee       0x79 bin/blib.a(basemem_packet.o)
 .debug_abbrev  0x0000000000011367      0x1fa bin/blib.a(relocate.o)
 .debug_abbrev  0x0000000000011561      0x2dc bin/blib.a(memmap.o)
 .debug_abbrev  0x000000000001183d      0x234 bin/blib.a(biosint.o)
 .debug_abbrev  0x0000000000011a71       0x71 bin/blib.a(bios_nap.o)
 .debug_abbrev  0x0000000000011ae2      0x1cf bin/blib.a(bios_reboot.o)
 .debug_abbrev  0x0000000000011cb1      0x1cb bin/blib.a(bios_timer.o)
 .debug_abbrev  0x0000000000011e7c      0x50c bin/blib.a(int13.o)
 .debug_abbrev  0x0000000000012388      0x21b bin/blib.a(memtop_umalloc.o)
 .debug_abbrev  0x00000000000125a3      0x179 bin/blib.a(pcibios.o)
 .debug_abbrev  0x000000000001271c      0x1b0 bin/blib.a(cpuid.o)
 .debug_abbrev  0x00000000000128cc       0xe0 bin/blib.a(x86_tcpip.o)
 .debug_abbrev  0x00000000000129ac      0x156 bin/blib.a(acpi.o)
 .debug_abbrev  0x0000000000012b02      0x124 bin/blib.a(asprintf.o)
 .debug_abbrev  0x0000000000012c26      0x10c bin/blib.a(base16.o)
 .debug_abbrev  0x0000000000012d32      0x19e bin/blib.a(base64.o)
 .debug_abbrev  0x0000000000012ed0       0x8d bin/blib.a(basename.o)
 .debug_abbrev  0x0000000000012f5d       0xed bin/blib.a(bitmap.o)
 .debug_abbrev  0x000000000001304a       0x93 bin/blib.a(bitops.o)
 .debug_abbrev  0x00000000000130dd      0x14d bin/blib.a(blockdev.o)
 .debug_abbrev  0x000000000001322a      0x11a bin/blib.a(console.o)
 .debug_abbrev  0x0000000000013344       0x75 bin/blib.a(ctype.o)
 .debug_abbrev  0x00000000000133b9      0x11f bin/blib.a(cwuri.o)
 .debug_abbrev  0x00000000000134d8      0x2ed bin/blib.a(downloader.o)
 .debug_abbrev  0x00000000000137c5      0x157 bin/blib.a(edd.o)
 .debug_abbrev  0x000000000001391c       0x4b bin/blib.a(errno.o)
 .debug_abbrev  0x0000000000013967       0xcc bin/blib.a(getkey.o)
 .debug_abbrev  0x0000000000013a33      0x16d bin/blib.a(job.o)
 .debug_abbrev  0x0000000000013ba0      0x1aa bin/blib.a(linebuf.o)
 .debug_abbrev  0x0000000000013d4a      0x176 bin/blib.a(menu.o)
 .debug_abbrev  0x0000000000013ec0      0x15f bin/blib.a(monojob.o)
 .debug_abbrev  0x000000000001401f      0x1cc bin/blib.a(params.o)
 .debug_abbrev  0x00000000000141eb       0xf1 bin/blib.a(pending.o)
 .debug_abbrev  0x00000000000142dc       0xe1 bin/blib.a(random.o)
 .debug_abbrev  0x00000000000143bd      0x377 bin/blib.a(resolv.o)
 .debug_abbrev  0x0000000000014734      0x491 bin/blib.a(aoe.o)
 .debug_abbrev  0x0000000000014bc5      0x33e bin/blib.a(dhcppkt.o)
 .debug_abbrev  0x0000000000014f03      0x225 bin/blib.a(fragment.o)
 .debug_abbrev  0x0000000000015128      0x17a bin/blib.a(icmpv4.o)
 .debug_abbrev  0x00000000000152a2      0x122 bin/blib.a(socket.o)
 .debug_abbrev  0x00000000000153c4      0x459 bin/blib.a(tcp.o)
 .debug_abbrev  0x000000000001581d      0x372 bin/blib.a(ata.o)
 .debug_abbrev  0x0000000000015b8f      0x26d bin/blib.a(smbios.o)
 .debug_abbrev  0x0000000000015dfc      0x1fd bin/blib.a(editstring.o)
 .debug_abbrev  0x0000000000015ff9      0x279 bin/blib.a(readline.o)
 .debug_abbrev  0x0000000000016272      0x214 bin/blib.a(shell.o)
 .debug_abbrev  0x0000000000016486      0x1a2 bin/blib.a(route_ipv4.o)
 .debug_abbrev  0x0000000000016628      0x2c1 bin/blib.a(hidemem.o)
 .debug_abbrev  0x00000000000168e9       0xcd bin/blib.a(bootsector.o)
 .debug_abbrev  0x00000000000169b6      0x224 bin/blib.a(bios_smbios.o)
 .debug_abbrev  0x0000000000016bda      0x210 bin/blib.a(icmp.o)

.debug_loc      0x0000000000000000    0x3d996
 .debug_loc     0x0000000000000000     0x1ef1 bin/blib.a(realtek.o)
 .debug_loc     0x0000000000001ef1      0x509 bin/blib.a(nvs.o)
 .debug_loc     0x00000000000023fa      0x2d5 bin/blib.a(threewire.o)
 .debug_loc     0x00000000000026cf      0x514 bin/blib.a(spi_bit.o)
 .debug_loc     0x0000000000002be3       0x8a bin/blib.a(timer2.o)
 .debug_loc     0x0000000000002c6d      0x2ad bin/blib.a(bios_console.o)
 .debug_loc     0x0000000000002f1a     0x1566 bin/blib.a(bzimage.o)
 .debug_loc     0x0000000000004480      0x124 bin/blib.a(elfboot.o)
 .debug_loc     0x00000000000045a4      0xa7b bin/blib.a(initrd.o)
 .debug_loc     0x000000000000501f      0xb54 bin/blib.a(multiboot.o)
 .debug_loc     0x0000000000005b73      0x175 bin/blib.a(pxe_image.o)
 .debug_loc     0x0000000000005ce8      0x740 bin/blib.a(pxe_call.o)
 .debug_loc     0x0000000000006428      0x85e bin/blib.a(pxe_file.o)
 .debug_loc     0x0000000000006c86       0x4a bin/blib.a(pxe_loader.o)
 .debug_loc     0x0000000000006cd0      0x351 bin/blib.a(pxe_preboot.o)
 .debug_loc     0x0000000000007021      0x85e bin/blib.a(pxe_tftp.o)
 .debug_loc     0x000000000000787f      0x617 bin/blib.a(pxe_udp.o)
 .debug_loc     0x0000000000007e96     0x1174 bin/blib.a(pxe_undi.o)
 .debug_loc     0x000000000000900a      0x2c7 bin/blib.a(x86_string.o)
 .debug_loc     0x00000000000092d1      0x10a bin/blib.a(cpuid_cmd.o)
 .debug_loc     0x00000000000093db      0x1a2 bin/blib.a(ansiesc.o)
 .debug_loc     0x000000000000957d       0xc4 bin/blib.a(cpio.o)
 .debug_loc     0x0000000000009641      0x2d7 bin/blib.a(device.o)
 .debug_loc     0x0000000000009918      0xaa5 bin/blib.a(exec.o)
 .debug_loc     0x000000000000a3bd      0x1f5 bin/blib.a(getopt.o)
 .debug_loc     0x000000000000a5b2      0x93d bin/blib.a(image.o)
 .debug_loc     0x000000000000aeef      0x103 bin/blib.a(init.o)
 .debug_loc     0x000000000000aff2      0x611 bin/blib.a(interface.o)
 .debug_loc     0x000000000000b603      0x59d bin/blib.a(iobuf.o)
 .debug_loc     0x000000000000bba0      0x382 bin/blib.a(list.o)
 .debug_loc     0x000000000000bf22       0x44 bin/blib.a(main.o)
 .debug_loc     0x000000000000bf66      0x7e0 bin/blib.a(malloc.o)
 .debug_loc     0x000000000000c746      0x160 bin/blib.a(memblock.o)
 .debug_loc     0x000000000000c8a6      0x363 bin/blib.a(misc.o)
 .debug_loc     0x000000000000cc09      0x660 bin/blib.a(nvo.o)
 .debug_loc     0x000000000000d269      0x599 bin/blib.a(open.o)
 .debug_loc     0x000000000000d802      0x7e5 bin/blib.a(parseopt.o)
 .debug_loc     0x000000000000dfe7      0x850 bin/blib.a(posix_io.o)
 .debug_loc     0x000000000000e837      0x28a bin/blib.a(process.o)
 .debug_loc     0x000000000000eac1       0x29 bin/blib.a(refcnt.o)
 .debug_loc     0x000000000000eaea     0x4487 bin/blib.a(settings.o)
 .debug_loc     0x0000000000012f71      0x6c6 bin/blib.a(string.o)
 .debug_loc     0x0000000000013637       0x94 bin/blib.a(timer.o)
 .debug_loc     0x00000000000136cb      0xe1c bin/blib.a(uri.o)
 .debug_loc     0x00000000000144e7      0x1a0 bin/blib.a(uuid.o)
 .debug_loc     0x0000000000014687      0xb09 bin/blib.a(vsprintf.o)
 .debug_loc     0x0000000000015190      0x867 bin/blib.a(xfer.o)
 .debug_loc     0x00000000000159f7      0x691 bin/blib.a(arp.o)
 .debug_loc     0x0000000000016088      0xa23 bin/blib.a(dhcpopts.o)
 .debug_loc     0x0000000000016aab      0x3cf bin/blib.a(ethernet.o)
 .debug_loc     0x0000000000016e7a       0xe0 bin/blib.a(eth_slow.o)
 .debug_loc     0x0000000000016f5a      0x54a bin/blib.a(fakedhcp.o)
 .debug_loc     0x00000000000174a4      0x21d bin/blib.a(iobpad.o)
 .debug_loc     0x00000000000176c1      0xf08 bin/blib.a(ipv4.o)
 .debug_loc     0x00000000000185c9      0xf43 bin/blib.a(neighbour.o)
 .debug_loc     0x000000000001950c     0x162d bin/blib.a(netdevice.o)
 .debug_loc     0x000000000001ab39      0x801 bin/blib.a(netdev_settings.o)
 .debug_loc     0x000000000001b33a       0x26 bin/blib.a(nullnet.o)
 .debug_loc     0x000000000001b360       0x4c bin/blib.a(rarp.o)
 .debug_loc     0x000000000001b3ac      0x34a bin/blib.a(retry.o)
 .debug_loc     0x000000000001b6f6      0x4f0 bin/blib.a(tcpip.o)
 .debug_loc     0x000000000001bbe6      0xb25 bin/blib.a(udp.o)
 .debug_loc     0x000000000001c70b       0x52 bin/blib.a(http.o)
 .debug_loc     0x000000000001c75d     0x1dd7 bin/blib.a(httpcore.o)
 .debug_loc     0x000000000001e534     0x2ebd bin/blib.a(iscsi.o)
 .debug_loc     0x00000000000213f1     0x1e99 bin/blib.a(dhcp.o)
 .debug_loc     0x000000000002328a      0xb37 bin/blib.a(dns.o)
 .debug_loc     0x0000000000023dc1     0x18f6 bin/blib.a(tftp.o)
 .debug_loc     0x00000000000256b7      0x4b2 bin/blib.a(elf.o)
 .debug_loc     0x0000000000025b69       0x61 bin/blib.a(embedded.o)
 .debug_loc     0x0000000000025bca      0x95b bin/blib.a(script.o)
 .debug_loc     0x0000000000026525      0x217 bin/blib.a(segment.o)
 .debug_loc     0x000000000002673c      0xb14 bin/blib.a(pci.o)
 .debug_loc     0x0000000000027250      0x1ae bin/blib.a(pci_settings.o)
 .debug_loc     0x00000000000273fe      0x1c2 bin/blib.a(mii.o)
 .debug_loc     0x00000000000275c0      0x791 bin/blib.a(ibft.o)
 .debug_loc     0x0000000000027d51     0x1500 bin/blib.a(scsi.o)
 .debug_loc     0x0000000000029251       0x8b bin/blib.a(bitbash.o)
 .debug_loc     0x00000000000292dc      0x3db bin/blib.a(smbios_settings.o)
 .debug_loc     0x00000000000296b7      0x238 bin/blib.a(chap.o)
 .debug_loc     0x00000000000298ef      0x385 bin/blib.a(md5.o)
 .debug_loc     0x0000000000029c74      0x12c bin/blib.a(strerror.o)
 .debug_loc     0x0000000000029da0       0x5e bin/blib.a(autoboot_cmd.o)
 .debug_loc     0x0000000000029dfe       0xbc bin/blib.a(config_cmd.o)
 .debug_loc     0x0000000000029eba      0x269 bin/blib.a(dhcp_cmd.o)
 .debug_loc     0x000000000002a123      0x2df bin/blib.a(ifmgmt_cmd.o)
 .debug_loc     0x000000000002a402      0x3f8 bin/blib.a(image_cmd.o)
 .debug_loc     0x000000000002a7fa       0x8c bin/blib.a(login_cmd.o)
 .debug_loc     0x000000000002a886      0x4a2 bin/blib.a(menu_cmd.o)
 .debug_loc     0x000000000002ad28      0x73a bin/blib.a(nvo_cmd.o)
 .debug_loc     0x000000000002b462       0xab bin/blib.a(reboot_cmd.o)
 .debug_loc     0x000000000002b50d       0x7d bin/blib.a(route_cmd.o)
 .debug_loc     0x000000000002b58a      0x374 bin/blib.a(sanboot_cmd.o)
 .debug_loc     0x000000000002b8fe       0x8c bin/blib.a(sync_cmd.o)
 .debug_loc     0x000000000002b98a      0x1e1 bin/blib.a(login_ui.o)
 .debug_loc     0x000000000002bb6b      0xa08 bin/blib.a(menu_ui.o)
 .debug_loc     0x000000000002c573      0xa5d bin/blib.a(settings_ui.o)
 .debug_loc     0x000000000002cfd0      0x32c bin/blib.a(ansi_screen.o)
 .debug_loc     0x000000000002d2fc      0x35e bin/blib.a(clear.o)
 .debug_loc     0x000000000002d65a      0x143 bin/blib.a(colour.o)
 .debug_loc     0x000000000002d79d      0x3d0 bin/blib.a(mucurses.o)
 .debug_loc     0x000000000002db6d      0x12e bin/blib.a(print.o)
 .debug_loc     0x000000000002dc9b      0x1e0 bin/blib.a(winattrs.o)
 .debug_loc     0x000000000002de7b       0x44 bin/blib.a(wininit.o)
 .debug_loc     0x000000000002debf      0x344 bin/blib.a(editbox.o)
 .debug_loc     0x000000000002e203      0x7f7 bin/blib.a(autoboot.o)
 .debug_loc     0x000000000002e9fa      0x1d9 bin/blib.a(dhcpmgmt.o)
 .debug_loc     0x000000000002ebd3      0x418 bin/blib.a(ifmgmt.o)
 .debug_loc     0x000000000002efeb      0x3fc bin/blib.a(imgmgmt.o)
 .debug_loc     0x000000000002f3e7       0xa4 bin/blib.a(prompt.o)
 .debug_loc     0x000000000002f48b      0x4f8 bin/blib.a(pxemenu.o)
 .debug_loc     0x000000000002f983       0xad bin/blib.a(route.o)
 .debug_loc     0x000000000002fa30      0x199 bin/blib.a(relocate.o)
 .debug_loc     0x000000000002fbc9      0x342 bin/blib.a(memmap.o)
 .debug_loc     0x000000000002ff0b      0x2a0 bin/blib.a(biosint.o)
 .debug_loc     0x00000000000301ab       0x13 bin/blib.a(bios_reboot.o)
 .debug_loc     0x00000000000301be      0x195 bin/blib.a(bios_timer.o)
 .debug_loc     0x0000000000030353     0x289e bin/blib.a(int13.o)
 .debug_loc     0x0000000000032bf1      0x7a4 bin/blib.a(memtop_umalloc.o)
 .debug_loc     0x0000000000033395      0x1d9 bin/blib.a(pcibios.o)
 .debug_loc     0x000000000003356e      0x2c1 bin/blib.a(cpuid.o)
 .debug_loc     0x000000000003382f      0x1c2 bin/blib.a(x86_tcpip.o)
 .debug_loc     0x00000000000339f1      0x1ad bin/blib.a(acpi.o)
 .debug_loc     0x0000000000033b9e      0x13a bin/blib.a(asprintf.o)
 .debug_loc     0x0000000000033cd8      0x377 bin/blib.a(base16.o)
 .debug_loc     0x000000000003404f      0x3e5 bin/blib.a(base64.o)
 .debug_loc     0x0000000000034434       0xc5 bin/blib.a(basename.o)
 .debug_loc     0x00000000000344f9      0x230 bin/blib.a(bitmap.o)
 .debug_loc     0x0000000000034729       0x45 bin/blib.a(bitops.o)
 .debug_loc     0x000000000003476e      0x475 bin/blib.a(blockdev.o)
 .debug_loc     0x0000000000034be3       0xf5 bin/blib.a(console.o)
 .debug_loc     0x0000000000034cd8       0x20 bin/blib.a(ctype.o)
 .debug_loc     0x0000000000034cf8       0x8f bin/blib.a(cwuri.o)
 .debug_loc     0x0000000000034d87      0x439 bin/blib.a(downloader.o)
 .debug_loc     0x00000000000351c0      0x143 bin/blib.a(edd.o)
 .debug_loc     0x0000000000035303      0x159 bin/blib.a(getkey.o)
 .debug_loc     0x000000000003545c      0x104 bin/blib.a(job.o)
 .debug_loc     0x0000000000035560      0x20c bin/blib.a(linebuf.o)
 .debug_loc     0x000000000003576c      0x51f bin/blib.a(menu.o)
 .debug_loc     0x0000000000035c8b      0x1a2 bin/blib.a(monojob.o)
 .debug_loc     0x0000000000035e2d      0x484 bin/blib.a(params.o)
 .debug_loc     0x00000000000362b1       0x75 bin/blib.a(pending.o)
 .debug_loc     0x0000000000036326       0x52 bin/blib.a(random.o)
 .debug_loc     0x0000000000036378      0xae8 bin/blib.a(resolv.o)
 .debug_loc     0x0000000000036e60     0x186f bin/blib.a(aoe.o)
 .debug_loc     0x00000000000386cf      0x43a bin/blib.a(dhcppkt.o)
 .debug_loc     0x0000000000038b09      0x50d bin/blib.a(fragment.o)
 .debug_loc     0x0000000000039016      0x1b7 bin/blib.a(icmpv4.o)
 .debug_loc     0x00000000000391cd      0x107 bin/blib.a(socket.o)
 .debug_loc     0x00000000000392d4     0x1f6f bin/blib.a(tcp.o)
 .debug_loc     0x000000000003b243      0xb60 bin/blib.a(ata.o)
 .debug_loc     0x000000000003bda3      0x83c bin/blib.a(smbios.o)
 .debug_loc     0x000000000003c5df      0x44a bin/blib.a(editstring.o)
 .debug_loc     0x000000000003ca29      0x325 bin/blib.a(readline.o)
 .debug_loc     0x000000000003cd4e      0x24c bin/blib.a(shell.o)
 .debug_loc     0x000000000003cf9a      0x104 bin/blib.a(route_ipv4.o)
 .debug_loc     0x000000000003d09e      0x11f bin/blib.a(hidemem.o)
 .debug_loc     0x000000000003d1bd       0xce bin/blib.a(bootsector.o)
 .debug_loc     0x000000000003d28b      0x254 bin/blib.a(bios_smbios.o)
 .debug_loc     0x000000000003d4df      0x4b7 bin/blib.a(icmp.o)

.debug_aranges  0x0000000000000000     0x2dd0
 .debug_aranges
                0x0000000000000000       0xa8 bin/blib.a(realtek.o)
 .debug_aranges
                0x00000000000000a8       0x30 bin/blib.a(nvs.o)
 .debug_aranges
                0x00000000000000d8       0x30 bin/blib.a(threewire.o)
 .debug_aranges
                0x0000000000000108       0x38 bin/blib.a(spi_bit.o)
 .debug_aranges
                0x0000000000000140       0x20 bin/blib.a(timer2.o)
 .debug_aranges
                0x0000000000000160       0x48 bin/blib.a(bios_console.o)
 .debug_aranges
                0x00000000000001a8       0x38 bin/blib.a(bzimage.o)
 .debug_aranges
                0x00000000000001e0       0x28 bin/blib.a(elfboot.o)
 .debug_aranges
                0x0000000000000208       0x30 bin/blib.a(initrd.o)
 .debug_aranges
                0x0000000000000238       0x38 bin/blib.a(multiboot.o)
 .debug_aranges
                0x0000000000000270       0x28 bin/blib.a(pxe_image.o)
 .debug_aranges
                0x0000000000000298       0x58 bin/blib.a(pxe_call.o)
 .debug_aranges
                0x00000000000002f0       0x58 bin/blib.a(pxe_file.o)
 .debug_aranges
                0x0000000000000348       0x20 bin/blib.a(pxe_loader.o)
 .debug_aranges
                0x0000000000000368       0x50 bin/blib.a(pxe_preboot.o)
 .debug_aranges
                0x00000000000003b8       0x60 bin/blib.a(pxe_tftp.o)
 .debug_aranges
                0x0000000000000418       0x40 bin/blib.a(pxe_udp.o)
 .debug_aranges
                0x0000000000000458       0xd0 bin/blib.a(pxe_undi.o)
 .debug_aranges
                0x0000000000000528       0x48 bin/blib.a(x86_string.o)
 .debug_aranges
                0x0000000000000570       0x20 bin/blib.a(cpuid_cmd.o)
 .debug_aranges
                0x0000000000000590       0x20 bin/blib.a(ansiesc.o)
 .debug_aranges
                0x00000000000005b0       0x20 bin/blib.a(cpio.o)
 .debug_aranges
                0x00000000000005d0       0x30 bin/blib.a(device.o)
 .debug_aranges
                0x0000000000000600       0x88 bin/blib.a(exec.o)
 .debug_aranges
                0x0000000000000688       0x28 bin/blib.a(getopt.o)
 .debug_aranges
                0x00000000000006b0       0x80 bin/blib.a(image.o)
 .debug_aranges
                0x0000000000000730       0x30 bin/blib.a(init.o)
 .debug_aranges
                0x0000000000000760       0x78 bin/blib.a(interface.o)
 .debug_aranges
                0x00000000000007d8       0x40 bin/blib.a(iobuf.o)
 .debug_aranges
                0x0000000000000818       0x78 bin/blib.a(list.o)
 .debug_aranges
                0x0000000000000890       0x20 bin/blib.a(main.o)
 .debug_aranges
                0x00000000000008b0       0x68 bin/blib.a(malloc.o)
 .debug_aranges
                0x0000000000000918       0x20 bin/blib.a(memblock.o)
 .debug_aranges
                0x0000000000000938       0x30 bin/blib.a(misc.o)
 .debug_aranges
                0x0000000000000968       0x58 bin/blib.a(nvo.o)
 .debug_aranges
                0x00000000000009c0       0x50 bin/blib.a(open.o)
 .debug_aranges
                0x0000000000000a10       0x88 bin/blib.a(parseopt.o)
 .debug_aranges
                0x0000000000000a98       0x60 bin/blib.a(posix_io.o)
 .debug_aranges
                0x0000000000000af8       0x40 bin/blib.a(process.o)
 .debug_aranges
                0x0000000000000b38       0x30 bin/blib.a(refcnt.o)
 .debug_aranges
                0x0000000000000b68      0x268 bin/blib.a(settings.o)
 .debug_aranges
                0x0000000000000dd0       0x80 bin/blib.a(string.o)
 .debug_aranges
                0x0000000000000e50       0x28 bin/blib.a(timer.o)
 .debug_aranges
                0x0000000000000e78       0x60 bin/blib.a(uri.o)
 .debug_aranges
                0x0000000000000ed8       0x20 bin/blib.a(uuid.o)
 .debug_aranges
                0x0000000000000ef8       0x68 bin/blib.a(vsprintf.o)
 .debug_aranges
                0x0000000000000f60       0x78 bin/blib.a(xfer.o)
 .debug_aranges
                0x0000000000000fd8       0x30 bin/blib.a(arp.o)
 .debug_aranges
                0x0000000000001008       0x58 bin/blib.a(dhcpopts.o)
 .debug_aranges
                0x0000000000001060       0x58 bin/blib.a(ethernet.o)
 .debug_aranges
                0x00000000000010b8       0x20 bin/blib.a(eth_slow.o)
 .debug_aranges
                0x00000000000010d8       0x38 bin/blib.a(fakedhcp.o)
 .debug_aranges
                0x0000000000001110       0x20 bin/blib.a(iobpad.o)
 .debug_aranges
                0x0000000000001130       0x80 bin/blib.a(ipv4.o)
 .debug_aranges
                0x00000000000011b0       0x78 bin/blib.a(neighbour.o)
 .debug_aranges
                0x0000000000001228      0x120 bin/blib.a(netdevice.o)
 .debug_aranges
                0x0000000000001348       0x70 bin/blib.a(netdev_settings.o)
 .debug_aranges
                0x00000000000013b8       0x40 bin/blib.a(nullnet.o)
 .debug_aranges
                0x00000000000013f8       0x28 bin/blib.a(rarp.o)
 .debug_aranges
                0x0000000000001420       0x40 bin/blib.a(retry.o)
 .debug_aranges
                0x0000000000001460       0x40 bin/blib.a(tcpip.o)
 .debug_aranges
                0x00000000000014a0       0x60 bin/blib.a(udp.o)
 .debug_aranges
                0x0000000000001500       0x20 bin/blib.a(http.o)
 .debug_aranges
                0x0000000000001520       0xf8 bin/blib.a(httpcore.o)
 .debug_aranges
                0x0000000000001618      0x110 bin/blib.a(iscsi.o)
 .debug_aranges
                0x0000000000001728       0xd0 bin/blib.a(dhcp.o)
 .debug_aranges
                0x00000000000017f8       0x58 bin/blib.a(dns.o)
 .debug_aranges
                0x0000000000001850       0xc8 bin/blib.a(tftp.o)
 .debug_aranges
                0x0000000000001918       0x20 bin/blib.a(elf.o)
 .debug_aranges
                0x0000000000001938       0x20 bin/blib.a(embedded.o)
 .debug_aranges
                0x0000000000001958       0x60 bin/blib.a(script.o)
 .debug_aranges
                0x00000000000019b8       0x20 bin/blib.a(segment.o)
 .debug_aranges
                0x00000000000019d8       0x68 bin/blib.a(pci.o)
 .debug_aranges
                0x0000000000001a40       0x30 bin/blib.a(pci_settings.o)
 .debug_aranges
                0x0000000000001a70       0x28 bin/blib.a(mii.o)
 .debug_aranges
                0x0000000000001a98       0x30 bin/blib.a(ibft.o)
 .debug_aranges
                0x0000000000001ac8       0xc8 bin/blib.a(scsi.o)
 .debug_aranges
                0x0000000000001b90       0x28 bin/blib.a(bitbash.o)
 .debug_aranges
                0x0000000000001bb8       0x30 bin/blib.a(smbios_settings.o)
 .debug_aranges
                0x0000000000001be8       0x38 bin/blib.a(chap.o)
 .debug_aranges
                0x0000000000001c20       0x50 bin/blib.a(md5.o)
 .debug_aranges
                0x0000000000001c70       0x20 bin/blib.a(strerror.o)
 .debug_aranges
                0x0000000000001c90       0x20 bin/blib.a(autoboot_cmd.o)
 .debug_aranges
                0x0000000000001cb0       0x20 bin/blib.a(config_cmd.o)
 .debug_aranges
                0x0000000000001cd0       0x30 bin/blib.a(dhcp_cmd.o)
 .debug_aranges
                0x0000000000001d00       0x50 bin/blib.a(ifmgmt_cmd.o)
 .debug_aranges
                0x0000000000001d50       0x70 bin/blib.a(image_cmd.o)
 .debug_aranges
                0x0000000000001dc0       0x20 bin/blib.a(login_cmd.o)
 .debug_aranges
                0x0000000000001de0       0x30 bin/blib.a(menu_cmd.o)
 .debug_aranges
                0x0000000000001e10       0x60 bin/blib.a(nvo_cmd.o)
 .debug_aranges
                0x0000000000001e70       0x20 bin/blib.a(reboot_cmd.o)
 .debug_aranges
                0x0000000000001e90       0x20 bin/blib.a(route_cmd.o)
 .debug_aranges
                0x0000000000001eb0       0x38 bin/blib.a(sanboot_cmd.o)
 .debug_aranges
                0x0000000000001ee8       0x20 bin/blib.a(sync_cmd.o)
 .debug_aranges
                0x0000000000001f08       0x20 bin/blib.a(login_ui.o)
 .debug_aranges
                0x0000000000001f28       0x30 bin/blib.a(menu_ui.o)
 .debug_aranges
                0x0000000000001f58       0x78 bin/blib.a(settings_ui.o)
 .debug_aranges
                0x0000000000001fd0       0x48 bin/blib.a(ansi_screen.o)
 .debug_aranges
                0x0000000000002018       0x40 bin/blib.a(clear.o)
 .debug_aranges
                0x0000000000002058       0x30 bin/blib.a(colour.o)
 .debug_aranges
                0x0000000000002088       0x50 bin/blib.a(mucurses.o)
 .debug_aranges
                0x00000000000020d8       0x40 bin/blib.a(print.o)
 .debug_aranges
                0x0000000000002118       0x60 bin/blib.a(winattrs.o)
 .debug_aranges
                0x0000000000002178       0x28 bin/blib.a(wininit.o)
 .debug_aranges
                0x00000000000021a0       0x28 bin/blib.a(editbox.o)
 .debug_aranges
                0x00000000000021c8       0x60 bin/blib.a(autoboot.o)
 .debug_aranges
                0x0000000000002228       0x28 bin/blib.a(dhcpmgmt.o)
 .debug_aranges
                0x0000000000002250       0x40 bin/blib.a(ifmgmt.o)
 .debug_aranges
                0x0000000000002290       0x38 bin/blib.a(imgmgmt.o)
 .debug_aranges
                0x00000000000022c8       0x20 bin/blib.a(prompt.o)
 .debug_aranges
                0x00000000000022e8       0x38 bin/blib.a(pxemenu.o)
 .debug_aranges
                0x0000000000002320       0x20 bin/blib.a(route.o)
 .debug_aranges
                0x0000000000002340       0x20 bin/blib.a(relocate.o)
 .debug_aranges
                0x0000000000002360       0x28 bin/blib.a(memmap.o)
 .debug_aranges
                0x0000000000002388       0x28 bin/blib.a(biosint.o)
 .debug_aranges
                0x00000000000023b0       0x20 bin/blib.a(bios_nap.o)
 .debug_aranges
                0x00000000000023d0       0x20 bin/blib.a(bios_reboot.o)
 .debug_aranges
                0x00000000000023f0       0x20 bin/blib.a(bios_timer.o)
 .debug_aranges
                0x0000000000002410       0xb8 bin/blib.a(int13.o)
 .debug_aranges
                0x00000000000024c8       0x20 bin/blib.a(memtop_umalloc.o)
 .debug_aranges
                0x00000000000024e8       0x30 bin/blib.a(pcibios.o)
 .debug_aranges
                0x0000000000002518       0x28 bin/blib.a(cpuid.o)
 .debug_aranges
                0x0000000000002540       0x20 bin/blib.a(x86_tcpip.o)
 .debug_aranges
                0x0000000000002560       0x28 bin/blib.a(acpi.o)
 .debug_aranges
                0x0000000000002588       0x28 bin/blib.a(asprintf.o)
 .debug_aranges
                0x00000000000025b0       0x30 bin/blib.a(base16.o)
 .debug_aranges
                0x00000000000025e0       0x28 bin/blib.a(base64.o)
 .debug_aranges
                0x0000000000002608       0x28 bin/blib.a(basename.o)
 .debug_aranges
                0x0000000000002630       0x30 bin/blib.a(bitmap.o)
 .debug_aranges
                0x0000000000002660       0x20 bin/blib.a(bitops.o)
 .debug_aranges
                0x0000000000002680       0x38 bin/blib.a(blockdev.o)
 .debug_aranges
                0x00000000000026b8       0x38 bin/blib.a(console.o)
 .debug_aranges
                0x00000000000026f0       0x20 bin/blib.a(ctype.o)
 .debug_aranges
                0x0000000000002710       0x20 bin/blib.a(cwuri.o)
 .debug_aranges
                0x0000000000002730       0x40 bin/blib.a(downloader.o)
 .debug_aranges
                0x0000000000002770       0x20 bin/blib.a(edd.o)
 .debug_aranges
                0x0000000000002790       0x28 bin/blib.a(getkey.o)
 .debug_aranges
                0x00000000000027b8       0x20 bin/blib.a(job.o)
 .debug_aranges
                0x00000000000027d8       0x30 bin/blib.a(linebuf.o)
 .debug_aranges
                0x0000000000002808       0x38 bin/blib.a(menu.o)
 .debug_aranges
                0x0000000000002840       0x28 bin/blib.a(monojob.o)
 .debug_aranges
                0x0000000000002868       0x40 bin/blib.a(params.o)
 .debug_aranges
                0x00000000000028a8       0x30 bin/blib.a(pending.o)
 .debug_aranges
                0x00000000000028d8       0x28 bin/blib.a(random.o)
 .debug_aranges
                0x0000000000002900       0x68 bin/blib.a(resolv.o)
 .debug_aranges
                0x0000000000002968       0xc0 bin/blib.a(aoe.o)
 .debug_aranges
                0x0000000000002a28       0x58 bin/blib.a(dhcppkt.o)
 .debug_aranges
                0x0000000000002a80       0x28 bin/blib.a(fragment.o)
 .debug_aranges
                0x0000000000002aa8       0x20 bin/blib.a(icmpv4.o)
 .debug_aranges
                0x0000000000002ac8       0x28 bin/blib.a(socket.o)
 .debug_aranges
                0x0000000000002af0       0xa0 bin/blib.a(tcp.o)
 .debug_aranges
                0x0000000000002b90       0x90 bin/blib.a(ata.o)
 .debug_aranges
                0x0000000000002c20       0x38 bin/blib.a(smbios.o)
 .debug_aranges
                0x0000000000002c58       0x30 bin/blib.a(editstring.o)
 .debug_aranges
                0x0000000000002c88       0x38 bin/blib.a(readline.o)
 .debug_aranges
                0x0000000000002cc0       0x30 bin/blib.a(shell.o)
 .debug_aranges
                0x0000000000002cf0       0x20 bin/blib.a(route_ipv4.o)
 .debug_aranges
                0x0000000000002d10       0x40 bin/blib.a(hidemem.o)
 .debug_aranges
                0x0000000000002d50       0x20 bin/blib.a(bootsector.o)
 .debug_aranges
                0x0000000000002d70       0x20 bin/blib.a(bios_smbios.o)
 .debug_aranges
                0x0000000000002d90       0x40 bin/blib.a(icmp.o)

.debug_ranges   0x0000000000000000     0x35b0
 .debug_ranges  0x0000000000000000      0x110 bin/blib.a(realtek.o)
 .debug_ranges  0x0000000000000110       0x20 bin/blib.a(nvs.o)
 .debug_ranges  0x0000000000000130       0x20 bin/blib.a(threewire.o)
 .debug_ranges  0x0000000000000150       0x58 bin/blib.a(spi_bit.o)
 .debug_ranges  0x00000000000001a8       0x10 bin/blib.a(timer2.o)
 .debug_ranges  0x00000000000001b8       0x38 bin/blib.a(bios_console.o)
 .debug_ranges  0x00000000000001f0       0xd0 bin/blib.a(bzimage.o)
 .debug_ranges  0x00000000000002c0       0x18 bin/blib.a(elfboot.o)
 .debug_ranges  0x00000000000002d8       0x80 bin/blib.a(initrd.o)
 .debug_ranges  0x0000000000000358       0xa0 bin/blib.a(multiboot.o)
 .debug_ranges  0x00000000000003f8       0x18 bin/blib.a(pxe_image.o)
 .debug_ranges  0x0000000000000410       0x78 bin/blib.a(pxe_call.o)
 .debug_ranges  0x0000000000000488       0xa8 bin/blib.a(pxe_file.o)
 .debug_ranges  0x0000000000000530       0x10 bin/blib.a(pxe_loader.o)
 .debug_ranges  0x0000000000000540       0x58 bin/blib.a(pxe_preboot.o)
 .debug_ranges  0x0000000000000598       0x68 bin/blib.a(pxe_tftp.o)
 .debug_ranges  0x0000000000000600       0x78 bin/blib.a(pxe_udp.o)
 .debug_ranges  0x0000000000000678      0x120 bin/blib.a(pxe_undi.o)
 .debug_ranges  0x0000000000000798       0x38 bin/blib.a(x86_string.o)
 .debug_ranges  0x00000000000007d0       0x10 bin/blib.a(cpuid_cmd.o)
 .debug_ranges  0x00000000000007e0       0x40 bin/blib.a(ansiesc.o)
 .debug_ranges  0x0000000000000820       0x10 bin/blib.a(cpio.o)
 .debug_ranges  0x0000000000000830       0x20 bin/blib.a(device.o)
 .debug_ranges  0x0000000000000850       0x78 bin/blib.a(exec.o)
 .debug_ranges  0x00000000000008c8       0x18 bin/blib.a(getopt.o)
 .debug_ranges  0x00000000000008e0       0x70 bin/blib.a(image.o)
 .debug_ranges  0x0000000000000950       0x20 bin/blib.a(init.o)
 .debug_ranges  0x0000000000000970       0x80 bin/blib.a(interface.o)
 .debug_ranges  0x00000000000009f0       0x60 bin/blib.a(iobuf.o)
 .debug_ranges  0x0000000000000a50       0x68 bin/blib.a(list.o)
 .debug_ranges  0x0000000000000ab8       0x10 bin/blib.a(main.o)
 .debug_ranges  0x0000000000000ac8       0x58 bin/blib.a(malloc.o)
 .debug_ranges  0x0000000000000b20       0x10 bin/blib.a(memblock.o)
 .debug_ranges  0x0000000000000b30       0x20 bin/blib.a(misc.o)
 .debug_ranges  0x0000000000000b50       0xa8 bin/blib.a(nvo.o)
 .debug_ranges  0x0000000000000bf8       0x70 bin/blib.a(open.o)
 .debug_ranges  0x0000000000000c68       0x78 bin/blib.a(parseopt.o)
 .debug_ranges  0x0000000000000ce0       0x50 bin/blib.a(posix_io.o)
 .debug_ranges  0x0000000000000d30       0x30 bin/blib.a(process.o)
 .debug_ranges  0x0000000000000d60       0x20 bin/blib.a(refcnt.o)
 .debug_ranges  0x0000000000000d80      0x2d0 bin/blib.a(settings.o)
 .debug_ranges  0x0000000000001050       0x70 bin/blib.a(string.o)
 .debug_ranges  0x00000000000010c0       0x18 bin/blib.a(timer.o)
 .debug_ranges  0x00000000000010d8       0x80 bin/blib.a(uri.o)
 .debug_ranges  0x0000000000001158       0x10 bin/blib.a(uuid.o)
 .debug_ranges  0x0000000000001168       0x58 bin/blib.a(vsprintf.o)
 .debug_ranges  0x00000000000011c0       0x68 bin/blib.a(xfer.o)
 .debug_ranges  0x0000000000001228       0x20 bin/blib.a(arp.o)
 .debug_ranges  0x0000000000001248       0x78 bin/blib.a(dhcpopts.o)
 .debug_ranges  0x00000000000012c0       0x48 bin/blib.a(ethernet.o)
 .debug_ranges  0x0000000000001308       0x40 bin/blib.a(eth_slow.o)
 .debug_ranges  0x0000000000001348       0x28 bin/blib.a(fakedhcp.o)
 .debug_ranges  0x0000000000001370       0x10 bin/blib.a(iobpad.o)
 .debug_ranges  0x0000000000001380       0xb8 bin/blib.a(ipv4.o)
 .debug_ranges  0x0000000000001438       0x68 bin/blib.a(neighbour.o)
 .debug_ranges  0x00000000000014a0      0x128 bin/blib.a(netdevice.o)
 .debug_ranges  0x00000000000015c8       0x78 bin/blib.a(netdev_settings.o)
 .debug_ranges  0x0000000000001640       0x30 bin/blib.a(nullnet.o)
 .debug_ranges  0x0000000000001670       0x18 bin/blib.a(rarp.o)
 .debug_ranges  0x0000000000001688       0x60 bin/blib.a(retry.o)
 .debug_ranges  0x00000000000016e8       0x30 bin/blib.a(tcpip.o)
 .debug_ranges  0x0000000000001718       0x50 bin/blib.a(udp.o)
 .debug_ranges  0x0000000000001768       0x10 bin/blib.a(http.o)
 .debug_ranges  0x0000000000001778      0x178 bin/blib.a(httpcore.o)
 .debug_ranges  0x00000000000018f0      0x260 bin/blib.a(iscsi.o)
 .debug_ranges  0x0000000000001b50      0x108 bin/blib.a(dhcp.o)
 .debug_ranges  0x0000000000001c58       0xc0 bin/blib.a(dns.o)
 .debug_ranges  0x0000000000001d18      0x190 bin/blib.a(tftp.o)
 .debug_ranges  0x0000000000001ea8       0x10 bin/blib.a(elf.o)
 .debug_ranges  0x0000000000001eb8       0x10 bin/blib.a(embedded.o)
 .debug_ranges  0x0000000000001ec8       0x98 bin/blib.a(script.o)
 .debug_ranges  0x0000000000001f60       0x40 bin/blib.a(segment.o)
 .debug_ranges  0x0000000000001fa0       0x88 bin/blib.a(pci.o)
 .debug_ranges  0x0000000000002028       0x20 bin/blib.a(pci_settings.o)
 .debug_ranges  0x0000000000002048       0x30 bin/blib.a(mii.o)
 .debug_ranges  0x0000000000002078       0x68 bin/blib.a(ibft.o)
 .debug_ranges  0x00000000000020e0      0x118 bin/blib.a(scsi.o)
 .debug_ranges  0x00000000000021f8       0x18 bin/blib.a(bitbash.o)
 .debug_ranges  0x0000000000002210       0x38 bin/blib.a(smbios_settings.o)
 .debug_ranges  0x0000000000002248       0x28 bin/blib.a(chap.o)
 .debug_ranges  0x0000000000002270       0x40 bin/blib.a(md5.o)
 .debug_ranges  0x00000000000022b0       0x40 bin/blib.a(strerror.o)
 .debug_ranges  0x00000000000022f0       0x10 bin/blib.a(autoboot_cmd.o)
 .debug_ranges  0x0000000000002300       0x10 bin/blib.a(config_cmd.o)
 .debug_ranges  0x0000000000002310       0x20 bin/blib.a(dhcp_cmd.o)
 .debug_ranges  0x0000000000002330       0x40 bin/blib.a(ifmgmt_cmd.o)
 .debug_ranges  0x0000000000002370       0x60 bin/blib.a(image_cmd.o)
 .debug_ranges  0x00000000000023d0       0x10 bin/blib.a(login_cmd.o)
 .debug_ranges  0x00000000000023e0       0x20 bin/blib.a(menu_cmd.o)
 .debug_ranges  0x0000000000002400       0x50 bin/blib.a(nvo_cmd.o)
 .debug_ranges  0x0000000000002450       0x10 bin/blib.a(reboot_cmd.o)
 .debug_ranges  0x0000000000002460       0x10 bin/blib.a(route_cmd.o)
 .debug_ranges  0x0000000000002470       0x28 bin/blib.a(sanboot_cmd.o)
 .debug_ranges  0x0000000000002498       0x10 bin/blib.a(sync_cmd.o)
 .debug_ranges  0x00000000000024a8       0x10 bin/blib.a(login_ui.o)
 .debug_ranges  0x00000000000024b8       0x50 bin/blib.a(menu_ui.o)
 .debug_ranges  0x0000000000002508       0x98 bin/blib.a(settings_ui.o)
 .debug_ranges  0x00000000000025a0       0x38 bin/blib.a(ansi_screen.o)
 .debug_ranges  0x00000000000025d8       0x30 bin/blib.a(clear.o)
 .debug_ranges  0x0000000000002608       0x20 bin/blib.a(colour.o)
 .debug_ranges  0x0000000000002628       0x40 bin/blib.a(mucurses.o)
 .debug_ranges  0x0000000000002668       0x30 bin/blib.a(print.o)
 .debug_ranges  0x0000000000002698       0x68 bin/blib.a(winattrs.o)
 .debug_ranges  0x0000000000002700       0x18 bin/blib.a(wininit.o)
 .debug_ranges  0x0000000000002718       0x18 bin/blib.a(editbox.o)
 .debug_ranges  0x0000000000002730       0x50 bin/blib.a(autoboot.o)
 .debug_ranges  0x0000000000002780       0x18 bin/blib.a(dhcpmgmt.o)
 .debug_ranges  0x0000000000002798       0x30 bin/blib.a(ifmgmt.o)
 .debug_ranges  0x00000000000027c8       0x28 bin/blib.a(imgmgmt.o)
 .debug_ranges  0x00000000000027f0       0x10 bin/blib.a(prompt.o)
 .debug_ranges  0x0000000000002800       0x28 bin/blib.a(pxemenu.o)
 .debug_ranges  0x0000000000002828       0x10 bin/blib.a(route.o)
 .debug_ranges  0x0000000000002838       0x10 bin/blib.a(relocate.o)
 .debug_ranges  0x0000000000002848       0x60 bin/blib.a(memmap.o)
 .debug_ranges  0x00000000000028a8       0x18 bin/blib.a(biosint.o)
 .debug_ranges  0x00000000000028c0       0x10 bin/blib.a(bios_nap.o)
 .debug_ranges  0x00000000000028d0       0x10 bin/blib.a(bios_reboot.o)
 .debug_ranges  0x00000000000028e0       0x10 bin/blib.a(bios_timer.o)
 .debug_ranges  0x00000000000028f0      0x348 bin/blib.a(int13.o)
 .debug_ranges  0x0000000000002c38       0x10 bin/blib.a(memtop_umalloc.o)
 .debug_ranges  0x0000000000002c48       0x20 bin/blib.a(pcibios.o)
 .debug_ranges  0x0000000000002c68       0x18 bin/blib.a(cpuid.o)
 .debug_ranges  0x0000000000002c80       0x10 bin/blib.a(x86_tcpip.o)
 .debug_ranges  0x0000000000002c90       0x18 bin/blib.a(acpi.o)
 .debug_ranges  0x0000000000002ca8       0x18 bin/blib.a(asprintf.o)
 .debug_ranges  0x0000000000002cc0       0x20 bin/blib.a(base16.o)
 .debug_ranges  0x0000000000002ce0       0x18 bin/blib.a(base64.o)
 .debug_ranges  0x0000000000002cf8       0x18 bin/blib.a(basename.o)
 .debug_ranges  0x0000000000002d10       0x20 bin/blib.a(bitmap.o)
 .debug_ranges  0x0000000000002d30       0x10 bin/blib.a(bitops.o)
 .debug_ranges  0x0000000000002d40       0x28 bin/blib.a(blockdev.o)
 .debug_ranges  0x0000000000002d68       0x28 bin/blib.a(console.o)
 .debug_ranges  0x0000000000002d90       0x10 bin/blib.a(ctype.o)
 .debug_ranges  0x0000000000002da0       0x10 bin/blib.a(cwuri.o)
 .debug_ranges  0x0000000000002db0       0x90 bin/blib.a(downloader.o)
 .debug_ranges  0x0000000000002e40       0x10 bin/blib.a(edd.o)
 .debug_ranges  0x0000000000002e50       0x18 bin/blib.a(getkey.o)
 .debug_ranges  0x0000000000002e68       0x10 bin/blib.a(job.o)
 .debug_ranges  0x0000000000002e78       0x20 bin/blib.a(linebuf.o)
 .debug_ranges  0x0000000000002e98       0x28 bin/blib.a(menu.o)
 .debug_ranges  0x0000000000002ec0       0x18 bin/blib.a(monojob.o)
 .debug_ranges  0x0000000000002ed8       0x30 bin/blib.a(params.o)
 .debug_ranges  0x0000000000002f08       0x20 bin/blib.a(pending.o)
 .debug_ranges  0x0000000000002f28       0x18 bin/blib.a(random.o)
 .debug_ranges  0x0000000000002f40       0x58 bin/blib.a(resolv.o)
 .debug_ranges  0x0000000000002f98      0x210 bin/blib.a(aoe.o)
 .debug_ranges  0x00000000000031a8       0x48 bin/blib.a(dhcppkt.o)
 .debug_ranges  0x00000000000031f0       0x18 bin/blib.a(fragment.o)
 .debug_ranges  0x0000000000003208       0x10 bin/blib.a(icmpv4.o)
 .debug_ranges  0x0000000000003218       0x18 bin/blib.a(socket.o)
 .debug_ranges  0x0000000000003230      0x108 bin/blib.a(tcp.o)
 .debug_ranges  0x0000000000003338       0x80 bin/blib.a(ata.o)
 .debug_ranges  0x00000000000033b8       0x80 bin/blib.a(smbios.o)
 .debug_ranges  0x0000000000003438       0x20 bin/blib.a(editstring.o)
 .debug_ranges  0x0000000000003458       0x78 bin/blib.a(readline.o)
 .debug_ranges  0x00000000000034d0       0x20 bin/blib.a(shell.o)
 .debug_ranges  0x00000000000034f0       0x10 bin/blib.a(route_ipv4.o)
 .debug_ranges  0x0000000000003500       0x30 bin/blib.a(hidemem.o)
 .debug_ranges  0x0000000000003530       0x10 bin/blib.a(bootsector.o)
 .debug_ranges  0x0000000000003540       0x10 bin/blib.a(bios_smbios.o)
 .debug_ranges  0x0000000000003550       0x60 bin/blib.a(icmp.o)

.debug_line     0x0000000000000000    0x1514b
 .debug_line    0x0000000000000000      0x7e5 bin/blib.a(realtek.o)
 .debug_line    0x00000000000007e5      0x110 bin/blib.a(nvs.o)
 .debug_line    0x00000000000008f5      0x114 bin/blib.a(threewire.o)
 .debug_line    0x0000000000000a09      0x1c9 bin/blib.a(spi_bit.o)
 .debug_line    0x0000000000000bd2       0x5f bin/blib.a(config.o)
 .debug_line    0x0000000000000c31      0x103 bin/blib.a(timer2.o)
 .debug_line    0x0000000000000d34      0x1c1 bin/blib.a(bios_console.o)
 .debug_line    0x0000000000000ef5      0x3ed bin/blib.a(bzimage.o)
 .debug_line    0x00000000000012e2      0x193 bin/blib.a(elfboot.o)
 .debug_line    0x0000000000001475      0x23a bin/blib.a(initrd.o)
 .debug_line    0x00000000000016af      0x2de bin/blib.a(multiboot.o)
 .debug_line    0x000000000000198d      0x1ae bin/blib.a(pxe_image.o)
 .debug_line    0x0000000000001b3b      0x2cc bin/blib.a(pxe_call.o)
 .debug_line    0x0000000000001e07      0x2eb bin/blib.a(pxe_file.o)
 .debug_line    0x00000000000020f2      0x122 bin/blib.a(pxe_loader.o)
 .debug_line    0x0000000000002214      0x280 bin/blib.a(pxe_preboot.o)
 .debug_line    0x0000000000002494      0x2f3 bin/blib.a(pxe_tftp.o)
 .debug_line    0x0000000000002787      0x279 bin/blib.a(pxe_udp.o)
 .debug_line    0x0000000000002a00      0x62c bin/blib.a(pxe_undi.o)
 .debug_line    0x000000000000302c      0x127 bin/blib.a(x86_string.o)
 .debug_line    0x0000000000003153      0x140 bin/blib.a(cpuid_cmd.o)
 .debug_line    0x0000000000003293      0x102 bin/blib.a(ansiesc.o)
 .debug_line    0x0000000000003395       0xd0 bin/blib.a(cpio.o)
 .debug_line    0x0000000000003465      0x139 bin/blib.a(device.o)
 .debug_line    0x000000000000359e      0x30f bin/blib.a(exec.o)
 .debug_line    0x00000000000038ad      0x126 bin/blib.a(getopt.o)
 .debug_line    0x00000000000039d3      0x318 bin/blib.a(image.o)
 .debug_line    0x0000000000003ceb       0xe2 bin/blib.a(init.o)
 .debug_line    0x0000000000003dcd      0x1d8 bin/blib.a(interface.o)
 .debug_line    0x0000000000003fa5      0x21e bin/blib.a(iobuf.o)
 .debug_line    0x00000000000041c3      0x1e7 bin/blib.a(list.o)
 .debug_line    0x00000000000043aa       0xb8 bin/blib.a(main.o)
 .debug_line    0x0000000000004462      0x2cf bin/blib.a(malloc.o)
 .debug_line    0x0000000000004731      0x103 bin/blib.a(memblock.o)
 .debug_line    0x0000000000004834      0x14f bin/blib.a(misc.o)
 .debug_line    0x0000000000004983      0x243 bin/blib.a(nvo.o)
 .debug_line    0x0000000000004bc6      0x1aa bin/blib.a(open.o)
 .debug_line    0x0000000000004d70      0x2ab bin/blib.a(parseopt.o)
 .debug_line    0x000000000000501b      0x310 bin/blib.a(posix_io.o)
 .debug_line    0x000000000000532b      0x1a3 bin/blib.a(process.o)
 .debug_line    0x00000000000054ce       0xac bin/blib.a(refcnt.o)
 .debug_line    0x000000000000557a      0xab5 bin/blib.a(settings.o)
 .debug_line    0x000000000000602f      0x212 bin/blib.a(string.o)
 .debug_line    0x0000000000006241       0xc3 bin/blib.a(timer.o)
 .debug_line    0x0000000000006304      0x304 bin/blib.a(uri.o)
 .debug_line    0x0000000000006608       0xad bin/blib.a(uuid.o)
 .debug_line    0x00000000000066b5      0x100 bin/blib.a(version.o)
 .debug_line    0x00000000000067b5      0x266 bin/blib.a(vsprintf.o)
 .debug_line    0x0000000000006a1b      0x217 bin/blib.a(xfer.o)
 .debug_line    0x0000000000006c32      0x209 bin/blib.a(arp.o)
 .debug_line    0x0000000000006e3b      0x2c5 bin/blib.a(dhcpopts.o)
 .debug_line    0x0000000000007100      0x215 bin/blib.a(ethernet.o)
 .debug_line    0x0000000000007315      0x180 bin/blib.a(eth_slow.o)
 .debug_line    0x0000000000007495      0x1b9 bin/blib.a(fakedhcp.o)
 .debug_line    0x000000000000764e      0x106 bin/blib.a(iobpad.o)
 .debug_line    0x0000000000007754      0x456 bin/blib.a(ipv4.o)
 .debug_line    0x0000000000007baa      0x3c1 bin/blib.a(neighbour.o)
 .debug_line    0x0000000000007f6b      0x69f bin/blib.a(netdevice.o)
 .debug_line    0x000000000000860a      0x29c bin/blib.a(netdev_settings.o)
 .debug_line    0x00000000000088a6      0x126 bin/blib.a(nullnet.o)
 .debug_line    0x00000000000089cc       0xfd bin/blib.a(rarp.o)
 .debug_line    0x0000000000008ac9      0x1b1 bin/blib.a(retry.o)
 .debug_line    0x0000000000008c7a      0x17d bin/blib.a(tcpip.o)
 .debug_line    0x0000000000008df7      0x2f5 bin/blib.a(udp.o)
 .debug_line    0x00000000000090ec      0x11c bin/blib.a(http.o)
 .debug_line    0x0000000000009208      0x78a bin/blib.a(httpcore.o)
 .debug_line    0x0000000000009992      0x962 bin/blib.a(iscsi.o)
 .debug_line    0x000000000000a2f4      0x70e bin/blib.a(dhcp.o)
 .debug_line    0x000000000000aa02      0x33d bin/blib.a(dns.o)
 .debug_line    0x000000000000ad3f      0x63b bin/blib.a(tftp.o)
 .debug_line    0x000000000000b37a      0x171 bin/blib.a(elf.o)
 .debug_line    0x000000000000b4eb      0x103 bin/blib.a(embedded.o)
 .debug_line    0x000000000000b5ee      0x2cb bin/blib.a(script.o)
 .debug_line    0x000000000000b8b9      0x142 bin/blib.a(segment.o)
 .debug_line    0x000000000000b9fb      0x328 bin/blib.a(pci.o)
 .debug_line    0x000000000000bd23      0x1bd bin/blib.a(pci_settings.o)
 .debug_line    0x000000000000bee0      0x127 bin/blib.a(mii.o)
 .debug_line    0x000000000000c007      0x2ba bin/blib.a(ibft.o)
 .debug_line    0x000000000000c2c1      0x4b8 bin/blib.a(scsi.o)
 .debug_line    0x000000000000c779       0x8e bin/blib.a(bitbash.o)
 .debug_line    0x000000000000c807      0x1d7 bin/blib.a(smbios_settings.o)
 .debug_line    0x000000000000c9de      0x14e bin/blib.a(chap.o)
 .debug_line    0x000000000000cb2c      0x1c0 bin/blib.a(md5.o)
 .debug_line    0x000000000000ccec       0x9b bin/blib.a(strerror.o)
 .debug_line    0x000000000000cd87      0x12c bin/blib.a(autoboot_cmd.o)
 .debug_line    0x000000000000ceb3       0xf8 bin/blib.a(config_cmd.o)
 .debug_line    0x000000000000cfab      0x15b bin/blib.a(dhcp_cmd.o)
 .debug_line    0x000000000000d106      0x1b9 bin/blib.a(ifmgmt_cmd.o)
 .debug_line    0x000000000000d2bf      0x271 bin/blib.a(image_cmd.o)
 .debug_line    0x000000000000d530       0xe9 bin/blib.a(login_cmd.o)
 .debug_line    0x000000000000d619      0x1b8 bin/blib.a(menu_cmd.o)
 .debug_line    0x000000000000d7d1      0x1b5 bin/blib.a(nvo_cmd.o)
 .debug_line    0x000000000000d986       0xf4 bin/blib.a(reboot_cmd.o)
 .debug_line    0x000000000000da7a      0x10a bin/blib.a(route_cmd.o)
 .debug_line    0x000000000000db84      0x1cb bin/blib.a(sanboot_cmd.o)
 .debug_line    0x000000000000dd4f      0x129 bin/blib.a(sync_cmd.o)
 .debug_line    0x000000000000de78      0x190 bin/blib.a(login_ui.o)
 .debug_line    0x000000000000e008      0x2f1 bin/blib.a(menu_ui.o)
 .debug_line    0x000000000000e2f9      0x3ff bin/blib.a(settings_ui.o)
 .debug_line    0x000000000000e6f8      0x147 bin/blib.a(ansi_screen.o)
 .debug_line    0x000000000000e83f      0x128 bin/blib.a(clear.o)
 .debug_line    0x000000000000e967       0xc5 bin/blib.a(colour.o)
 .debug_line    0x000000000000ea2c      0x158 bin/blib.a(mucurses.o)
 .debug_line    0x000000000000eb84      0x10f bin/blib.a(print.o)
 .debug_line    0x000000000000ec93      0x13c bin/blib.a(winattrs.o)
 .debug_line    0x000000000000edcf       0xd9 bin/blib.a(wininit.o)
 .debug_line    0x000000000000eea8      0x17e bin/blib.a(editbox.o)
 .debug_line    0x000000000000f026       0x97 bin/blib.a(keymap_us.o)
 .debug_line    0x000000000000f0bd      0x38e bin/blib.a(autoboot.o)
 .debug_line    0x000000000000f44b      0x14a bin/blib.a(dhcpmgmt.o)
 .debug_line    0x000000000000f595      0x18c bin/blib.a(ifmgmt.o)
 .debug_line    0x000000000000f721      0x1a8 bin/blib.a(imgmgmt.o)
 .debug_line    0x000000000000f8c9       0xbd bin/blib.a(prompt.o)
 .debug_line    0x000000000000f986      0x304 bin/blib.a(pxemenu.o)
 .debug_line    0x000000000000fc8a      0x104 bin/blib.a(route.o)
 .debug_line    0x000000000000fd8e       0x6f bin/blib.a(config_ethernet.o)
 .debug_line    0x000000000000fdfd       0x70 bin/blib.a(config_romprefix.o)
 .debug_line    0x000000000000fe6d       0x6c bin/blib.a(config_route.o)
 .debug_line    0x000000000000fed9       0x97 bin/blib.a(basemem_packet.o)
 .debug_line    0x000000000000ff70      0x11e bin/blib.a(relocate.o)
 .debug_line    0x000000000001008e      0x1e9 bin/blib.a(memmap.o)
 .debug_line    0x0000000000010277      0x17c bin/blib.a(biosint.o)
 .debug_line    0x00000000000103f3       0xa0 bin/blib.a(bios_nap.o)
 .debug_line    0x0000000000010493      0x137 bin/blib.a(bios_reboot.o)
 .debug_line    0x00000000000105ca      0x138 bin/blib.a(bios_timer.o)
 .debug_line    0x0000000000010702      0x8a0 bin/blib.a(int13.o)
 .debug_line    0x0000000000010fa2      0x1c6 bin/blib.a(memtop_umalloc.o)
 .debug_line    0x0000000000011168      0x142 bin/blib.a(pcibios.o)
 .debug_line    0x00000000000112aa      0x115 bin/blib.a(cpuid.o)
 .debug_line    0x00000000000113bf       0xe7 bin/blib.a(x86_tcpip.o)
 .debug_line    0x00000000000114a6       0xf5 bin/blib.a(acpi.o)
 .debug_line    0x000000000001159b       0xb2 bin/blib.a(asprintf.o)
 .debug_line    0x000000000001164d      0x119 bin/blib.a(base16.o)
 .debug_line    0x0000000000011766      0x146 bin/blib.a(base64.o)
 .debug_line    0x00000000000118ac       0x9c bin/blib.a(basename.o)
 .debug_line    0x0000000000011948       0xf6 bin/blib.a(bitmap.o)
 .debug_line    0x0000000000011a3e       0x7a bin/blib.a(bitops.o)
 .debug_line    0x0000000000011ab8      0x13b bin/blib.a(blockdev.o)
 .debug_line    0x0000000000011bf3      0x105 bin/blib.a(console.o)
 .debug_line    0x0000000000011cf8       0x70 bin/blib.a(ctype.o)
 .debug_line    0x0000000000011d68       0xa6 bin/blib.a(cwuri.o)
 .debug_line    0x0000000000011e0e      0x241 bin/blib.a(downloader.o)
 .debug_line    0x000000000001204f       0xc1 bin/blib.a(edd.o)
 .debug_line    0x0000000000012110       0x45 bin/blib.a(errno.o)
 .debug_line    0x0000000000012155      0x116 bin/blib.a(getkey.o)
 .debug_line    0x000000000001226b       0xf9 bin/blib.a(job.o)
 .debug_line    0x0000000000012364      0x11b bin/blib.a(linebuf.o)
 .debug_line    0x000000000001247f      0x18a bin/blib.a(menu.o)
 .debug_line    0x0000000000012609      0x158 bin/blib.a(monojob.o)
 .debug_line    0x0000000000012761      0x1a3 bin/blib.a(params.o)
 .debug_line    0x0000000000012904       0xc3 bin/blib.a(pending.o)
 .debug_line    0x00000000000129c7       0xbe bin/blib.a(random.o)
 .debug_line    0x0000000000012a85      0x257 bin/blib.a(resolv.o)
 .debug_line    0x0000000000012cdc      0x5a7 bin/blib.a(aoe.o)
 .debug_line    0x0000000000013283      0x23c bin/blib.a(dhcppkt.o)
 .debug_line    0x00000000000134bf      0x1d5 bin/blib.a(fragment.o)
 .debug_line    0x0000000000013694       0xe6 bin/blib.a(icmpv4.o)
 .debug_line    0x000000000001377a       0xda bin/blib.a(socket.o)
 .debug_line    0x0000000000013854      0x7bb bin/blib.a(tcp.o)
 .debug_line    0x000000000001400f      0x31c bin/blib.a(ata.o)
 .debug_line    0x000000000001432b      0x1f2 bin/blib.a(smbios.o)
 .debug_line    0x000000000001451d      0x19b bin/blib.a(editstring.o)
 .debug_line    0x00000000000146b8      0x1f6 bin/blib.a(readline.o)
 .debug_line    0x00000000000148ae      0x184 bin/blib.a(shell.o)
 .debug_line    0x0000000000014a32      0x132 bin/blib.a(route_ipv4.o)
 .debug_line    0x0000000000014b64      0x20e bin/blib.a(hidemem.o)
 .debug_line    0x0000000000014d72       0xe6 bin/blib.a(bootsector.o)
 .debug_line    0x0000000000014e58      0x186 bin/blib.a(bios_smbios.o)
 .debug_line    0x0000000000014fde      0x16d bin/blib.a(icmp.o)

.debug_str      0x0000000000000000     0xfd6a
 .debug_str     0x0000000000000000      0xa75 bin/blib.a(realtek.o)
                                        0xdab (size before relaxing)
 .debug_str     0x0000000000000a75       0x7e bin/blib.a(nvs.o)
                                        0x1b8 (size before relaxing)
 .debug_str     0x0000000000000af3       0xb8 bin/blib.a(threewire.o)
                                        0x21b (size before relaxing)
 .debug_str     0x0000000000000bab      0x113 bin/blib.a(spi_bit.o)
                                        0x352 (size before relaxing)
 .debug_str     0x0000000000000cbe      0x4eb bin/blib.a(config.o)
                                        0x531 (size before relaxing)
 .debug_str     0x00000000000011a9       0x8f bin/blib.a(timer2.o)
                                        0x191 (size before relaxing)
 .debug_str     0x0000000000001238      0x1f7 bin/blib.a(bios_console.o)
                                        0x35f (size before relaxing)
 .debug_str     0x000000000000142f      0x4f0 bin/blib.a(bzimage.o)
                                        0xa69 (size before relaxing)
 .debug_str     0x000000000000191f      0x145 bin/blib.a(elfboot.o)
                                        0x671 (size before relaxing)
 .debug_str     0x0000000000001a64      0x129 bin/blib.a(initrd.o)
                                        0x3f6 (size before relaxing)
 .debug_str     0x0000000000001b8d      0x516 bin/blib.a(multiboot.o)
                                        0xb64 (size before relaxing)
 .debug_str     0x00000000000020a3       0xc6 bin/blib.a(pxe_image.o)
                                        0x621 (size before relaxing)
 .debug_str     0x0000000000002169      0xd31 bin/blib.a(pxe_call.o)
                                       0x12da (size before relaxing)
 .debug_str     0x0000000000002e9a      0x18d bin/blib.a(pxe_file.o)
                                       0x124e (size before relaxing)
 .debug_str     0x0000000000003027       0x86 bin/blib.a(pxe_loader.o)
                                        0x45d (size before relaxing)
 .debug_str     0x00000000000030ad      0x285 bin/blib.a(pxe_preboot.o)
                                       0x13a0 (size before relaxing)
 .debug_str     0x0000000000003332      0x1ff bin/blib.a(pxe_tftp.o)
                                       0x101e (size before relaxing)
 .debug_str     0x0000000000003531      0x164 bin/blib.a(pxe_udp.o)
                                        0xff5 (size before relaxing)
 .debug_str     0x0000000000003695      0x437 bin/blib.a(pxe_undi.o)
                                       0x1568 (size before relaxing)
 .debug_str     0x0000000000003acc       0xdd bin/blib.a(x86_string.o)
                                        0x1c9 (size before relaxing)
 .debug_str     0x0000000000003ba9      0x19c bin/blib.a(cpuid_cmd.o)
                                        0x3e5 (size before relaxing)
 .debug_str     0x0000000000003d45       0x80 bin/blib.a(ansiesc.o)
                                        0x1bd (size before relaxing)
 .debug_str     0x0000000000003dc5       0x5e bin/blib.a(cpio.o)
                                        0x173 (size before relaxing)
 .debug_str     0x0000000000003e23       0xb6 bin/blib.a(device.o)
                                        0x329 (size before relaxing)
 .debug_str     0x0000000000003ed9      0x2bf bin/blib.a(exec.o)
                                        0x60c (size before relaxing)
 .debug_str     0x0000000000004198       0xd4 bin/blib.a(getopt.o)
                                        0x231 (size before relaxing)
 .debug_str     0x000000000000426c      0x177 bin/blib.a(image.o)
                                        0x3d7 (size before relaxing)
 .debug_str     0x00000000000043e3       0x57 bin/blib.a(init.o)
                                        0x16e (size before relaxing)
 .debug_str     0x000000000000443a      0x145 bin/blib.a(interface.o)
                                        0x2b1 (size before relaxing)
 .debug_str     0x000000000000457f       0xe7 bin/blib.a(iobuf.o)
                                        0x2c8 (size before relaxing)
 .debug_str     0x0000000000004666      0x21d bin/blib.a(list.o)
                                        0x350 (size before relaxing)
 .debug_str     0x0000000000004883       0x5d bin/blib.a(main.o)
                                        0x14d (size before relaxing)
 .debug_str     0x00000000000048e0      0x201 bin/blib.a(malloc.o)
                                        0x496 (size before relaxing)
 .debug_str     0x0000000000004ae1       0x93 bin/blib.a(memblock.o)
                                        0x1d3 (size before relaxing)
 .debug_str     0x0000000000004b74       0x89 bin/blib.a(misc.o)
                                        0x1a2 (size before relaxing)
 .debug_str     0x0000000000004bfd      0x105 bin/blib.a(nvo.o)
                                        0x5dd (size before relaxing)
 .debug_str     0x0000000000004d02      0x133 bin/blib.a(open.o)
                                        0x3a2 (size before relaxing)
 .debug_str     0x0000000000004e35      0x157 bin/blib.a(parseopt.o)
                                        0x68f (size before relaxing)
 .debug_str     0x0000000000004f8c      0x12a bin/blib.a(posix_io.o)
                                        0x4ad (size before relaxing)
 .debug_str     0x00000000000050b6       0xd9 bin/blib.a(process.o)
                                        0x230 (size before relaxing)
 .debug_str     0x000000000000518f       0x7f bin/blib.a(refcnt.o)
                                        0x14e (size before relaxing)
 .debug_str     0x000000000000520e      0xa4b bin/blib.a(settings.o)
                                       0x1208 (size before relaxing)
 .debug_str     0x0000000000005c59       0xc0 bin/blib.a(string.o)
                                        0x1cf (size before relaxing)
 .debug_str     0x0000000000005d19       0x66 bin/blib.a(timer.o)
                                        0x135 (size before relaxing)
 .debug_str     0x0000000000005d7f      0x183 bin/blib.a(uri.o)
                                        0x499 (size before relaxing)
 .debug_str     0x0000000000005f02       0x3e bin/blib.a(uuid.o)
                                        0x153 (size before relaxing)
 .debug_str     0x0000000000005f40       0x9e bin/blib.a(version.o)
                                        0x49a (size before relaxing)
 .debug_str     0x0000000000005fde      0x125 bin/blib.a(vsprintf.o)
                                        0x282 (size before relaxing)
 .debug_str     0x0000000000006103      0x10c bin/blib.a(xfer.o)
                                        0x3e5 (size before relaxing)
 .debug_str     0x000000000000620f       0xfa bin/blib.a(arp.o)
                                        0x5dd (size before relaxing)
 .debug_str     0x0000000000006309      0x19c bin/blib.a(dhcpopts.o)
                                        0x66a (size before relaxing)
 .debug_str     0x00000000000064a5      0x183 bin/blib.a(ethernet.o)
                                        0x602 (size before relaxing)
 .debug_str     0x0000000000006628      0x1cc bin/blib.a(eth_slow.o)
                                        0x695 (size before relaxing)
 .debug_str     0x00000000000067f4       0xfe bin/blib.a(fakedhcp.o)
                                        0x5d2 (size before relaxing)
 .debug_str     0x00000000000068f2       0x66 bin/blib.a(iobpad.o)
                                        0x244 (size before relaxing)
 .debug_str     0x0000000000006958      0x312 bin/blib.a(ipv4.o)
                                        0xa55 (size before relaxing)
 .debug_str     0x0000000000006c6a      0x1d5 bin/blib.a(neighbour.o)
                                        0x743 (size before relaxing)
 .debug_str     0x0000000000006e3f      0x30e bin/blib.a(netdevice.o)
                                        0x935 (size before relaxing)
 .debug_str     0x000000000000714d      0x23a bin/blib.a(netdev_settings.o)
                                        0x761 (size before relaxing)
 .debug_str     0x0000000000007387       0x90 bin/blib.a(nullnet.o)
                                        0x465 (size before relaxing)
 .debug_str     0x0000000000007417       0x60 bin/blib.a(rarp.o)
                                        0x47b (size before relaxing)
 .debug_str     0x0000000000007477       0xcd bin/blib.a(retry.o)
                                        0x28b (size before relaxing)
 .debug_str     0x0000000000007544       0xf5 bin/blib.a(tcpip.o)
                                        0x32a (size before relaxing)
 .debug_str     0x0000000000007639      0x149 bin/blib.a(udp.o)
                                        0x807 (size before relaxing)
 .debug_str     0x0000000000007782       0x86 bin/blib.a(http.o)
                                        0x4a4 (size before relaxing)
 .debug_str     0x0000000000007808      0x699 bin/blib.a(httpcore.o)
                                        0xd7e (size before relaxing)
 .debug_str     0x0000000000007ea1      0xbd3 bin/blib.a(iscsi.o)
                                       0x1568 (size before relaxing)
 .debug_str     0x0000000000008a74      0x6a7 bin/blib.a(dhcp.o)
                                        0xee8 (size before relaxing)
 .debug_str     0x000000000000911b      0x2c3 bin/blib.a(dns.o)
                                        0x941 (size before relaxing)
 .debug_str     0x00000000000093de      0x42a bin/blib.a(tftp.o)
                                        0xc40 (size before relaxing)
 .debug_str     0x0000000000009808       0xbf bin/blib.a(elf.o)
                                        0x3fb (size before relaxing)
 .debug_str     0x00000000000098c7       0xad bin/blib.a(embedded.o)
                                        0x258 (size before relaxing)
 .debug_str     0x0000000000009974      0x1df bin/blib.a(script.o)
                                        0x68b (size before relaxing)
 .debug_str     0x0000000000009b53       0x78 bin/blib.a(segment.o)
                                        0x231 (size before relaxing)
 .debug_str     0x0000000000009bcb      0x1bd bin/blib.a(pci.o)
                                        0x427 (size before relaxing)
 .debug_str     0x0000000000009d88       0xff bin/blib.a(pci_settings.o)
                                        0x46b (size before relaxing)
 .debug_str     0x0000000000009e87       0x6d bin/blib.a(mii.o)
                                        0x45f (size before relaxing)
 .debug_str     0x0000000000009ef4      0x2fd bin/blib.a(ibft.o)
                                        0xffc (size before relaxing)
 .debug_str     0x000000000000a1f1      0x438 bin/blib.a(scsi.o)
                                        0x94c (size before relaxing)
 .debug_str     0x000000000000a629       0x48 bin/blib.a(bitbash.o)
                                         0xfd (size before relaxing)
 .debug_str     0x000000000000a671      0x177 bin/blib.a(smbios_settings.o)
                                        0x49f (size before relaxing)
 .debug_str     0x000000000000a7e8       0x8a bin/blib.a(chap.o)
                                        0x244 (size before relaxing)
 .debug_str     0x000000000000a872      0x1a6 bin/blib.a(md5.o)
                                        0x363 (size before relaxing)
 .debug_str     0x000000000000aa18       0x91 bin/blib.a(strerror.o)
                                        0x17b (size before relaxing)
 .debug_str     0x000000000000aaa9       0x94 bin/blib.a(autoboot_cmd.o)
                                        0x52a (size before relaxing)
 .debug_str     0x000000000000ab3d       0x96 bin/blib.a(config_cmd.o)
                                        0x345 (size before relaxing)
 .debug_str     0x000000000000abd3       0xad bin/blib.a(dhcp_cmd.o)
                                        0x55e (size before relaxing)
 .debug_str     0x000000000000ac80      0x11a bin/blib.a(ifmgmt_cmd.o)
                                        0x59c (size before relaxing)
 .debug_str     0x000000000000ad9a      0x22c bin/blib.a(image_cmd.o)
                                        0x5fa (size before relaxing)
 .debug_str     0x000000000000afc6       0x8f bin/blib.a(login_cmd.o)
                                        0x32c (size before relaxing)
 .debug_str     0x000000000000b055      0x1a0 bin/blib.a(menu_cmd.o)
                                        0x712 (size before relaxing)
 .debug_str     0x000000000000b1f5      0x172 bin/blib.a(nvo_cmd.o)
                                        0x4ad (size before relaxing)
 .debug_str     0x000000000000b367       0x9b bin/blib.a(reboot_cmd.o)
                                        0x396 (size before relaxing)
 .debug_str     0x000000000000b402       0x90 bin/blib.a(route_cmd.o)
                                        0x33d (size before relaxing)
 .debug_str     0x000000000000b492      0x18f bin/blib.a(sanboot_cmd.o)
                                        0x560 (size before relaxing)
 .debug_str     0x000000000000b621       0x88 bin/blib.a(sync_cmd.o)
                                        0x395 (size before relaxing)
 .debug_str     0x000000000000b6a9      0x15b bin/blib.a(login_ui.o)
                                        0x41d (size before relaxing)
 .debug_str     0x000000000000b804       0xe8 bin/blib.a(menu_ui.o)
                                        0x3e0 (size before relaxing)
 .debug_str     0x000000000000b8ec      0x19c bin/blib.a(settings_ui.o)
                                        0x5dc (size before relaxing)
 .debug_str     0x000000000000ba88       0xf5 bin/blib.a(ansi_screen.o)
                                        0x289 (size before relaxing)
 .debug_str     0x000000000000bb7d       0x98 bin/blib.a(clear.o)
                                        0x1fb (size before relaxing)
 .debug_str     0x000000000000bc15       0x86 bin/blib.a(colour.o)
                                        0x205 (size before relaxing)
 .debug_str     0x000000000000bc9b       0x8b bin/blib.a(mucurses.o)
                                        0x201 (size before relaxing)
 .debug_str     0x000000000000bd26       0xaa bin/blib.a(print.o)
                                        0x24a (size before relaxing)
 .debug_str     0x000000000000bdd0       0x9d bin/blib.a(winattrs.o)
                                        0x223 (size before relaxing)
 .debug_str     0x000000000000be6d       0x72 bin/blib.a(wininit.o)
                                        0x212 (size before relaxing)
 .debug_str     0x000000000000bedf       0xb6 bin/blib.a(editbox.o)
                                        0x2e6 (size before relaxing)
 .debug_str     0x000000000000bf95       0x6a bin/blib.a(keymap_us.o)
                                        0x14e (size before relaxing)
 .debug_str     0x000000000000bfff      0x236 bin/blib.a(autoboot.o)
                                        0x8ce (size before relaxing)
 .debug_str     0x000000000000c235       0x5e bin/blib.a(dhcpmgmt.o)
                                        0x477 (size before relaxing)
 .debug_str     0x000000000000c293       0xa5 bin/blib.a(ifmgmt.o)
                                        0x4eb (size before relaxing)
 .debug_str     0x000000000000c338       0xea bin/blib.a(imgmgmt.o)
                                        0x430 (size before relaxing)
 .debug_str     0x000000000000c422       0x45 bin/blib.a(prompt.o)
                                        0x132 (size before relaxing)
 .debug_str     0x000000000000c467      0x16d bin/blib.a(pxemenu.o)
                                        0x7eb (size before relaxing)
 .debug_str     0x000000000000c5d4       0x52 bin/blib.a(route.o)
                                        0x434 (size before relaxing)
 .debug_str     0x000000000000c626       0x74 bin/blib.a(config_ethernet.o)
                                         0xba (size before relaxing)
 .debug_str     0x000000000000c69a       0x85 bin/blib.a(config_romprefix.o)
                                         0xcb (size before relaxing)
 .debug_str     0x000000000000c71f       0x79 bin/blib.a(config_route.o)
                                         0xbf (size before relaxing)
 .debug_str     0x000000000000c798       0x81 bin/blib.a(basemem_packet.o)
                                        0x170 (size before relaxing)
 .debug_str     0x000000000000c819       0xa3 bin/blib.a(relocate.o)
                                        0x285 (size before relaxing)
 .debug_str     0x000000000000c8bc      0x16e bin/blib.a(memmap.o)
                                        0x3e3 (size before relaxing)
 .debug_str     0x000000000000ca2a       0xaa bin/blib.a(biosint.o)
                                        0x319 (size before relaxing)
 .debug_str     0x000000000000cad4       0x82 bin/blib.a(bios_nap.o)
                                        0x14b (size before relaxing)
 .debug_str     0x000000000000cb56       0x81 bin/blib.a(bios_reboot.o)
                                        0x26a (size before relaxing)
 .debug_str     0x000000000000cbd7       0x9a bin/blib.a(bios_timer.o)
                                        0x299 (size before relaxing)
 .debug_str     0x000000000000cc71      0xa87 bin/blib.a(int13.o)
                                       0x1240 (size before relaxing)
 .debug_str     0x000000000000d6f8       0xd0 bin/blib.a(memtop_umalloc.o)
                                        0x303 (size before relaxing)
 .debug_str     0x000000000000d7c8       0xa4 bin/blib.a(pcibios.o)
                                        0x2cf (size before relaxing)
 .debug_str     0x000000000000d86c       0xaf bin/blib.a(cpuid.o)
                                        0x20c (size before relaxing)
 .debug_str     0x000000000000d91b       0xdc bin/blib.a(x86_tcpip.o)
                                        0x20b (size before relaxing)
 .debug_str     0x000000000000d9f7       0x61 bin/blib.a(acpi.o)
                                        0x260 (size before relaxing)
 .debug_str     0x000000000000da58       0x6e bin/blib.a(asprintf.o)
                                        0x163 (size before relaxing)
 .debug_str     0x000000000000dac6       0xa5 bin/blib.a(base16.o)
                                        0x1ab (size before relaxing)
 .debug_str     0x000000000000db6b       0xbb bin/blib.a(base64.o)
                                        0x1f1 (size before relaxing)
 .debug_str     0x000000000000dc26       0x67 bin/blib.a(basename.o)
                                        0x13c (size before relaxing)
 .debug_str     0x000000000000dc8d       0xb0 bin/blib.a(bitmap.o)
                                        0x1b6 (size before relaxing)
 .debug_str     0x000000000000dd3d       0x5e bin/blib.a(bitops.o)
                                        0x121 (size before relaxing)
 .debug_str     0x000000000000dd9b       0x7a bin/blib.a(blockdev.o)
                                        0x25d (size before relaxing)
 .debug_str     0x000000000000de15       0x65 bin/blib.a(console.o)
                                        0x189 (size before relaxing)
 .debug_str     0x000000000000de7a       0x3f bin/blib.a(ctype.o)
                                         0x85 (size before relaxing)
 .debug_str     0x000000000000deb9       0x59 bin/blib.a(cwuri.o)
                                        0x19d (size before relaxing)
 .debug_str     0x000000000000df12      0x146 bin/blib.a(downloader.o)
                                        0x4e7 (size before relaxing)
 .debug_str     0x000000000000e058       0x4b bin/blib.a(edd.o)
                                        0x250 (size before relaxing)
 .debug_str     0x000000000000e0a3       0x37 bin/blib.a(errno.o)
                                         0x83 (size before relaxing)
 .debug_str     0x000000000000e0da       0x67 bin/blib.a(getkey.o)
                                        0x172 (size before relaxing)
 .debug_str     0x000000000000e141       0x4b bin/blib.a(job.o)
                                        0x1ea (size before relaxing)
 .debug_str     0x000000000000e18c       0x83 bin/blib.a(linebuf.o)
                                        0x1c4 (size before relaxing)
 .debug_str     0x000000000000e20f       0xa9 bin/blib.a(menu.o)
                                        0x221 (size before relaxing)
 .debug_str     0x000000000000e2b8       0xc3 bin/blib.a(monojob.o)
                                        0x299 (size before relaxing)
 .debug_str     0x000000000000e37b       0xc9 bin/blib.a(params.o)
                                        0x220 (size before relaxing)
 .debug_str     0x000000000000e444       0xa0 bin/blib.a(pending.o)
                                        0x18c (size before relaxing)
 .debug_str     0x000000000000e4e4       0x4b bin/blib.a(random.o)
                                        0x11c (size before relaxing)
 .debug_str     0x000000000000e52f      0x199 bin/blib.a(resolv.o)
                                        0x4b4 (size before relaxing)
 .debug_str     0x000000000000e6c8      0x402 bin/blib.a(aoe.o)
                                        0xc85 (size before relaxing)
 .debug_str     0x000000000000eaca      0x153 bin/blib.a(dhcppkt.o)
                                        0x669 (size before relaxing)
 .debug_str     0x000000000000ec1d       0xbb bin/blib.a(fragment.o)
                                        0x346 (size before relaxing)
 .debug_str     0x000000000000ecd8       0xa6 bin/blib.a(icmpv4.o)
                                        0x2c1 (size before relaxing)
 .debug_str     0x000000000000ed7e       0x56 bin/blib.a(socket.o)
                                        0x1b2 (size before relaxing)
 .debug_str     0x000000000000edd4      0x4b0 bin/blib.a(tcp.o)
                                        0xc9b (size before relaxing)
 .debug_str     0x000000000000f284      0x2d1 bin/blib.a(ata.o)
                                        0x6d7 (size before relaxing)
 .debug_str     0x000000000000f555      0x10b bin/blib.a(smbios.o)
                                        0x367 (size before relaxing)
 .debug_str     0x000000000000f660       0xfd bin/blib.a(editstring.o)
                                        0x2a4 (size before relaxing)
 .debug_str     0x000000000000f75d      0x118 bin/blib.a(readline.o)
                                        0x2ca (size before relaxing)
 .debug_str     0x000000000000f875       0xb7 bin/blib.a(shell.o)
                                        0x415 (size before relaxing)
 .debug_str     0x000000000000f92c       0x7c bin/blib.a(route_ipv4.o)
                                        0x4f6 (size before relaxing)
 .debug_str     0x000000000000f9a8      0x168 bin/blib.a(hidemem.o)
                                        0x4c4 (size before relaxing)
 .debug_str     0x000000000000fb10       0x9c bin/blib.a(bootsector.o)
                                        0x1a8 (size before relaxing)
 .debug_str     0x000000000000fbac       0xf8 bin/blib.a(bios_smbios.o)
                                        0x31f (size before relaxing)
 .debug_str     0x000000000000fca4       0xc6 bin/blib.a(icmp.o)
                                        0x320 (size before relaxing)

bin/rtl8139.rom.tmp:     file format elf32-i386

Sections:
Idx Name          Size      VMA       LMA       File off  Algn
  0 .prefix       00000894  00000000  00000000  00000140  2**4
                  CONTENTS, ALLOC, LOAD, CODE
  1 .text16.early 000000ee  00000000  000008a0  000009e0  2**1
                  CONTENTS, ALLOC, LOAD, CODE
  2 .text16.late  0000067c  000000f0  00000990  00000ad0  2**4
                  CONTENTS, ALLOC, LOAD, CODE
  3 .data16       000000d2  00000000  00001010  00001150  2**4
                  CONTENTS, ALLOC, LOAD, DATA
  4 .bss.data16   00002bf8  000000e0  000011d0  0001a010  2**4
                  ALLOC
  5 .textdata     00018d30  00000000  000010f0  00001224  2**2
                  CONTENTS, ALLOC, LOAD, CODE
  6 .bss.textdata 00081198  00018d30  00019ed0  0001a008  2**3
                  ALLOC
  7 .zinfo        000000b0  00000000  00019e20  00019f54  2**0
                  CONTENTS, ALLOC, LOAD, READONLY, DATA
  8 .debug_frame  0000a920  00000000  00000000  0001a004  2**2
                  CONTENTS, READONLY, DEBUGGING
  9 .debug_info   00086c23  00000000  00000000  00024924  2**0
                  CONTENTS, READONLY, DEBUGGING
 10 .debug_abbrev 00016dea  00000000  00000000  000ab547  2**0
                  CONTENTS, READONLY, DEBUGGING
 11 .debug_loc    0003d996  00000000  00000000  000c2331  2**0
                  CONTENTS, READONLY, DEBUGGING
 12 .debug_aranges 00002dd0  00000000  00000000  000ffcc7  2**0
                  CONTENTS, READONLY, DEBUGGING
 13 .debug_ranges 000035b0  00000000  00000000  00102a97  2**0
                  CONTENTS, READONLY, DEBUGGING
 14 .debug_line   0001514b  00000000  00000000  00106047  2**0
                  CONTENTS, READONLY, DEBUGGING
 15 .debug_str    0000fd6a  00000000  00000000  0011b192  2**0
                  CONTENTS, READONLY, DEBUGGING
SYMBOL TABLE:


00000000 l    df *ABS*	00000000 bios_console.c
00000000 l    df *ABS*	00000000 bzimage.c
00000000 l    df *ABS*	00000000 pxe_call.c
00000000 l    df *ABS*	00000000 memmap.c
00000000 l    df *ABS*	00000000 bios_nap.c
00000000 l    df *ABS*	00000000 bios_reboot.c
00000000 l    df *ABS*	00000000 bios_timer.c
00000000 l    df *ABS*	00000000 int13.c
00000000 l    df *ABS*	00000000 pcibios.c
00000000 l    df *ABS*	00000000 bootsector.c
00000000 l    df *ABS*	00000000 realtek.c
00000000 l    df *ABS*	00000000 nvs.c
00000000 l    df *ABS*	00000000 threewire.c
00000000 l    df *ABS*	00000000 spi_bit.c
00000000 l    df *ABS*	00000000 timer2.c
00000000 l    df *ABS*	00000000 elfboot.c
00000000 l    df *ABS*	00000000 initrd.c
00000000 l    df *ABS*	00000000 multiboot.c
00000000 l    df *ABS*	00000000 pxe_image.c
00000000 l    df *ABS*	00000000 pxe_file.c
00000000 l    df *ABS*	00000000 pxe_loader.c
00000000 l    df *ABS*	00000000 pxe_preboot.c
00000000 l    df *ABS*	00000000 pxe_tftp.c
00000000 l    df *ABS*	00000000 pxe_udp.c
00000000 l    df *ABS*	00000000 pxe_undi.c
00000000 l    df *ABS*	00000000 x86_string.c
00000000 l    df *ABS*	00000000 cpuid_cmd.c
00000000 l    df *ABS*	00000000 ansiesc.c
00000000 l    df *ABS*	00000000 cpio.c
00000000 l    df *ABS*	00000000 device.c
00000000 l    df *ABS*	00000000 exec.c
00000000 l    df *ABS*	00000000 getopt.c
00000000 l    df *ABS*	00000000 image.c
00000000 l    df *ABS*	00000000 init.c
00000000 l    df *ABS*	00000000 interface.c
00000000 l    df *ABS*	00000000 iobuf.c
00000000 l    df *ABS*	00000000 list.c
00000000 l    df *ABS*	00000000 main.c
00000000 l    df *ABS*	00000000 malloc.c
00000000 l    df *ABS*	00000000 memblock.c
00000000 l    df *ABS*	00000000 misc.c
00000000 l    df *ABS*	00000000 nvo.c
00000000 l    df *ABS*	00000000 open.c
00000000 l    df *ABS*	00000000 parseopt.c
00000000 l    df *ABS*	00000000 posix_io.c
00000000 l    df *ABS*	00000000 process.c
00000000 l    df *ABS*	00000000 refcnt.c
00000000 l    df *ABS*	00000000 settings.c
00000000 l    df *ABS*	00000000 string.c
00000000 l    df *ABS*	00000000 timer.c
00000000 l    df *ABS*	00000000 uri.c
00000000 l    df *ABS*	00000000 uuid.c
00000000 l    df *ABS*	00000000 vsprintf.c
00000000 l    df *ABS*	00000000 xfer.c
00000000 l    df *ABS*	00000000 arp.c
00000000 l    df *ABS*	00000000 dhcpopts.c
00000000 l    df *ABS*	00000000 ethernet.c
00000000 l    df *ABS*	00000000 eth_slow.c
00000000 l    df *ABS*	00000000 fakedhcp.c
00000000 l    df *ABS*	00000000 iobpad.c
00000000 l    df *ABS*	00000000 ipv4.c
00000000 l    df *ABS*	00000000 neighbour.c
00000000 l    df *ABS*	00000000 netdevice.c
00000000 l    df *ABS*	00000000 netdev_settings.c
00000000 l    df *ABS*	00000000 nullnet.c
00000000 l    df *ABS*	00000000 rarp.c
00000000 l    df *ABS*	00000000 retry.c
00000000 l    df *ABS*	00000000 tcpip.c
00000000 l    df *ABS*	00000000 udp.c
00000000 l    df *ABS*	00000000 http.c
00000000 l    df *ABS*	00000000 httpcore.c
00000000 l    df *ABS*	00000000 iscsi.c
00000000 l    df *ABS*	00000000 dhcp.c
00000000 l    df *ABS*	00000000 dns.c
00000000 l    df *ABS*	00000000 tftp.c
00000000 l    df *ABS*	00000000 elf.c
00000000 l    df *ABS*	00000000 embedded.c
00000000 l    df *ABS*	00000000 script.c
00000000 l    df *ABS*	00000000 segment.c
00000000 l    df *ABS*	00000000 pci.c
00000000 l    df *ABS*	00000000 pci_settings.c
00000000 l    df *ABS*	00000000 mii.c
00000000 l    df *ABS*	00000000 ibft.c
00000000 l    df *ABS*	00000000 scsi.c
00000000 l    df *ABS*	00000000 bitbash.c
00000000 l    df *ABS*	00000000 smbios_settings.c
00000000 l    df *ABS*	00000000 chap.c
00000000 l    df *ABS*	00000000 md5.c
00000000 l    df *ABS*	00000000 strerror.c
00000000 l    df *ABS*	00000000 autoboot_cmd.c
00000000 l    df *ABS*	00000000 config_cmd.c
00000000 l    df *ABS*	00000000 dhcp_cmd.c
00000000 l    df *ABS*	00000000 ifmgmt_cmd.c
00000000 l    df *ABS*	00000000 image_cmd.c
00000000 l    df *ABS*	00000000 login_cmd.c
00000000 l    df *ABS*	00000000 menu_cmd.c
00000000 l    df *ABS*	00000000 nvo_cmd.c
00000000 l    df *ABS*	00000000 reboot_cmd.c
00000000 l    df *ABS*	00000000 route_cmd.c
00000000 l    df *ABS*	00000000 sanboot_cmd.c
00000000 l    df *ABS*	00000000 sync_cmd.c
00000000 l    df *ABS*	00000000 login_ui.c
00000000 l    df *ABS*	00000000 menu_ui.c
00000000 l    df *ABS*	00000000 settings_ui.c
00000000 l    df *ABS*	00000000 ansi_screen.c
00000000 l    df *ABS*	00000000 clear.c
00000000 l    df *ABS*	00000000 colour.c
00000000 l    df *ABS*	00000000 mucurses.c
00000000 l    df *ABS*	00000000 print.c
00000000 l    df *ABS*	00000000 winattrs.c
00000000 l    df *ABS*	00000000 wininit.c
00000000 l    df *ABS*	00000000 editbox.c
00000000 l    df *ABS*	00000000 autoboot.c
00000000 l    df *ABS*	00000000 dhcpmgmt.c
00000000 l    df *ABS*	00000000 ifmgmt.c
00000000 l    df *ABS*	00000000 imgmgmt.c
00000000 l    df *ABS*	00000000 prompt.c
00000000 l    df *ABS*	00000000 pxemenu.c
00000000 l    df *ABS*	00000000 route.c
00000000 l    df *ABS*	00000000 relocate.c
00000000 l    df *ABS*	00000000 biosint.c
00000000 l    df *ABS*	00000000 memtop_umalloc.c
00000000 l    df *ABS*	00000000 cpuid.c
00000000 l    df *ABS*	00000000 x86_tcpip.c
00000000 l    df *ABS*	00000000 acpi.c
00000000 l    df *ABS*	00000000 asprintf.c
00000000 l    df *ABS*	00000000 base16.c
00000000 l    df *ABS*	00000000 base64.c
00000000 l    df *ABS*	00000000 basename.c
00000000 l    df *ABS*	00000000 bitmap.c
00000000 l    df *ABS*	00000000 bitops.c
00000000 l    df *ABS*	00000000 blockdev.c
00000000 l    df *ABS*	00000000 console.c
00000000 l    df *ABS*	00000000 ctype.c
00000000 l    df *ABS*	00000000 cwuri.c
00000000 l    df *ABS*	00000000 downloader.c
00000000 l    df *ABS*	00000000 edd.c
00000000 l    df *ABS*	00000000 getkey.c
00000000 l    df *ABS*	00000000 job.c
00000000 l    df *ABS*	00000000 linebuf.c
00000000 l    df *ABS*	00000000 menu.c
00000000 l    df *ABS*	00000000 monojob.c
00000000 l    df *ABS*	00000000 params.c
00000000 l    df *ABS*	00000000 pending.c
00000000 l    df *ABS*	00000000 random.c
00000000 l    df *ABS*	00000000 resolv.c
00000000 l    df *ABS*	00000000 aoe.c
00000000 l    df *ABS*	00000000 dhcppkt.c
00000000 l    df *ABS*	00000000 fragment.c
00000000 l    df *ABS*	00000000 icmpv4.c
00000000 l    df *ABS*	00000000 socket.c
00000000 l    df *ABS*	00000000 tcp.c
00000000 l    df *ABS*	00000000 ata.c
00000000 l    df *ABS*	00000000 smbios.c
00000000 l    df *ABS*	00000000 editstring.c
00000000 l    df *ABS*	00000000 readline.c
00000000 l    df *ABS*	00000000 shell.c
00000000 l    df *ABS*	00000000 route_ipv4.c
00000000 l    df *ABS*	00000000 hidemem.c
00000000 l    df *ABS*	00000000 bios_smbios.c
00000000 l    df *ABS*	00000000 icmp.c
00000000 l    df *ABS*	00000000 version.c
00000000 l    df *ABS*	00000000 keymap_us.c
00000000 l    df *ABS*	00000000 config.c
00000000 l    df *ABS*	00000000 config_ethernet.c
00000000 l    df *ABS*	00000000 config_romprefix.c
00000000 l    df *ABS*	00000000 config_route.c
00000000 l    df *ABS*	00000000 basemem_packet.c
00000000 l    df *ABS*	00000000 errno.c
00000000 g       *ABS*	00000000 _pprefix_skip
00000000 g       *ABS*	00000000 _pprefix_filesz
00000000 g       *ABS*	00000000 _prefix_lma
00000001 g       *ABS*	00000000 _assert
00000001  w      *ABS*	00000000 _payload_align
00000003 l       *ABS*	00000000 x86_tcpip_loop_step_size
00000007 l       *ABS*	00000000 SegDescCnt
00000008 l       *ABS*	00000000 PM_CS
0000000c l       *ABS*	00000000 ipxeheader_len
00000010 l       *ABS*	00000000 PM_SS
00000010 g       *ABS*	00000000 .hidden _max_align
00000016 l       *ABS*	00000000 undiheader_len
00000018 l       *ABS*	00000000 PM_DS
0000001c l       *ABS*	00000000 pciheader_len
00000020 l       *ABS*	00000000 pnpheader_len
0000002c l       *ABS*	00000000 pxenv_length
00000038 l       *ABS*	00000000 gdt_length
00000058 l       *ABS*	00000000 pxe_length
00000077 g       *ABS*	00000000 _text16_memsz_pgh
000000b0 g       *ABS*	00000000 _zinfo_memsz
000000b0 g       *ABS*	00000000 _zinfo_filesz
000000bc l       *ABS*	00000000 .hidden embedded_image_1_len
000000d2 g       *ABS*	00000000 _data16_filesz
000000ee g       *ABS*	00000000 _text16_early_filesz
000000ee g       *ABS*	00000000 _text16_early_memsz
00000268 g       *ABS*	00000000 _textdata_memsz_kb
000002ce g       *ABS*	00000000 _data16_memsz_pgh
0000067c g       *ABS*	00000000 _text16_late_filesz
0000067c g       *ABS*	00000000 _text16_late_memsz
0000076c g       *ABS*	00000000 .hidden _text16_memsz
00000894 g       *ABS*	00000000 _prefix_memsz
00000894 g       *ABS*	00000000 _prefix_filesz
000008a0 g       *ABS*	00000000 _text16_early_lma
00000990 g       *ABS*	00000000 _text16_late_lma
00000990 g       *ABS*	00000000 _payload_lma
00000990 g       *ABS*	00000000 _pprefix_lma
00001010 g       *ABS*	00000000 _data16_lma
000010ec g       *ABS*	00000000 pci_vendor_id
000010f0 g       *ABS*	00000000 _textdata_lma
00002cd8 g       *ABS*	00000000 .hidden _data16_memsz
00008139 g       *ABS*	00000000 pci_device_id
000099ed g       *ABS*	00000000 _textdata_memsz_pgh
00018d30 g       *ABS*	00000000 _textdata_filesz
00019e20 g       *ABS*	00000000 _filesz
00019e20 g       *ABS*	00000000 _zinfo_lma
00019ed0 g       *ABS*	00000000 _end_lma
00099ec8 g       *ABS*	00000000 _textdata_memsz
00099ec8 g       *ABS*	00000000 _pprefix_memsz
dcddf8e3 g       *ABS*	00000000 _build_id
00000000 l    d  .prefix	00000000 .prefix
00000000 g       .prefix	00000000 _rom_start
00000000 g       .prefix	00000000 check__rom_start
00000000 g       .prefix	00000000 _prefix
00000000 l       .prefix	0000001c romheader
00000002 l       .prefix	00000000 romheader_size
00000006 l       .prefix	00000000 checksum
0000001c l       .prefix	0000001c pciheader
0000002c l       .prefix	00000000 pciheader_image_length
00000032 l       .prefix	00000000 pciheader_runtime_length
00000040 l       .prefix	00000020 pnpheader
00000060 l       .prefix	00000010 mfgstr
00000070 l       .prefix	00000013 prodstr
00000074 l       .prefix	00000000 prodstr_separator
0000007a l       .prefix	00000000 prodstr_pci_id
00000083 g       .prefix	00000016 undiheader
00000099 l       .prefix	0000000c ipxeheader
0000009f l       .prefix	00000000 shrunk_rom_size
000000a1 l       .prefix	00000000 build_id
000000a5 l       .prefix	000001f2 init
00000132 l       .prefix	00000000 pci3_insane
0000013c l       .prefix	00000000 no_pci3
00000148 l       .prefix	00000000 pnp_scan
00000175 l       .prefix	00000000 no_pnp
00000175 l       .prefix	00000000 pnp_done
00000178 l       .prefix	00000000 pmm_scan
0000021c l       .prefix	00000000 no_pmm
00000285 l       .prefix	00000000 no_shell
00000297 l       .prefix	00000054 get_pmm
0000029d l       .prefix	00000000 get_pmm_find
000002bd l       .prefix	00000000 get_pmm_allocate
000002d4 l       .prefix	00000000 get_pmm_done
000002eb l       .prefix	00000017 get_pmm_image_source
00000302 l       .prefix	00000002 get_pmm_decompress_to
00000304 l       .prefix	0000002e init_message
00000332 l       .prefix	00000005 init_message_pci
00000337 l       .prefix	00000005 init_message_pnp
0000033c l       .prefix	00000005 init_message_pmm
00000341 l       .prefix	00000007 init_message_int19
00000348 l       .prefix	0000001c init_message_prompt
00000364 l       .prefix	00000004 init_message_dots
00000368 l       .prefix	00000003 init_message_done
0000036b l       .prefix	00000002 init_pci_busdevfn
0000036d g       .prefix	00000004 image_source
00000371 l       .prefix	00000002 extra_size
00000373 g       .prefix	00000004 decompress_to
00000377 l       .prefix	00000009 bev_entry
00000380 l       .prefix	00000044 int19_entry
000003c4 l       .prefix	00000004 orig_int19
000003c8 l       .prefix	0000001e int19_message_prompt
000003e6 l       .prefix	00000004 int19_message_dots
000003ea l       .prefix	00000003 int19_message_done
000003ed l       .prefix	00000000 exec
00000430 l       .prefix	00000017 exec_message_pre_install
00000447 l       .prefix	00000004 exec_message_post_install
0000044b l       .prefix	0000002c wait_for_key
00000477 l       .prefix	0000001f wait_for_tick
00000496 g       .prefix	0000004b undiloader
000004e1 g       .prefix	0000001f print_character
00000500 g       .prefix	0000000d print_message
0000050d g       .prefix	0000000b print_hex_dword
00000518 g       .prefix	00000007 print_hex_word
0000051f g       .prefix	00000009 print_hex_byte
00000528 g       .prefix	0000000d print_hex_nibble
00000535 g       .prefix	00000021 print_pci_busdevfn
00000556 g       .prefix	00000019 print_kill_line
0000056f l       .prefix	00000008 copy_bytes
00000577 l       .prefix	0000000c zero_bytes
00000583 l       .prefix	00000093 process_bytes
00000616 l       .prefix	00000029 install_block
0000063f g       .prefix	00000021 alloc_basemem
00000660 g       .prefix	0000001d install
0000067d g       .prefix	00000126 install_prealloc
000007a3 l       .prefix	0000002d a20_death_message
000007d0 l       .prefix	00000029 payload_death_message
000007f9 g       .prefix	00000000 decompress16
00000809 l       .prefix	00000000 decompr_literals_n2b
0000080b l       .prefix	00000000 decompr_loop_n2b
00000810 l       .prefix	00000000 dcl1_n2b
00000813 l       .prefix	00000000 dcl2_n2b
0000081a l       .prefix	00000000 loop1_n2b
0000083d l       .prefix	00000000 decompr_ebpeax_n2b
00000850 l       .prefix	00000000 loop2_n2b
0000085f l       .prefix	00000000 decompr_got_mlen_n2b
0000087a l       .prefix	00000000 getbit1
0000087f l       .prefix	00000000 getbit32
0000088b l       .prefix	00000000 decompr_end_n2b
00000894 g       .prefix	00000000 _mprefix
00000000 l    d  .text16.early	00000000 .text16.early
00000000 l       .text16.early	00000000 pxenv_null_entry
00000000 g       .text16.early	00000000 _text16
00000004 l       .text16.early	0000000a test_a20_short
0000000e l       .text16.early	00000032 test_a20_long
00000040 l       .text16.early	0000000f enable_a20_bios
0000004f l       .text16.early	0000001e enable_a20_kbc
0000006d l       .text16.early	00000020 empty_kbc
0000008d l       .text16.early	0000000e enable_a20_fast
0000009b g       .text16.early	00000000 enable_a20
000000e5 g       .text16.early	00000004 access_highmem
000000e9  w      .text16.early	00000002 close_payload
000000e9  w      .text16.early	00000002 open_payload
000000ec l       .text16.early	00000002 enable_a20_method
000000ee g       .text16.early	00000000 _etext16_early
00000894 g       .text16.early	00000000 _eprefix
000000f0 l    d  .text16.late	00000000 .text16.late
000000f0 g       .text16.late	00000000 _text16_late
0000014c g       .text16.late	00000000 init_librm
000001b8 l       .text16.late	00000000 set_seg_base
000001c9  w      .text16.late	00000000 idt_init
000001ca l       .text16.late	00000000 real_to_prot
0000022a l       .text16.late	00000000 p2r_jump_target
00000243 g       .text16.late	00000000 prot_call
000002a9 g       .text16.late	00000030 free_basemem
000002d9 g       .text16.late	00000004 uninstall
000002fd l       .text16.late	0000000f pxenv_entry
0000030c l       .text16.late	00000000 pxe_entry_sp
0000030c l       .text16.late	00000028 pxe_entry
00000314 l       .text16.late	00000000 pxe_entry_esp
00000316 l       .text16.late	00000000 pxe_entry_common
00000334 g       .text16.late	00000000 .hidden pxe_int_1a
00000384 l       .text16.late	00000000 .hidden int13_wrapper
00000440 l       .text16.late	00000000 saved_ebp
00000444 l       .text16.late	00000000 saved_ss
00000446 l       .text16.late	00000000 saved_sp
00000448 l       .text16.late	00000000 saved_retaddr
0000044a l       .text16.late	00000000 .hidden bootsector_exec_fail
00000461 l       .text16.late	0000003b window_region
0000049c l       .text16.late	0000002a patch_1m
000004c6 l       .text16.late	00000026 patch_16m
000004ec l       .text16.late	0000000e patch_1m_16m
000004fa l       .text16.late	000000ad get_underlying_e820
000005a7 l       .text16.late	00000058 get_windowed_e820
000005ff l       .text16.late	0000002b get_nonempty_e820
0000062a l       .text16.late	0000002a get_mangled_e820
00000654 l       .text16.late	0000000f int15_e820
00000663 l       .text16.late	0000001e int15_e801
00000681 l       .text16.late	00000015 int15_88
00000696 g       .text16.late	00000028 .hidden int15
000006be g       .text16.late	00000009 patch_cf
000006c7 g       .text16.late	00000000 rm_ds
000006c9 g       .text16.late	00000002 hooked_bios_interrupts
000006d0 g       .text16.late	00000058 ppxe
000006f0 l       .text16.late	00000000 pxe_segments
00000730 g       .text16.late	0000002c pxenv
0000075c g       .text16.late	00000000 pxe_int_1a_vector
00000760 l     O .text16.late	00000001 num_drives
00000761 l     O .text16.late	00000001 num_fdds
00000764 l     O .text16.late	00000004 int13_vector
00000768 g       .text16.late	00000004 int15_vector
0000076c g       .text16.late	00000000 _mtext16
00000000 l    d  .data16	00000000 .data16
00000000 g       .data16	00000000 _data16
00000010 l       .data16	00000000 gdt
00000010 l       .data16	00000000 gdtr
00000010 l       .data16	00000000 gdt_limit
00000012 l       .data16	00000000 gdt_base
00000018 l       .data16	00000000 virtual_cs
00000020 l       .data16	00000000 virtual_ds
00000028 l       .data16	00000000 physical_cs
00000030 l       .data16	00000000 physical_ds
00000038 l       .data16	00000000 real_cs
00000040 l       .data16	00000000 real_ds
00000048 l       .data16	00000000 gdt_end
00000048 l       .data16	00000000 rm_idtr
00000048  w      .data16	00000000 idtr
0000004e l       .data16	00000000 p2r_jump_vector
00000050 g       .data16	00000000 rm_cs
00000052 l       .data16	00000000 rc_function
00000056 l       .data16	00000000 rm_virt_offset
0000005a l       .data16	00000000 rm_text16
0000005e l       .data16	00000000 rm_data16
00000062 l       .data16	00000004 init_librm_vector
00000066 l       .data16	00000004 prot_call_vector
0000006a l       .data16	00000004 close_payload_vector
00000070 l     O .data16	0000000b int13_fdd_params
0000007c l     O .data16	00000008 eltorito_cmd
00000090 l       .data16	00000000 memory_windows
00000090 l       .data16	00000000 base_memory_window
00000098 g       .data16	00000000 hidemem_base
000000a0 l       .data16	00000000 ext_memory_window
000000a8 g       .data16	00000000 hidemem_umalloc
000000b8 g       .data16	00000000 hidemem_textdata
000000d0 l       .data16	00000000 memory_windows_end
000000d0 l       .data16	00000002 underlying_e820_index
000000d2 g       .data16	00000000 _mdata16
0000076c g       .data16	00000000 _etext16
000000e0 l    d  .bss.data16	00000000 .bss.data16
000000e0 l     O .bss.data16	00000058 mbinfo
00000138 l     O .bss.data16	00000080 mbmodules
000001b8 l     O .bss.data16	000000c0 mbmemmap
00000278 l     O .bss.data16	00000020 mb_bootloader_name
00000298 l     O .bss.data16	00000200 mb_cmdlines
00000498 l     O .bss.data16	00000ec4 cached_info
0000135c g     O .bss.data16	000005ea .hidden basemem_packet
00001948 g     O .bss.data16	00000001 .hidden memmap_post
0000194c l     O .bss.data16	00000018 e820buf
00001970 l     O .bss.data16	00000020 eltorito_address
00001990 l     O .bss.data16	00000300 xbftab
00001c90 l       .bss.data16	00000004 underlying_e820_ebx
00001c94 l       .bss.data16	00000040 underlying_e820_cache
00001cd4 l       .bss.data16	00000004 underlying_e820_cache_size
00001cd8 g       .bss.data16	00000000 _stack16
00002cd8 g       .bss.data16	00000000 _estack16
00002cd8 g       .bss.data16	00000000 _edata16
00000000 l    d  .textdata	00000000 .textdata
00000000 g       .textdata	00000000 .hidden _textdata
00000004 g       .textdata	00000000 .hidden setjmp
00000022 g       .textdata	00000000 .hidden longjmp
0000004c g       .textdata	00000000 _virt_to_phys
00000078 g       .textdata	00000000 _phys_to_virt
000000e1 l       .textdata	00000000 prot_to_real
00000137 g       .textdata	00000000 real_call
0000014a l     F .textdata	0000000e realtek_spi_open_bit
00000158 l     F .textdata	0000000e realtek_spi_close_bit
00000166 l     F .textdata	00000010 realtek_spi_read_bit
00000176 l     F .textdata	00000028 realtek_spi_write_bit
0000019e l     F .textdata	00000015 realtek_irq
000001b3 l     F .textdata	000000c8 realtek_transmit
0000027b l     F .textdata	00000035 realtek_check_link
000002b0 l     F .textdata	0000004d realtek_mii_read
000002fd l     F .textdata	00000050 realtek_mii_write
0000034d l     F .textdata	00000031 realtek_reset.isra.10
0000037e l     F .textdata	00000037 realtek_remove
000003b5 l     F .textdata	00000281 realtek_probe
00000636 l     F .textdata	00000081 realtek_refill_rx.part.12
000006b7 l     F .textdata	000001d9 realtek_poll
00000890 l     F .textdata	00000046 realtek_destroy_ring
000008d6 l     F .textdata	00000083 realtek_close
00000959 l     F .textdata	0000005b realtek_create_ring
000009b4 l     F .textdata	000000d8 realtek_open
00000a8c g     F .textdata	00000059 .hidden nvs_read
00000ae5 l     F .textdata	0000004b nvs_verify
00000b30 g     F .textdata	0000006b .hidden nvs_write
00000b9b g     F .textdata	0000001c .hidden threewire_read
00000bb7 g     F .textdata	0000005f .hidden threewire_write
00000c16 l     F .textdata	00000036 spi_bit_set_slave_select
00000c4c l     F .textdata	000000de spi_bit_transfer
00000d2a l     F .textdata	000000e3 spi_bit_rw
00000e0d g     F .textdata	00000008 .hidden init_spi_bit_basher
00000e15 g     F .textdata	00000033 .hidden timer2_udelay
00000e48 l     F .textdata	00000038 bios_handle_cup
00000e80 l     F .textdata	00000025 bios_handle_ed
00000ea5 l     F .textdata	0000006a bios_handle_sgr
00000f0f l     F .textdata	00000026 bios_putchar
00000f35 l     F .textdata	0000002a bios_iskey
00000f5f l     F .textdata	0000008f bios_getchar
00000fee l     F .textdata	0000015e bzimage_load_initrd
0000114c l     F .textdata	0000013b bzimage_parse_header.isra.0
00001287 g     F .textdata	0000001a .hidden bzimage_probe
000012a1 l     F .textdata	00000419 bzimage_exec
000016ba l     F .textdata	00000039 elfboot_exec
000016f3 l     F .textdata	00000034 elfboot_probe
00001727 l     F .textdata	00000016 initrd_startup
0000173d g     F .textdata	00000175 .hidden initrd_reshuffle
000018b2 g     F .textdata	00000030 .hidden initrd_reshuffle_check
000018e2 l     F .textdata	00000089 multiboot_add_cmdline
0000196b l     F .textdata	00000079 multiboot_find_header
000019e4 l     F .textdata	0000000e multiboot_probe
000019f2 l     F .textdata	00000326 multiboot_exec
00001d18 l     F .textdata	0000007f pxe_exec
00001d97 g     F .textdata	0000001d .hidden pxe_probe
00001db4 l     F .textdata	0000000b pxenv_unknown
00001dbf l     F .textdata	000000ea pxe_init_structures
00001ea9 g     F .textdata	00000087 .hidden pxe_api_call
00001f30 g     F .textdata	0000005d .hidden pxe_loader_call
00001f8d g     F .textdata	0000003f .hidden pxe_activate
00001fcc g     F .textdata	0000003f .hidden pxe_deactivate
0000200b g     F .textdata	00000076 .hidden pxe_start_nbp
00002081 l     F .textdata	0000005c pxenv_file_cmdline
000020dd l     F .textdata	00000072 pxenv_file_exec
0000214f l     F .textdata	0000002c pxenv_get_file_size
0000217b l     F .textdata	00000047 pxenv_file_read
000021c2 l     F .textdata	00000044 pxenv_file_select
00002206 l     F .textdata	00000015 pxenv_file_close
0000221b l     F .textdata	00000072 pxenv_file_open
0000228d l     F .textdata	0000007d pxenv_file_api_check
0000230a g     F .textdata	0000003e .hidden undi_loader
00002348 l     F .textdata	00000008 pxenv_unload_stack
00002350 l     F .textdata	0000000b pxenv_start_base
0000235b l     F .textdata	00000008 pxenv_stop_base
00002363 l     F .textdata	00000036 pxenv_stop_undi
00002399 l     F .textdata	00000069 pxenv_start_undi
00002402 l     F .textdata	000000bf pxenv_get_cached_info
000024c1 l     F .textdata	00000042 pxenv_restart_tftp
00002503 l     F .textdata	00000004 pxe_tftp_xfer_window
00002507 l     F .textdata	0000009d pxenv_tftp_read
000025a4 l     F .textdata	000000ca pxe_tftp_open
0000266e l     F .textdata	00000011 pxe_tftp_close
0000267f l     F .textdata	0000008d pxe_tftp_xfer_deliver
0000270c l     F .textdata	00000018 pxenv_tftp_close
00002724 l     F .textdata	00000082 pxenv_tftp_get_fsize
000027a6 l     F .textdata	00000098 pxenv_tftp_open
0000283e g     F .textdata	00000093 .hidden pxenv_tftp_read_file
000028d1 l     F .textdata	0000005b pxenv_udp_read
0000292c l     F .textdata	00000085 pxe_udp_deliver
000029b1 l     F .textdata	000000d5 pxenv_udp_write
00002a86 l     F .textdata	00000018 pxenv_udp_close
00002a9e l     F .textdata	0000003e pxenv_udp_open
00002adc l     F .textdata	0000001c pxenv_undi_startup
00002af8 l     F .textdata	0000001c pxenv_undi_initialize
00002b14 l     F .textdata	0000001c pxenv_undi_set_mcast_address
00002b30 l     F .textdata	0000001c pxenv_undi_set_packet_filter
00002b4c l     F .textdata	00000038 pxenv_undi_get_statistics
00002b84 l     F .textdata	00000040 pxenv_undi_clear_statistics
00002bc4 l     F .textdata	0000001b pxenv_undi_initiate_diags
00002bdf l     F .textdata	0000001b pxenv_undi_force_interrupt
00002bfa l     F .textdata	0000004c pxenv_undi_get_mcast_address
00002c46 l     F .textdata	00000095 pxenv_undi_get_nic_type
00002cdb l     F .textdata	00000086 pxenv_undi_get_information
00002d61 l     F .textdata	00000042 pxenv_undi_set_station_address
00002da3 l     F .textdata	000001bc pxenv_undi_isr
00002f5f l     F .textdata	00000063 pxenv_undi_get_iface_info
00002fc2 l     F .textdata	000001e4 pxenv_undi_transmit
000031a6 l     F .textdata	00000025 pxe_netdev_close
000031cb l     F .textdata	00000026 pxenv_undi_close
000031f1 l     F .textdata	00000026 pxenv_undi_shutdown
00003217 l     F .textdata	00000026 pxenv_undi_cleanup
0000323d l     F .textdata	00000028 pxe_netdev_open
00003265 l     F .textdata	00000035 pxenv_undi_open
0000329a l     F .textdata	0000003a pxenv_undi_reset_adapter
000032d4 g     F .textdata	00000032 .hidden pxe_set_netdev
00003306 g     F .textdata	0000001d .hidden __memcpy
00003323 g     F .textdata	00000011 .hidden __memcpy_reverse
00003334 g     F .textdata	0000000e .hidden __memmove
00003342 g     F .textdata	00000011 .hidden memswap
00003353 g     F .textdata	00000011 .hidden strlen
00003364 g     F .textdata	0000001c .hidden strncmp
00003380 l     F .textdata	0000006d cpuid_exec
000033ed g     F .textdata	000000be .hidden ansiesc_process
000034ab g     F .textdata	0000002a .hidden cpio_set_field
000034d5 l     F .textdata	00000052 probe_devices
00003527 g     F .textdata	00000031 .hidden identify_device
00003558 l     F .textdata	00000040 remove_devices
00003598 l     F .textdata	00000009 process_on_success
000035a1 l     F .textdata	00000009 process_on_failure
000035aa l     F .textdata	00000006 process_always
000035b0 l     F .textdata	0000004f exit_exec
000035ff l     F .textdata	00000049 split_command
00003648 l     F .textdata	0000002f isset_exec
00003677 l     F .textdata	00000079 sleep_exec
000036f0 l     F .textdata	0000003c iseq_exec
0000372c g     F .textdata	0000008f .hidden execv
000037bb g     F .textdata	00000006 .hidden shell_stop
000037c1 g     F .textdata	0000001c .hidden shell_stopped
000037dd g     F .textdata	00000192 .hidden system
0000396f g     F .textdata	00000066 .hidden concat_args
000039d5 l     F .textdata	00000061 echo_exec
00003a36 l     F .textdata	00000024 get_argv_argument
00003a5a g     F .textdata	00000223 .hidden getopt_long
00003c7d l     F .textdata	00000035 free_image
00003cb2 g     F .textdata	00000028 .hidden image_set_name
00003cda g     F .textdata	00000050 .hidden alloc_image
00003d2a g     F .textdata	00000035 .hidden image_set_cmdline
00003d5f g     F .textdata	00000022 .hidden unregister_image
00003d81 g     F .textdata	0000002f .hidden find_image
00003db0 g     F .textdata	00000034 .hidden image_probe
00003de4 g     F .textdata	00000039 .hidden image_replace
00003e1d g     F .textdata	0000002c .hidden image_select
00003e49 g     F .textdata	000000a1 .hidden image_exec
00003eea g     F .textdata	0000001d .hidden image_find_selected
00003f07 g     F .textdata	0000006a .hidden register_image
00003f71 g     F .textdata	00000017 .hidden initialise
00003f88 g     F .textdata	00000030 .hidden startup
00003fb8 g     F .textdata	00000037 .hidden shutdown
00003fef g     F .textdata	0000001d .hidden intf_plug
0000400c g     F .textdata	00000016 .hidden intf_plug_plug
00004022 g     F .textdata	0000000a .hidden intf_unplug
0000402c g     F .textdata	00000008 .hidden intf_nullify
00004034 g     F .textdata	00000008 .hidden intf_put
0000403c g     F .textdata	00000006 .hidden intf_object
00004042 g     F .textdata	00000035 .hidden intf_get_dest_op_no_passthru_untyped
00004077 g     F .textdata	00000034 .hidden intf_get_dest_op_untyped
000040ab g     F .textdata	00000032 .hidden intf_close
000040dd g     F .textdata	00000017 .hidden intf_shutdown
000040f4 g     F .textdata	00000012 .hidden intf_restart
00004106 g     F .textdata	00000079 .hidden alloc_iob_raw
0000417f g     F .textdata	00000013 .hidden alloc_iob
00004192 g     F .textdata	0000002d .hidden free_iob
000041bf g     F .textdata	00000012 .hidden iob_ensure_headroom
000041d1 g     F .textdata	0000000d .hidden extern_list_add
000041de g     F .textdata	0000000e .hidden extern_list_add_tail
000041ec g     F .textdata	00000031 .hidden main
0000421d l     F .textdata	0000001d discard_cache
0000423a l     F .textdata	0000000a shutdown_cache
00004244 g     F .textdata	0000008b .hidden alloc_memblock
000042cf g     F .textdata	00000098 .hidden free_memblock
00004367 g     F .textdata	0000005b .hidden realloc
000043c2 g     F .textdata	00000009 .hidden malloc
000043cb g     F .textdata	00000007 .hidden free
000043d2 g     F .textdata	0000001c .hidden zalloc
000043ee g     F .textdata	00000008 .hidden mpopulate
000043f6 l     F .textdata	0000000f init_heap
00004405 g     F .textdata	0000006e .hidden largest_memblock
00004473 g     F .textdata	0000001b .hidden strtoul_charval
0000448e g     F .textdata	0000007a .hidden strtoul
00004508 g     F .textdata	00000063 .hidden inet_aton
0000456b l     F .textdata	0000000b nvo_fetch
00004576 g     F .textdata	00000019 .hidden nvo_applies
0000458f l     F .textdata	00000047 nvo_realloc
000045d6 l     F .textdata	00000033 nvo_realloc_dhcpopt
00004609 l     F .textdata	0000005a nvo_store
00004663 g     F .textdata	00000052 .hidden nvo_init
000046b5 g     F .textdata	00000082 .hidden register_nvo
00004737 g     F .textdata	00000012 .hidden unregister_nvo
00004749 g     F .textdata	0000002a .hidden xfer_uri_opener
00004773 g     F .textdata	00000045 .hidden xfer_open_uri
000047b8 g     F .textdata	0000002f .hidden xfer_open_uri_string
000047e7 g     F .textdata	00000037 .hidden xfer_open_socket
0000481e g     F .textdata	00000038 .hidden xfer_vopen
00004856 g     F .textdata	00000020 .hidden xfer_vreopen
00004876 g     F .textdata	00000005 .hidden parse_string
0000487b g     F .textdata	00000032 .hidden parse_integer
000048ad g     F .textdata	0000002a .hidden parse_netdev
000048d7 g     F .textdata	0000003b .hidden parse_menu
00004912 g     F .textdata	00000009 .hidden parse_flag
0000491b g     F .textdata	00000019 .hidden parse_key
00004934 g     F .textdata	0000002a .hidden parse_settings
0000495e g     F .textdata	0000002d .hidden parse_setting
0000498b g     F .textdata	0000000a .hidden parse_existing_setting
00004995 g     F .textdata	0000000a .hidden parse_autovivified_setting
0000499f g     F .textdata	00000015 .hidden print_usage
000049b4 g     F .textdata	0000019f .hidden reparse_options
00004b53 g     F .textdata	0000002b .hidden parse_options
00004b7e l     F .textdata	00000020 posix_fd_to_file
00004b9e l     F .textdata	00000014 posix_file_finished
00004bb2 l     F .textdata	0000003d posix_file_xfer_deliver
00004bef l     F .textdata	00000030 posix_file_free
00004c1f g     F .textdata	000000b9 .hidden open
00004cd8 g     F .textdata	00000066 .hidden select
00004d3e g     F .textdata	0000008a .hidden read_user
00004dc8 g     F .textdata	00000013 .hidden fsize
00004ddb g     F .textdata	00000030 .hidden close
00004e0b g     F .textdata	0000001e .hidden process_add
00004e29 l     F .textdata	0000001c init_processes
00004e45 g     F .textdata	0000001c .hidden process_del
00004e61 g     F .textdata	0000005d .hidden step
00004ebe g     F .textdata	00000007 .hidden ref_increment
00004ec5 g     F .textdata	0000001c .hidden ref_decrement
00004ee1 g     F .textdata	00000001 .hidden ref_no_free
00004ee2 l     F .textdata	0000001d apply_settings
00004eff l     F .textdata	0000000d builtin_applies
00004f0c l     F .textdata	00000012 platform_fetch
00004f1e l     F .textdata	00000012 buildarch_fetch
00004f30 l     F .textdata	00000017 version_fetch
00004f47 l     F .textdata	0000002e format_string_setting
00004f75 l     F .textdata	00000031 parse_string_setting
00004fa6 l     F .textdata	00000028 errno_fetch
00004fce l     F .textdata	0000003f denumerate_int_setting
0000500d l     F .textdata	0000002e format_uint_setting
0000503b l     F .textdata	0000002e format_int_setting
00005069 l     F .textdata	00000068 format_hex_setting
000050d1 l     F .textdata	0000000a format_hex_raw_setting
000050db l     F .textdata	0000000a format_hex_hyphen_setting
000050e5 l     F .textdata	0000000a format_hex_colon_setting
000050ef l     F .textdata	00000009 parse_hex_raw_setting
000050f8 l     F .textdata	0000000c parse_hex_hyphen_setting
00005104 l     F .textdata	0000000c parse_hex_setting
00005110 l     F .textdata	00000039 parse_ipv4_setting
00005149 l     F .textdata	00000039 format_uristring_setting
00005182 l     F .textdata	00000048 parse_uristring_setting
000051ca g     F .textdata	00000028 .hidden generic_settings_clear
000051f2 l     F .textdata	00000013 autovivified_settings_free
00005205 l     F .textdata	00000066 parse_settings_name
0000526b l     F .textdata	00000068 numeric_setting_value
000052d3 l     F .textdata	00000021 numerate_int_setting
000052f4 l     F .textdata	0000003f format_busdevfn_setting
00005333 l     F .textdata	0000002d format_uuid_setting
00005360 l     F .textdata	00000034 parse_int_setting
00005394 l     F .textdata	0000002d format_ipv4_setting
000053c1 g     F .textdata	0000000a .hidden find_settings
000053cb g     F .textdata	00000054 .hidden unregister_settings
0000541f g     F .textdata	00000015 .hidden settings_target
00005434 g     F .textdata	0000005b .hidden settings_name
0000548f g     F .textdata	00000045 .hidden find_child_settings
000054d4 g     F .textdata	00000025 .hidden setting_applies
000054f9 l     F .textdata	000000b9 fetch_setting_and_origin
000055b2 g     F .textdata	0000000f .hidden fetch_setting
000055c1 g     F .textdata	00000013 .hidden fetch_setting_origin
000055d4 g     F .textdata	0000000a .hidden fetch_setting_len
000055de g     F .textdata	00000040 .hidden fetch_setting_copy
0000561e g     F .textdata	00000030 .hidden fetch_string_setting
0000564e g     F .textdata	00000051 .hidden fetch_string_setting_copy
0000569f g     F .textdata	0000001f .hidden fetch_ipv4_array_setting
000056be g     F .textdata	00000008 .hidden fetch_ipv4_setting
000056c6 g     F .textdata	0000002e .hidden fetch_numeric_setting
000056f4 g     F .textdata	00000011 .hidden fetch_intz_setting
00005705 l     F .textdata	0000006f reprioritise_settings
00005774 g     F .textdata	00000051 .hidden register_settings
000057c5 l     F .textdata	00000011 builtin_init
000057d6 g     F .textdata	0000009b .hidden autovivify_child_settings
00005871 g     F .textdata	00000011 .hidden fetch_uintz_setting
00005882 g     F .textdata	00000016 .hidden fetch_uuid_setting
00005898 g     F .textdata	00000012 .hidden clear_settings
000058aa g     F .textdata	00000039 .hidden setting_cmp
000058e3 l     F .textdata	0000003c builtin_fetch
0000591f g     F .textdata	00000080 .hidden store_setting
0000599f g     F .textdata	00000062 .hidden generic_settings_fetch
00005a01 g     F .textdata	000000db .hidden generic_settings_store
00005adc g     F .textdata	0000001d .hidden setting_format
00005af9 g     F .textdata	00000019 .hidden setting_parse
00005b12 g     F .textdata	00000019 .hidden setting_numerate
00005b2b g     F .textdata	00000019 .hidden setting_denumerate
00005b44 g     F .textdata	0000003d .hidden fetchf_setting
00005b81 g     F .textdata	00000051 .hidden fetchf_setting_copy
00005bd2 g     F .textdata	0000007a .hidden storef_setting
00005c4c g     F .textdata	00000037 .hidden fetchn_setting
00005c83 g     F .textdata	0000005e .hidden storen_setting
00005ce1 g     F .textdata	00000153 .hidden parse_setting_name
00005e34 g     F .textdata	00000043 .hidden setting_name
00005e77 g     F .textdata	000000ca .hidden expand_settings
00005f41 g     F .textdata	00000010 .hidden strcpy
00005f51 g     F .textdata	00000018 .hidden strncpy
00005f69 g     F .textdata	00000024 .hidden strcmp
00005f8d g     F .textdata	0000002a .hidden strcasecmp
00005fb7 g     F .textdata	00000011 .hidden strchr
00005fc8 g     F .textdata	0000001f .hidden strrchr
00005fe7 g     F .textdata	00000014 .hidden strnlen
00005ffb g     F .textdata	00000021 .hidden memcmp
0000601c g     F .textdata	0000003e .hidden strstr
0000605a g     F .textdata	00000015 .hidden memchr
0000606f g     F .textdata	00000035 .hidden strndup
000060a4 g     F .textdata	00000008 .hidden strdup
000060ac g     F .textdata	00000016 .hidden mdelay
000060c2 g     F .textdata	00000018 .hidden sleep
000060da l     F .textdata	00000017 free_uri
000060f1 g     F .textdata	00000017 .hidden uri_port
00006108 g     F .textdata	000000c2 .hidden resolve_path
000061ca g     F .textdata	000000c4 .hidden uri_encode
0000628e g     F .textdata	00000111 .hidden unparse_uri
0000639f g     F .textdata	00000071 .hidden uri_decode
00006410 g     F .textdata	0000019c .hidden parse_uri
000065ac g     F .textdata	00000045 .hidden uri_dup
000065f1 g     F .textdata	0000008c .hidden resolve_uri
0000667d g     F .textdata	00000063 .hidden uuid_ntoa
000066e0 l     F .textdata	0000006e format_hex
0000674e l     F .textdata	0000000f printf_sputc
0000675d l     F .textdata	00000007 printf_putchar
00006764 g     F .textdata	00000267 .hidden vcprintf
000069cb g     F .textdata	0000003e .hidden vsnprintf
00006a09 g     F .textdata	00000017 .hidden snprintf
00006a20 g     F .textdata	00000012 .hidden vssnprintf
00006a32 g     F .textdata	00000017 .hidden ssnprintf
00006a49 g     F .textdata	00000019 .hidden vprintf
00006a62 g     F .textdata	0000000e .hidden printf
00006a70 g     F .textdata	00000047 .hidden xfer_deliver
00006ab7 g     F .textdata	00000029 .hidden xfer_window_changed
00006ae0 g     F .textdata	00000032 .hidden xfer_window
00006b12 g     F .textdata	0000003c .hidden xfer_alloc_iob
00006b4e g     F .textdata	00000088 .hidden xfer_vredirect
00006bd6 g     F .textdata	00000012 .hidden xfer_redirect
00006be8 g     F .textdata	0000000a .hidden xfer_deliver_iob
00006bf2 g     F .textdata	00000046 .hidden xfer_deliver_raw_meta
00006c38 g     F .textdata	0000000b .hidden xfer_deliver_raw
00006c43 g     F .textdata	0000002e .hidden xfer_vprintf
00006c71 g     F .textdata	00000012 .hidden xfer_printf
00006c83 g     F .textdata	00000042 .hidden xfer_seek
00006cc5 l     F .textdata	00000006 arp_ntoa
00006ccb l     F .textdata	0000010a arp_rx
00006dd5 l     F .textdata	000000da arp_tx_request
00006eaf l     F .textdata	0000008b find_dhcp_option_with_encap
00006f3a l     F .textdata	000001d4 set_dhcp_option
0000710e g     F .textdata	0000000f .hidden dhcpopt_no_realloc
0000711d g     F .textdata	0000000d .hidden dhcpopt_applies
0000712a g     F .textdata	00000017 .hidden dhcpopt_store
00007141 g     F .textdata	00000036 .hidden dhcpopt_fetch
00007177 g     F .textdata	00000050 .hidden dhcpopt_update_used_len
000071c7 g     F .textdata	00000014 .hidden dhcpopt_init
000071db g     F .textdata	00000038 .hidden eth_push
00007213 g     F .textdata	0000000c .hidden eth_init_addr
0000721f g     F .textdata	0000000e .hidden eth_eth_addr
0000722d g     F .textdata	00000021 .hidden eth_eui64
0000724e g     F .textdata	00000037 .hidden eth_ntoa
00007285 g     F .textdata	0000005e .hidden eth_pull
000072e3 g     F .textdata	00000044 .hidden eth_mc_hash
00007327 g     F .textdata	0000001f .hidden alloc_etherdev
00007346 l     F .textdata	00000111 eth_slow_rx
00007457 l     F .textdata	000000c6 copy_encap_settings
0000751d g     F .textdata	00000021 .hidden create_fakedhcpdiscover
0000753e g     F .textdata	00000049 .hidden create_fakedhcpack
00007587 g     F .textdata	00000092 .hidden create_fakepxebsack
00007619 g     F .textdata	00000042 .hidden iob_pad
0000765b l     F .textdata	00000024 ipv4_is_fragment
0000767f l     F .textdata	0000000b ipv4_more_fragments
0000768a l     F .textdata	00000012 ipv4_fragment_offset
0000769c l     F .textdata	0000015c ipv4_create_routes
000077f8 l     F .textdata	00000053 ipv4_pshdr_chksum
0000784b l     F .textdata	000001c1 ipv4_tx
00007a0c l     F .textdata	00000029 ipv4_arp_check
00007a35 l     F .textdata	00000021 ipv4_sock_aton
00007a56 g     F .textdata	00000020 .hidden ipv4_has_any_addr
00007a76 l     F .textdata	00000155 ipv4_rx
00007bcb g     F .textdata	00000031 .hidden inet_ntoa
00007bfc l     F .textdata	00000008 ipv4_sock_ntoa
00007c04 l     F .textdata	00000007 ipv4_ntoa
00007c0b l     F .textdata	00000003 neighbour_probe
00007c0e l     F .textdata	00000048 neighbour_destroy
00007c56 l     F .textdata	0000002b neighbour_discard
00007c81 l     F .textdata	00000065 neighbour_find
00007ce6 l     F .textdata	00000071 neighbour_create
00007d57 l     F .textdata	0000003c neighbour_expired
00007d93 l     F .textdata	00000013 neighbour_free
00007da6 l     F .textdata	00000070 neighbour_discovered
00007e16 l     F .textdata	00000032 neighbour_flush
00007e48 g     F .textdata	0000008c .hidden neighbour_tx
00007ed4 g     F .textdata	0000001f .hidden neighbour_update
00007ef3 l     F .textdata	0000001e netdev_notify
00007f11 l     F .textdata	00000040 net_discard
00007f51 l     F .textdata	00000040 netdev_record_stat
00007f91 g     F .textdata	00000008 .hidden netdev_link_err
00007f99 g     F .textdata	0000001c .hidden netdev_link_down
00007fb5 g     F .textdata	00000015 .hidden netdev_tx_err
00007fca g     F .textdata	00000026 .hidden netdev_tx_defer
00007ff0 g     F .textdata	00000039 .hidden netdev_tx_complete_err
00008029 g     F .textdata	0000003f .hidden netdev_tx
00008068 g     F .textdata	0000001b .hidden netdev_tx_complete_next_err
00008083 l     F .textdata	0000001d netdev_tx_flush
000080a0 g     F .textdata	0000001b .hidden netdev_rx
000080bb g     F .textdata	0000001c .hidden netdev_rx_err
000080d7 g     F .textdata	0000000d .hidden netdev_poll
000080e4 g     F .textdata	0000001f .hidden netdev_rx_dequeue
00008103 l     F .textdata	00000020 netdev_rx_flush
00008123 l     F .textdata	00000022 free_netdev
00008145 g     F .textdata	00000098 .hidden alloc_netdev
000081dd g     F .textdata	000000ee .hidden register_netdev
000082cb g     F .textdata	00000034 .hidden netdev_open
000082ff g     F .textdata	0000003b .hidden netdev_close
0000833a g     F .textdata	00000048 .hidden unregister_netdev
00008382 g     F .textdata	0000002a .hidden netdev_irq
000083ac g     F .textdata	00000028 .hidden find_netdev_by_location
000083d4 g     F .textdata	00000014 .hidden last_opened_netdev
000083e8 g     F .textdata	00000042 .hidden find_netdev
0000842a g     F .textdata	00000044 .hidden net_tx
0000846e g     F .textdata	00000038 .hidden net_rx
000084a6 g     F .textdata	00000097 .hidden net_poll
0000853d l     F .textdata	00000005 net_step
00008542  w    F .textdata	00000003 .hidden vlan_tag
00008545 l     F .textdata	00000011 netdev_redirect_settings_init
00008556 l     F .textdata	00000016 netdev_redirect
0000856c l     F .textdata	00000005 netdev_clear
00008571 l     F .textdata	0000006c netdev_fetch
000085dd l     F .textdata	0000001c netdev_fetch_chip
000085f9 l     F .textdata	00000023 netdev_fetch_bustype
0000861c l     F .textdata	0000002e netdev_store_mac
0000864a l     F .textdata	00000023 netdev_fetch_mac
0000866d l     F .textdata	00000043 netdev_fetch_busid
000086b0 l     F .textdata	0000002a netdev_fetch_busloc
000086da l     F .textdata	0000007b netdev_store
00008755 l     F .textdata	00000006 null_open
0000875b l     F .textdata	00000001 null_close
0000875c l     F .textdata	00000006 null_transmit
00008762 l     F .textdata	00000001 null_poll
00008763 l     F .textdata	00000001 null_irq
00008764 l     F .textdata	00000006 rarp_ntoa
0000876a l     F .textdata	0000000a rarp_rx
00008774 g     F .textdata	00000051 .hidden start_timer
000087c5 g     F .textdata	00000011 .hidden start_timer_fixed
000087d6 g     F .textdata	00000050 .hidden stop_timer
00008826 g     F .textdata	0000006f .hidden retry_poll
00008895 l     F .textdata	00000005 retry_step
0000889a g     F .textdata	0000003d .hidden tcpip_rx
000088d7 g     F .textdata	00000040 .hidden tcpip_tx
00008917 g     F .textdata	0000000e .hidden tcpip_chksum
00008925 g     F .textdata	0000006e .hidden tcpip_bind
00008993 l     F .textdata	0000013e udp_rx
00008ad1 l     F .textdata	0000001e udp_close
00008aef l     F .textdata	00000015 udp_xfer_alloc_iob
00008b04 l     F .textdata	0000009f udp_xfer_deliver
00008ba3 l     F .textdata	000000a4 udp_open_common
00008c47 g     F .textdata	00000008 .hidden udp_open
00008c4f l     F .textdata	00000050 udp_open_uri
00008c9f l     F .textdata	0000002a udp_port_available
00008cc9 g     F .textdata	0000000c .hidden udp_open_promisc
00008cd5 l     F .textdata	0000000d http_open
00008ce2 l     F .textdata	00000004 http_socket_window
00008ce6 l     F .textdata	0000000b http_xfer_window
00008cf1 l     F .textdata	00000003 http_acpi_describe
00008cf4 l     F .textdata	0000001b http_rx_connection
00008d0f l     F .textdata	0000001e http_rx_transfer_encoding
00008d2d l     F .textdata	00000039 http_free
00008d66 l     F .textdata	0000003a http_digest_param
00008da0 l     F .textdata	0000009b http_rx_content_length
00008e3b l     F .textdata	00000010 http_rx_location
00008e4b l     F .textdata	0000005c http_rx_response
00008ea7 l     F .textdata	00000255 http_digest_auth
000090fc l     F .textdata	00000062 http_socket_open
0000915e l     F .textdata	00000039 http_close
00009197 l     F .textdata	00000023 http_rx_basic_auth
000091ba l     F .textdata	00000006 http_partial_read.part.7
000091c0 l     F .textdata	0000004f http_block_read_capacity
0000920f l     F .textdata	00000060 http_block_read
0000926f l     F .textdata	0000006e http_rx_chunk_len
000092dd l     F .textdata	00000050 http_rx_www_authenticate
0000932d l     F .textdata	0000008d http_rx_digest_auth
000093ba l     F .textdata	000000aa http_basic_auth.isra.13
00009464 l     F .textdata	0000008b http_post_params.isra.14
000094ef l     F .textdata	00000095 http_done
00009584 l     F .textdata	0000000e http_socket_close
00009592 l     F .textdata	000000f4 http_rx_header
00009686 l     F .textdata	0000013a http_socket_deliver
000097c0 l     F .textdata	000002a1 http_step
00009a61 g     F .textdata	000000d3 .hidden http_open_filter
00009b34 l     F .textdata	00000003 iscsi_tx_nothing
00009b37 l     F .textdata	00000005 iscsi_rx_discard
00009b3c l     F .textdata	0000001c iscsi_scsi_window
00009b58 l     F .textdata	00000019 iscsi_rx_bhs
00009b71 l     F .textdata	00000030 iscsi_vredirect
00009ba1 l     F .textdata	0000000a iscsi_tx_resume
00009bab l     F .textdata	000000cb iscsi_start_data_out
00009c76 l     F .textdata	00000051 iscsi_rx_buffered_data
00009cc7 l     F .textdata	0000001e iscsi_handle_authmethod_value
00009ce5 l     F .textdata	00000038 iscsi_large_binary_decode
00009d1d l     F .textdata	000000d7 iscsi_handle_chap_r_value
00009df4 l     F .textdata	00000076 iscsi_handle_chap_c_value
00009e6a l     F .textdata	0000007a iscsi_handle_chap_i_value
00009ee4 l     F .textdata	0000006b iscsi_free
00009f4f l     F .textdata	00000150 iscsi_build_login_request_strings
0000a09f l     F .textdata	00000092 iscsi_start_login
0000a131 l     F .textdata	00000117 iscsi_scsi_command
0000a248 l     F .textdata	000000ed iscsi_tx_data
0000a335 l     F .textdata	00000013 iscsi_tx_bhs
0000a348 l     F .textdata	000000b3 iscsi_parse_root_path
0000a3fb l     F .textdata	0000003a iscsi_close
0000a435 l     F .textdata	0000010b iscsi_socket_deliver
0000a540 l     F .textdata	0000002e iscsi_command_close
0000a56e l     F .textdata	000000ee iscsi_tx_step
0000a65c l     F .textdata	0000001c iscsi_handle_chap_n_value
0000a678 l     F .textdata	0000001a iscsi_handle_chap_a_value
0000a692 l     F .textdata	0000004f iscsi_handle_targetaddress_value
0000a6e1 l     F .textdata	0000007e iscsi_open_connection
0000a75f l     F .textdata	0000023f iscsi_open
0000a99e l     F .textdata	00000045 iscsi_scsi_done.constprop.11
0000a9e3 l     F .textdata	000003d2 iscsi_rx_data
0000adb5 l     F .textdata	00000010 dhcp_discovery_tx
0000adc5 l     F .textdata	000000ca dhcp_deliver
0000ae8f l     F .textdata	00000042 dhcp_pxebs_tx
0000aed1 l     F .textdata	0000002a dhcp_proxy_tx
0000aefb l     F .textdata	00000046 dhcp_set_state
0000af41 l     F .textdata	00000024 dhcp_finished
0000af65 l     F .textdata	0000009e dhcp_pxebs_rx
0000b003 l     F .textdata	0000001a dhcp_timer_expired
0000b01d l     F .textdata	0000004e dhcp_proxy_rx
0000b06b l     F .textdata	0000001b dhcp_free
0000b086 l     F .textdata	0000012d dhcp_discovery_rx
0000b1b3 l     F .textdata	00000044 dhcp_request_tx
0000b1f7 l     F .textdata	000000c9 dhcp_request_rx
0000b2c0 g     F .textdata	000000db .hidden dhcp_create_packet
0000b39b g     F .textdata	0000015a .hidden dhcp_create_request
0000b4f5 l     F .textdata	000000f3 dhcp_tx
0000b5e8 l     F .textdata	00000044 dhcp_pxebs_expired
0000b62c l     F .textdata	00000030 dhcp_discovery_expired
0000b65c l     F .textdata	00000005 dhcp_request_expired
0000b661 l     F .textdata	00000025 dhcp_proxy_expired
0000b686 g     F .textdata	000000c8 .hidden start_dhcp
0000b74e g     F .textdata	0000021c .hidden start_pxebs
0000b96a l     F .textdata	0000001a dns_skip_name
0000b984 l     F .textdata	00000045 apply_dns_settings
0000b9c9 l     F .textdata	00000024 dns_done
0000b9ed l     F .textdata	0000000e dns_xfer_close
0000b9fb l     F .textdata	00000033 dns_send_packet
0000ba2e l     F .textdata	0000014e dns_resolv
0000bb7c l     F .textdata	00000211 dns_xfer_deliver
0000bd8d l     F .textdata	00000016 dns_timer_expired
0000bda3 l     F .textdata	00000004 tftp_xfer_window
0000bda7 l     F .textdata	00000057 tftp_reopen
0000bdfe l     F .textdata	00000023 tftp_reopen_mc
0000be21 l     F .textdata	000000ec tftp_process_multicast
0000bf0d l     F .textdata	00000162 tftp_send_packet
0000c06f l     F .textdata	0000002e tftp_done
0000c09d l     F .textdata	00000101 tftp_core_open
0000c19e l     F .textdata	00000012 mtftp_open
0000c1b0 l     F .textdata	0000000f tftm_open
0000c1bf l     F .textdata	0000000f tftpsize_open
0000c1ce l     F .textdata	0000000f tftp_open
0000c1dd l     F .textdata	00000084 tftp_timer_expired
0000c261 l     F .textdata	0000001b tftp_free
0000c27c l     F .textdata	00000071 tftp_apply_settings
0000c2ed l     F .textdata	00000027 tftp_process_tsize
0000c314 l     F .textdata	00000027 tftp_process_blksize
0000c33b l     F .textdata	00000032 tftp_presize.part.7
0000c36d l     F .textdata	00000072 tftp_send_error.constprop.9
0000c3df l     F .textdata	00000293 tftp_rx
0000c672 l     F .textdata	00000009 tftp_socket_deliver
0000c67b g     F .textdata	00000141 .hidden elf_load
0000c7bc l     F .textdata	00000019 embedded_init
0000c7d5 l     F .textdata	00000009 terminate_on_label_found
0000c7de l     F .textdata	00000054 prompt_exec
0000c832 l     F .textdata	0000015d process_script
0000c98f l     F .textdata	0000003c script_exec
0000c9cb l     F .textdata	00000021 terminate_on_exit_or_failure
0000c9ec l     F .textdata	0000000c script_exec_line
0000c9f8 l     F .textdata	00000063 script_probe
0000ca5b l     F .textdata	00000085 goto_exec
0000cae0 l     F .textdata	0000002c goto_find_label
0000cb0c g     F .textdata	00000081 .hidden prep_segment
0000cb8d l     F .textdata	0000004a pci_bar
0000cbd7 g     F .textdata	00000054 .hidden adjust_pci_device
0000cc2b g     F .textdata	00000140 .hidden pci_read_config
0000cd6b g     F .textdata	00000055 .hidden pci_find_next
0000cdc0 g     F .textdata	0000005d .hidden pci_find_driver
0000ce1d g     F .textdata	00000007 .hidden pci_probe
0000ce24 g     F .textdata	00000007 .hidden pci_remove
0000ce2b l     F .textdata	0000003f pcibus_remove
0000ce6a l     F .textdata	00000086 pcibus_probe
0000cef0 l     F .textdata	0000000d pci_settings_applies
0000cefd l     F .textdata	00000011 pci_settings_init
0000cf0e l     F .textdata	0000007e pci_settings_fetch
0000cf8c g     F .textdata	0000001f .hidden mii_restart
0000cfab g     F .textdata	0000004a .hidden mii_reset
0000cff5 l     F .textdata	00000066 ibft_set_ipaddr_setting
0000d05b l     F .textdata	00000049 ibft_set_string
0000d0a4 g     F .textdata	000002cb .hidden ibft_describe
0000d36f l     F .textdata	00000032 scsicmd_read_capacity_cmd
0000d3a1 l     F .textdata	00000005 scsicmd_test_unit_ready_cmd
0000d3a6 l     F .textdata	0000001a scsicmd_close
0000d3c0 l     F .textdata	00000069 scsidev_close
0000d429 l     F .textdata	00000054 scsicmd_write_cmd
0000d47d l     F .textdata	00000054 scsicmd_read_cmd
0000d4d1 l     F .textdata	0000001e scsicmd_free
0000d4ef g     F .textdata	0000002f .hidden scsi_response
0000d51e g     F .textdata	00000040 .hidden scsi_command
0000d55e l     F .textdata	0000004b scsicmd_command
0000d5a9 l     F .textdata	00000091 scsicmd_read_capacity_done
0000d63a l     F .textdata	000000bb scsidev_command
0000d6f5 l     F .textdata	00000015 scsidev_read_capacity
0000d70a l     F .textdata	0000000c scsidev_write
0000d716 l     F .textdata	0000000c scsidev_read
0000d722 l     F .textdata	0000003a scsicmd_done
0000d75c l     F .textdata	00000011 scsidev_window
0000d76d l     F .textdata	0000002b scsidev_ready
0000d798 l     F .textdata	00000042 scsidev_step
0000d7da l     F .textdata	00000020 scsicmd_response
0000d7fa g     F .textdata	0000005f .hidden scsi_parse_lun
0000d859 g     F .textdata	000000a3 .hidden scsi_open
0000d8fc g     F .textdata	0000000f .hidden write_bit
0000d90b g     F .textdata	0000000d .hidden read_bit
0000d918 l     F .textdata	0000000d smbios_applies
0000d925 l     F .textdata	00000011 smbios_init
0000d936 l     F .textdata	00000102 smbios_fetch
0000da38 g     F .textdata	00000037 .hidden chap_init
0000da6f g     F .textdata	0000000f .hidden chap_update
0000da7e g     F .textdata	00000010 .hidden chap_respond
0000da8e g     F .textdata	00000016 .hidden chap_finish
0000daa4 l     F .textdata	00000010 md5_f_0_15
0000dab4 l     F .textdata	00000010 md5_f_16_31
0000dac4 l     F .textdata	0000000c md5_f_32_47
0000dad0 l     F .textdata	0000000e md5_f_48_63
0000dade l     F .textdata	00000023 md5_init
0000db01 l     F .textdata	000000c6 md5_update
0000dbc7 l     F .textdata	0000005a md5_final
0000dc21 g     F .textdata	0000006c .hidden strerror
0000dc8d l     F .textdata	00000012 autoboot_exec
0000dc9f l     F .textdata	00000069 config_exec
0000dd08 l     F .textdata	00000012 dhcp_exec
0000dd1a l     F .textdata	00000032 dhcp_payload
0000dd4c l     F .textdata	00000080 pxebs_exec
0000ddcc l     F .textdata	00000008 ifstat_payload
0000ddd4 l     F .textdata	00000008 ifclose_payload
0000dddc l     F .textdata	00000005 ifopen_payload
0000dde1 g     F .textdata	00000090 .hidden ifcommon_exec
0000de71 l     F .textdata	00000012 ifstat_exec
0000de83 l     F .textdata	00000012 ifclose_exec
0000de95 l     F .textdata	00000012 ifopen_exec
0000dea7 l     F .textdata	00000007 image_clear_cmdline
0000deae l     F .textdata	0000013f imgsingle_exec
0000dfed l     F .textdata	0000000a imgargs_exec
0000dff7 l     F .textdata	0000000a imgexec_exec
0000e001 l     F .textdata	0000000a imgselect_exec
0000e00b l     F .textdata	0000000a imgfetch_exec
0000e015 l     F .textdata	00000005 imgselect
0000e01a l     F .textdata	00000094 imgmulti_exec
0000e0ae l     F .textdata	0000000a imgfree_exec
0000e0b8 l     F .textdata	0000000a imgstat_exec
0000e0c2 l     F .textdata	00000028 imgexec
0000e0ea l     F .textdata	00000039 login_exec
0000e123 l     F .textdata	000000bd choose_exec
0000e1e0 l     F .textdata	000000b4 item_exec
0000e294 l     F .textdata	00000067 menu_exec
0000e2fb l     F .textdata	00000009 clear_value
0000e304 l     F .textdata	000000c7 inc_exec
0000e3cb l     F .textdata	0000002d read_value
0000e3f8 l     F .textdata	00000096 set_core_exec
0000e48e l     F .textdata	00000010 read_exec
0000e49e l     F .textdata	00000010 clear_exec
0000e4ae l     F .textdata	00000010 set_exec
0000e4be l     F .textdata	0000001b set_value
0000e4d9 l     F .textdata	000000aa show_exec
0000e583 l     F .textdata	00000023 reboot_exec
0000e5a6 l     F .textdata	00000025 route_exec
0000e5cb l     F .textdata	0000009a sanboot_core_exec
0000e665 l     F .textdata	0000000f sanunhook_exec
0000e674 l     F .textdata	0000000f sanboot_exec
0000e683 l     F .textdata	0000000f sanhook_exec
0000e692 l     F .textdata	00000045 sync_exec
0000e6d7 g     F .textdata	0000022c .hidden login_ui
0000e903 l     F .textdata	00000163 draw_menu_item
0000ea66 l     F .textdata	000000d1 draw_menu_items
0000eb37 g     F .textdata	000003a6 .hidden show_menu
0000eedd l     F .textdata	00000018 clearmsg
0000eef5 l     F .textdata	00000061 vmsg
0000ef56 l     F .textdata	00000012 msg
0000ef68 l     F .textdata	0000002d string_copy
0000ef95 l     F .textdata	000000e7 draw_setting_row
0000f07c l     F .textdata	00000126 select_setting_row
0000f1a2 l     F .textdata	000000c0 reveal_setting_row.part.1
0000f262 l     F .textdata	0000008f init_widget
0000f2f1 l     F .textdata	0000000e colour_set.constprop.2
0000f2ff l     F .textdata	00000045 alert
0000f344 l     F .textdata	0000031c main_loop
0000f660 g     F .textdata	0000008f .hidden settings_ui
0000f6ef l     F .textdata	00000005 ansiscr_peek
0000f6f4 l     F .textdata	00000005 ansiscr_getc
0000f6f9 l     F .textdata	00000030 ansiscr_movetoyx
0000f729 l     F .textdata	0000002a ansiscr_exit
0000f753 l     F .textdata	00000036 ansiscr_init
0000f789 l     F .textdata	00000077 ansiscr_putc
0000f800 g     F .textdata	00000034 .hidden wclrtobot
0000f834 g     F .textdata	00000031 .hidden wclrtoeol
0000f865 g     F .textdata	00000017 .hidden werase
0000f87c g     F .textdata	00000028 .hidden init_pair
0000f8a4 g     F .textdata	00000028 .hidden pair_content
0000f8cc l     F .textdata	00000016 _wupdcurs
0000f8e2 g     F .textdata	0000004e .hidden _wputch
0000f930 g     F .textdata	0000000b .hidden _wputc
0000f93b g     F .textdata	0000002f .hidden _wputstr
0000f96a g     F .textdata	0000001f .hidden wmove
0000f989 l     F .textdata	0000000d _printw_handler
0000f996 g     F .textdata	0000000b .hidden waddnstr
0000f9a1 g     F .textdata	0000001b .hidden vw_printw
0000f9bc g     F .textdata	00000012 .hidden wprintw
0000f9ce g     F .textdata	00000008 .hidden wattroff
0000f9d6 g     F .textdata	00000006 .hidden wattron
0000f9dc g     F .textdata	00000011 .hidden wattrset
0000f9ed g     F .textdata	0000001f .hidden wcolour_set
0000fa0c g     F .textdata	00000037 .hidden initscr
0000fa43 g     F .textdata	00000051 .hidden endwin
0000fa94 g     F .textdata	00000055 .hidden init_editbox
0000fae9 g     F .textdata	000000ef .hidden draw_editbox
0000fbd8 l     F .textdata	00000028 shell_banner
0000fc00 l     F .textdata	0000006f parse_next_server_and_filename
0000fc6f g     F .textdata	00000153 .hidden uriboot
0000fdc2 g     F .textdata	000000b1 .hidden fetch_next_server_and_filename
0000fe73 l     F .textdata	00000201 netboot.part.2
00010074 g     F .textdata	00000038 .hidden netboot
000100ac g     F .textdata	0000003d .hidden autoboot
000100e9 g     F .textdata	00000093 .hidden ipxe
0001017c g     F .textdata	00000054 .hidden dhcp
000101d0 g     F .textdata	00000039 .hidden pxebs
00010209 l     F .textdata	00000036 ifstat_errors
0001023f g     F .textdata	0000002b .hidden ifopen
0001026a g     F .textdata	00000005 .hidden ifclose
0001026f g     F .textdata	000000c3 .hidden ifstat
00010332 g     F .textdata	00000082 .hidden iflinkwait
000103b4 g     F .textdata	000000cf .hidden imgdownload
00010483 g     F .textdata	0000002f .hidden imgdownload_string
000104b2 g     F .textdata	00000023 .hidden imgacquire
000104d5 g     F .textdata	0000007f .hidden imgstat
00010554 g     F .textdata	0000005d .hidden prompt
000105b1 l     F .textdata	0000015c pxe_menu_parse
0001070d l     F .textdata	000000ba pxe_menu_draw_item
000107c7 l     F .textdata	00000117 pxe_menu_select
000108de g     F .textdata	00000161 .hidden pxe_menu_boot
00010a3f g     F .textdata	00000031 .hidden route
00010a70 g     F .textdata	000000d0 .hidden relocate
00010b40 g     F .textdata	00000070 .hidden extmemsize
00010bb0 g     F .textdata	000001d6 .hidden get_memmap
00010bb0 g     F .textdata	000001d6 .hidden x86_get_memmap
00010d86 g     F .textdata	00000048 .hidden hook_bios_interrupt
00010dce g     F .textdata	00000051 .hidden unhook_bios_interrupt
00010e1f l     F .textdata	0000000e bios_cpu_nap
00010e1f g     F .textdata	0000000e .hidden cpu_nap
00010e2d l     F .textdata	00000027 bios_reboot
00010e2d g     F .textdata	00000027 .hidden reboot
00010e54 l     F .textdata	00000047 bios_currticks
00010e54 g     F .textdata	00000047 .hidden currticks
00010e9b l     F .textdata	00000011 int13_command_capacity
00010eac l     F .textdata	000000f1 int13_sync_num_drives
00010f9d l     F .textdata	00000003 int13_block_window
00010fa0 l     F .textdata	00000020 int13_find
00010fc0 l     F .textdata	00000014 int13_block_close
00010fd4 l     F .textdata	00000023 int13_reopen_block
00010ff7 l     F .textdata	00000013 int13_free
0001100a l     F .textdata	0000001b int13_command_close
00011025 l     F .textdata	0000000d int13_command_expired
00011032 l     F .textdata	00000014 int13_command_wait.isra.6.constprop.10
00011046 l     F .textdata	00000065 int13_command_start.constprop.11
000110ab l     F .textdata	000000d7 int13_rw
00011182 l     F .textdata	000000b6 int13_rw_sectors
00011238 l     F .textdata	00000103 int13_extended_rw
0001133b l     F .textdata	00000042 int13_read_capacity
0001137d l     F .textdata	000004d4 int13
00011851 l     F .textdata	000002f9 int13_hook
00011851 g     F .textdata	000002f9 .hidden san_hook
00011b4a l     F .textdata	00000058 int13_unhook
00011b4a g     F .textdata	00000058 .hidden san_unhook
00011ba2 l     F .textdata	0000015c int13_boot
00011ba2 g     F .textdata	0000015c .hidden san_boot
00011cfe l     F .textdata	0000009e int13_describe
00011cfe g     F .textdata	0000009e .hidden san_describe
00011d9c l     F .textdata	0000012b memtop_urealloc
00011d9c g     F .textdata	0000012b .hidden urealloc
00011ec7 l     F .textdata	0000001d pcibios_num_bus
00011ec7 g     F .textdata	0000001d .hidden pci_num_bus
00011ee4 g     F .textdata	0000002d .hidden pcibios_read
00011f11 g     F .textdata	00000024 .hidden pcibios_write
00011f35 g     F .textdata	00000018 .hidden cpuid_is_supported
00011f4d g     F .textdata	0000005b .hidden x86_features
00011fa8 g     F .textdata	000000ca .hidden x86_tcpip_continue_chksum
0001200e l       .textdata	00000000 x86_tcpip_loop_start
0001203e l       .textdata	00000000 .hidden x86_tcpip_loop_end
00012072 g     F .textdata	00000040 .hidden acpi_describe
000120b2 g     F .textdata	00000017 .hidden acpi_fix_checksum
000120c9 g     F .textdata	0000003c .hidden vasprintf
00012105 g     F .textdata	00000012 .hidden asprintf
00012117 g     F .textdata	00000040 .hidden base16_encode
00012157 g     F .textdata	00000070 .hidden hex_decode
000121c7 g     F .textdata	0000000c .hidden base16_decode
000121d3 g     F .textdata	0000007e .hidden base64_encode
00012251 g     F .textdata	000000c6 .hidden base64_decode
00012317 g     F .textdata	00000018 .hidden basename
0001232f g     F .textdata	0000002a .hidden dirname
00012359 g     F .textdata	0000005a .hidden bitmap_resize
000123b3 g     F .textdata	00000024 .hidden bitmap_test
000123d7 g     F .textdata	00000032 .hidden bitmap_set
00012409 g     F .textdata	0000000e .hidden __flsl
00012417 g     F .textdata	0000002f .hidden block_capacity
00012446 g     F .textdata	0000003a .hidden block_read_capacity
00012480 g     F .textdata	00000050 .hidden block_write
000124d0 g     F .textdata	00000050 .hidden block_read
00012520 l     F .textdata	0000002b has_input
0001254b g     F .textdata	00000043 .hidden putchar
0001258e g     F .textdata	0000002b .hidden getchar
000125b9 g     F .textdata	0000000e .hidden iskey
000125c7 g     F .textdata	0000001f .hidden isspace
000125e6 g     F .textdata	00000027 .hidden churi
0001260d l     F .textdata	0000000f downloader_progress
0001261c l     F .textdata	0000001a downloader_finished
00012636 l     F .textdata	0000007e downloader_xfer_deliver
000126b4 l     F .textdata	00000013 downloader_free
000126c7 g     F .textdata	00000089 .hidden create_downloader
00012750 g     F .textdata	00000040 .hidden edd_describe
00012790 l     F .textdata	0000003c getchar_timeout
000127cc g     F .textdata	0000004a .hidden getkey
00012816 g     F .textdata	0000003a .hidden job_progress
00012850 g     F .textdata	0000000d .hidden buffered_line
0001285d g     F .textdata	00000020 .hidden empty_line_buffer
0001287d g     F .textdata	000000aa .hidden line_buffer
00012927 g     F .textdata	0000009a .hidden add_menu_item
000129c1 g     F .textdata	0000003a .hidden destroy_menu
000129fb g     F .textdata	0000002f .hidden find_menu
00012a2a g     F .textdata	00000097 .hidden create_menu
00012ac1 l     F .textdata	0000000b monojob_close
00012acc g     F .textdata	00000123 .hidden monojob_wait
00012bef g     F .textdata	0000002f .hidden find_parameters
00012c1e g     F .textdata	0000003a .hidden destroy_parameters
00012c58 g     F .textdata	00000010 .hidden claim_parameters
00012c68 g     F .textdata	00000009 .hidden pending_get
00012c71 g     F .textdata	00000010 .hidden pending_put
00012c81 g     F .textdata	00000034 .hidden pending_wait
00012cb5 g     F .textdata	00000006 .hidden srandom
00012cbb g     F .textdata	00000054 .hidden random
00012d0f l     F .textdata	00000003 named_window
00012d12 l     F .textdata	0000001a named_close
00012d2c l     F .textdata	00000083 numeric_resolv
00012daf l     F .textdata	00000045 named_resolv_done
00012df4 l     F .textdata	0000004a resmux_child_close
00012e3e g     F .textdata	0000002f .hidden resolv_done
00012e6d l     F .textdata	00000020 numeric_step
00012e8d l     F .textdata	00000008 resmux_child_resolv_done
00012e95 g     F .textdata	000000ab .hidden resolv
00012f40 g     F .textdata	00000096 .hidden xfer_open_named_socket
00012fd6 l     F .textdata	00000007 aoecmd_ata_cmd_len
00012fdd l     F .textdata	00000006 aoecmd_cfg_cmd_len
00012fe3 l     F .textdata	00000013 aoecmd_cfg_cmd
00012ff6 l     F .textdata	00000020 aoecmd_find_tag
00013016 l     F .textdata	00000009 aoedev_window
0001301f l     F .textdata	00000007 aoedev_identify_device
00013026 l     F .textdata	00000044 aoecmd_close
0001306a l     F .textdata	00000092 aoecmd_create
000130fc l     F .textdata	0000005a aoedev_close
00013156 l     F .textdata	00000013 aoecmd_free
00013169 l     F .textdata	00000013 aoedev_free
0001317c l     F .textdata	000000aa aoecmd_tx
00013226 l     F .textdata	00000016 aoecmd_expired
0001323c l     F .textdata	00000074 aoecmd_ata_cmd
000132b0 l     F .textdata	0000003e aoecmd_ata_rsp
000132ee l     F .textdata	0000002b aoecmd_cfg_rsp
00013319 l     F .textdata	00000055 aoedev_ata_command
0001336e l     F .textdata	000000dc aoe_rx
0001344a l     F .textdata	0000003c aoedev_describe
00013486 l     F .textdata	0000002e aoedev_config_done
000134b4 l     F .textdata	00000145 aoe_open
000135f9 l     F .textdata	0000000b used_len_ipv4
00013604 l     F .textdata	00000019 dhcppkt_settings_applies
0001361d l     F .textdata	00000005 used_len_string
00013622 g     F .textdata	0000008e .hidden dhcppkt_store
000136b0 l     F .textdata	0000000b dhcppkt_settings_store
000136bb g     F .textdata	00000083 .hidden dhcppkt_fetch
0001373e l     F .textdata	0000000b dhcppkt_settings_fetch
00013749 g     F .textdata	00000044 .hidden dhcppkt_init
0001378d l     F .textdata	0000001f fragment_expired
000137ac g     F .textdata	00000160 .hidden fragment_reassemble
0001390c l     F .textdata	00000061 icmpv4_rx
0001396d g     F .textdata	00000036 .hidden sock_aton
000139a3 l     F .textdata	00000020 tcp_demux
000139c3 l     F .textdata	00000023 tcp_rx_seq
000139e6 l     F .textdata	0000004c tcp_discard
00013a32 l     F .textdata	0000009e tcp_process_tx_queue
00013ad0 l     F .textdata	000000b7 tcp_rx_ack
00013b87 l     F .textdata	000000fb tcp_close
00013c82 l     F .textdata	0000001a tcp_wait_expired
00013c9c l     F .textdata	00000030 tcp_shutdown
00013ccc l     F .textdata	000000e9 tcp_open
00013db5 l     F .textdata	0000002e tcp_xfer_window
00013de3 l     F .textdata	00000015 tcp_port_available
00013df8 l     F .textdata	00000050 tcp_open_uri
00013e48 l     F .textdata	000001e6 tcp_xmit.part.9
0001402e l     F .textdata	0000001b tcp_xfer_close
00014049 l     F .textdata	0000002d tcp_expired
00014076 l     F .textdata	0000002c tcp_xfer_deliver
000140a2 l     F .textdata	00000456 tcp_rx
000144f8 l     F .textdata	00000007 atacmd_done
000144ff l     F .textdata	0000000f atacmd_data_buffer
0001450e l     F .textdata	00000003 atacmd_data_none
00014511 l     F .textdata	00000018 atacmd_data_priv
00014529 l     F .textdata	00000017 atadev_edd_describe
00014540 l     F .textdata	0000001a atacmd_close
0001455a l     F .textdata	0000005a atadev_close
000145b4 l     F .textdata	0000006e atacmd_identify_done
00014622 l     F .textdata	0000001e atacmd_free
00014640 g     F .textdata	00000040 .hidden ata_command
00014680 l     F .textdata	0000014a atadev_command
000147ca l     F .textdata	00000018 atadev_read_capacity
000147e2 l     F .textdata	0000000c atadev_write
000147ee l     F .textdata	0000000c atadev_read
000147fa g     F .textdata	00000073 .hidden ata_open
0001486d g     F .textdata	000000c8 .hidden find_smbios_structure
00014935 g     F .textdata	00000021 .hidden read_smbios_structure
00014956 g     F .textdata	0000006d .hidden read_smbios_string
000149c3 g     F .textdata	0000001f .hidden smbios_version
000149e2 l     F .textdata	000000a5 insert_delete
00014a87 g     F .textdata	00000011 .hidden replace_string
00014a98 g     F .textdata	00000117 .hidden edit_string
00014baf l     F .textdata	0000007c sync_console
00014c2b g     F .textdata	00000017 .hidden history_free
00014c42 g     F .textdata	000001d5 .hidden readline_history
00014e17 l     F .textdata	00000066 help_exec
00014e7d g     F .textdata	0000005e .hidden shell
00014edb l     F .textdata	0000001b shell_exec
00014ef6 l     F .textdata	00000087 route_ipv4_print
00014f7d l     F .textdata	00000039 unhide_etherboot
00014fb6 g     F .textdata	00000028 .hidden hide_basemem
00014fde g     F .textdata	0000003a .hidden hide_umalloc
00015018 g     F .textdata	00000047 .hidden hide_textdata
0001505f l     F .textdata	00000090 hide_etherboot
000150ef g     F .textdata	00000073 .hidden call_bootsector
00015162 l     F .textdata	000000bc bios_find_smbios
00015162 g     F .textdata	000000bc .hidden find_smbios
0001521e l     F .textdata	00000043 icmp_tx_echo
00015261 g     F .textdata	00000028 .hidden icmp_rx_echo_request
00015289  w    F .textdata	00000008 .hidden ping_rx
00015291 g     F .textdata	0000001b .hidden icmp_rx_echo_reply
000152b8 l       .textdata	00000000 .hidden embedded_image_1_data
00015374 l       .textdata	00000000 embedded_image_1_end
00015374 l     O .textdata	00000004 realtek_eeprom_bits
00015490 l     O .textdata	00000058 ansi_sequences
000154e8 l     O .textdata	0000000a bios_attr_fcols.1507
000154f4 l     O .textdata	0000000a bios_attr_bcols.1508
0001552c l     O .textdata	00000007 e_ident.2356
00015918 l     O .textdata	00000018 setting_type_int_name
00015930 l     O .textdata	00000005 buildarch.3681
00015938 l     O .textdata	00000007 platform.3688
00015954 l     O .textdata	00000009 separators.1371
000159b6 l     O .textdata	00000001 empty_encap.2347
000159e4 l     O .textdata	00000006 eth_slow_address
00015ac4 l     O .textdata	0000001c bustypes.2268
00015af4 l     O .textdata	00000020 empty_sockaddr.2236
00015d00 l     O .textdata	00000001 colon.2656
00015fd4 l     O .textdata	00000009 dhcp_op
0001606c l     O .textdata	00000005 e_ident.1648
000160ec l     O .textdata	00000007 ipxe_magic.2065
000160f4 l     O .textdata	00000007 gpxe_magic.2066
000161bc l     O .textdata	00000040 r
000161fc l     O .textdata	00000100 k
00017090 l     O .textdata	00000006 primary_check.2931
00017098 l     O .textdata	00000027 boot_check.2933
000170c0 l     O .textdata	00000028 int13_fdd_geometries
000170e8 l     O .textdata	00000040 base64
000171bc l     O .textdata	00000007 shell_prompt
000171e4 g       .textdata	00000000 .hidden rm_sp
000171e6 g       .textdata	00000000 .hidden rm_ss
000171e8 l       .textdata	00000000 pm_esp
000171ec g       .textdata	00000000 .hidden virt_offset
000171f0 g       .textdata	00000000 .hidden text16
000171f4 g       .textdata	00000000 .hidden data16
000171f8 l     O .textdata	00000014 realtek_operations
0001720c l     O .textdata	00000008 realtek_mii_operations
00017214 l     O .textdata	00000010 realtek_basher_ops
00017224 l     O .textdata	00000174 realtek_nics
00017398 l     O .textdata	00000004 ansi_input
0001739c l     O .textdata	0000001c bios_ansiesc_ctx
000173b8 l     O .textdata	00000004 bios_attr
000173bc l     O .textdata	00000020 bios_ansiesc_handlers
000173dc l     O .textdata	0000000c pxe_dhcp_packet_creators
000173e8 l     O .textdata	0000002c pxe_tftp
00017414 l     O .textdata	00000010 pxe_tftp_xfer_desc
00017424 l     O .textdata	00000018 pxe_tftp_xfer_ops
0001743c l     O .textdata	00000034 pxe_udp
00017470 l     O .textdata	00000010 pxe_udp_xfer_desc
00017480 l     O .textdata	00000008 pxe_udp_xfer_operations
00017488 l     O .textdata	0000000c cpuid_cmd
00017494 l     O .textdata	00000024 cpuid_opts
000174b8 l     O .textdata	00000008 devices
000174c0 l     O .textdata	0000000c echo_cmd
000174cc l     O .textdata	0000000c exit_cmd
000174d8 l     O .textdata	0000000c isset_cmd
000174e4 l     O .textdata	0000000c iseq_cmd
000174f0 l     O .textdata	0000000c sleep_cmd
000174fc l     O .textdata	0000000c echo_opts
00017508 g     O .textdata	00000008 .hidden images
00017510 g     O .textdata	0000000c .hidden null_intf
0001751c g     O .textdata	00000010 .hidden null_intf_desc
0001752c l     O .textdata	00000008 free_blocks
00017534 l     O .textdata	00000014 nvo_settings_operations
00017548 l     O .textdata	00000010 posix_file_xfer_desc
00017558 l     O .textdata	00000008 posix_files
00017560 l     O .textdata	00000010 posix_file_xfer_operations
00017570 l     O .textdata	00000008 run_queue
00017578 g     O .textdata	0000002c .hidden generic_settings_root
000175a4 g     O .textdata	00000014 .hidden generic_settings_operations
000175b8 l     O .textdata	00000024 builtin_settings
000175dc l     O .textdata	00000014 builtin_settings_operations
000175f0 g     O .textdata	00000004 .hidden product_version
000175f4 l     O .textdata	00000006 type_sizes
000175fc g     O .textdata	00000008 .hidden arp_discovery
00017604 g     O .textdata	00000006 .hidden eth_broadcast
0001760c g     O .textdata	00000008 .hidden ipv4_miniroutes
00017614 l     O .textdata	00000014 ipv4_reassembler
00017628 g     O .textdata	00000008 .hidden neighbours
00017630 g     O .textdata	00000008 .hidden net_devices
00017638 l     O .textdata	00000008 open_net_devices
00017640 l     O .textdata	0000000c net_process_desc
0001764c g     O .textdata	00000014 .hidden netdev_settings_operations
00017660 l     O .textdata	00000024 netdev_redirect_settings
00017684 l     O .textdata	0000003c netdev_setting_operations
000176c0 l     O .textdata	00000014 netdev_redirect_settings_operations
000176d4 g     O .textdata	00000014 .hidden null_netdev_operations
000176e8 l     O .textdata	00000008 timers
000176f0 l     O .textdata	0000000c retry_process_desc
000176fc g     O .textdata	00000004 .hidden udp_sock_dgram
00017700 l     O .textdata	00000010 udp_xfer_desc
00017710 l     O .textdata	00000008 udp_conns
00017718 l     O .textdata	00000018 udp_xfer_operations
00017730 l     O .textdata	00000010 http_xfer_desc
00017740 l     O .textdata	00000010 http_partial_desc
00017750 l     O .textdata	00000010 http_socket_desc
00017760 l     O .textdata	0000000c http_process_desc
0001776c l     O .textdata	00000014 http_line_handlers
00017780 l     O .textdata	00000030 http_header_handlers
000177b0 l     O .textdata	00000018 http_auth_header_handlers
000177c8 l     O .textdata	00000028 http_xfer_operations
000177f0 l     O .textdata	00000008 http_partial_operations
000177f8 l     O .textdata	00000020 http_socket_operations
00017818 l     O .textdata	00000010 iscsi_control_desc
00017828 l     O .textdata	00000010 iscsi_data_desc
00017838 l     O .textdata	00000010 iscsi_socket_desc
00017848 l     O .textdata	0000000c iscsi_process_desc
00017854 l     O .textdata	00000040 iscsi_string_types
00017894 l     O .textdata	00000020 iscsi_control_op
000178b4 l     O .textdata	00000008 iscsi_data_op
000178bc l     O .textdata	00000020 iscsi_socket_operations
000178dc l     O .textdata	00000050 dhcp_request_options_data
0001792c l     O .textdata	00000010 dhcp_job_desc
0001793c l     O .textdata	00000010 dhcp_xfer_desc
0001794c l     O .textdata	00000020 dhcp_peer
0001796c l     O .textdata	00000014 dhcp_state_discover
00017980 l     O .textdata	00000014 dhcp_state_request
00017994 l     O .textdata	00000014 dhcp_state_proxy
000179a8 l     O .textdata	00000024 peer.3045
000179cc l     O .textdata	00000014 dhcp_state_pxebs
000179e0 l     O .textdata	00000008 dhcp_job_op
000179e8 l     O .textdata	00000008 dhcp_xfer_operations
000179f0 l     O .textdata	00000020 nameserver
00017a10 l     O .textdata	00000010 dns_resolv_desc
00017a20 l     O .textdata	00000010 dns_socket_desc
00017a30 l     O .textdata	00000008 dns_resolv_op
00017a38 l     O .textdata	00000010 dns_socket_operations
00017a48 l     O .textdata	00000024 tftp_mtftp_socket
00017a6c l     O .textdata	00000010 tftp_xfer_desc
00017a7c l     O .textdata	00000010 tftp_socket_desc
00017a8c l     O .textdata	00000010 tftp_mc_socket_desc
00017a9c l     O .textdata	00000020 tftp_options
00017abc l     O .textdata	00000010 tftp_xfer_operations
00017acc l     O .textdata	00000008 tftp_socket_operations
00017ad4 l     O .textdata	00000008 tftp_mc_socket_operations
00017adc l     O .textdata	00000030 embedded_images
00017b0c l     O .textdata	0000000c goto_cmd
00017b18 l     O .textdata	0000000c prompt_cmd
00017b24 l     O .textdata	00000018 prompt_opts
00017b3c l     O .textdata	00000008 pci_root_driver
00017b44 l     O .textdata	00000024 pci_settings
00017b68 l     O .textdata	00000014 pci_settings_operations
00017b7c l     O .textdata	00000010 scsidev_block_desc
00017b8c l     O .textdata	00000010 scsidev_scsi_desc
00017b9c l     O .textdata	00000010 scsidev_ready_desc
00017bac l     O .textdata	0000000c scsidev_process_desc
00017bb8 l     O .textdata	00000010 scsicmd_read_capacity
00017bc8 l     O .textdata	00000010 scsicmd_block_desc
00017bd8 l     O .textdata	00000010 scsicmd_scsi_desc
00017be8 l     O .textdata	00000010 scsicmd_write
00017bf8 l     O .textdata	00000010 scsicmd_read
00017c08 l     O .textdata	00000010 scsicmd_test_unit_ready
00017c18 l     O .textdata	00000028 scsidev_block_op
00017c40 l     O .textdata	00000010 scsidev_scsi_op
00017c50 l     O .textdata	00000008 scsidev_ready_op
00017c58 l     O .textdata	00000008 scsicmd_block_op
00017c60 l     O .textdata	00000010 scsicmd_scsi_op
00017c70 l     O .textdata	00000024 smbios_settings
00017c94 l     O .textdata	00000014 smbios_settings_operations
00017ca8 g     O .textdata	0000001c .hidden md5_algorithm
00017cc4 l     O .textdata	00000020 md5_steps
00017ce4 l     O .textdata	00000008 oid_md5
00017cec l     O .textdata	0000000c autoboot_cmd
00017cf8 l     O .textdata	0000000c config_cmd
00017d04 l     O .textdata	0000000c pxebs_cmd
00017d10 l     O .textdata	0000000c dhcp_cmd
00017d1c l     O .textdata	0000000c ifstat_cmd
00017d28 l     O .textdata	0000000c ifclose_cmd
00017d34 l     O .textdata	0000000c ifopen_cmd
00017d40 g     O .textdata	00000014 .hidden imgargs_desc
00017d54 g     O .textdata	00000014 .hidden imgexec_desc
00017d68 g     O .textdata	00000014 .hidden imgselect_desc
00017d7c g     O .textdata	00000014 .hidden imgfetch_desc
00017d90 l     O .textdata	0000000c imgmulti_cmd
00017d9c l     O .textdata	0000000c imgsingle_cmd
00017da8 l     O .textdata	0000000c imgexec_cmd
00017db4 l     O .textdata	0000000c imgfetch_cmd
00017dc0 l     O .textdata	00000024 imgsingle_opts
00017de4 l     O .textdata	0000000c login_cmd
00017df0 l     O .textdata	0000000c choose_cmd
00017dfc l     O .textdata	0000000c item_cmd
00017e08 l     O .textdata	0000000c menu_cmd
00017e14 l     O .textdata	00000030 choose_opts
00017e44 l     O .textdata	00000030 item_opts
00017e74 l     O .textdata	00000018 menu_opts
00017e8c l     O .textdata	0000000c inc_cmd
00017e98 l     O .textdata	0000000c clear_read_cmd
00017ea4 l     O .textdata	0000000c set_cmd
00017eb0 l     O .textdata	0000000c show_cmd
00017ebc l     O .textdata	0000000c reboot_cmd
00017ec8 l     O .textdata	0000000c reboot_opts
00017ed4 l     O .textdata	0000000c route_cmd
00017ee0 l     O .textdata	0000000c sanunhook_cmd
00017eec l     O .textdata	0000000c sanboot_cmd
00017ef8 l     O .textdata	0000000c sanhook_cmd
00017f04 l     O .textdata	00000024 sanboot_opts
00017f28 l     O .textdata	0000000c sync_cmd
00017f34 l     O .textdata	0000000c sync_opts
00017f40 g     O .textdata	00000024 .hidden _ansi_screen
00017f64 g     O .textdata	00000002 .hidden _LINES
00017f66 g     O .textdata	00000002 .hidden _COLS
00017f68 l     O .textdata	00000020 cpairs
00017f88 g     O .textdata	00000024 .hidden _stdscr
00017fac l     O .textdata	00000008 int13s
00017fb4 l     O .textdata	00000010 int13_block_desc
00017fc4 l     O .textdata	0000003c int13_command
00018000 l     O .textdata	00000010 int13_block_op
00018010 l     O .textdata	00000010 int13_command_desc
00018020 l     O .textdata	00000010 int13_command_op
00018030 g     O .textdata	00000004 .hidden console_usage
00018034 l     O .textdata	00000010 downloader_job_desc
00018044 l     O .textdata	00000010 downloader_xfer_desc
00018054 l     O .textdata	00000010 downloader_job_op
00018064 l     O .textdata	00000010 downloader_xfer_operations
00018074 l     O .textdata	00000008 menus
0001807c g     O .textdata	0000000c .hidden monojob
00018088 l     O .textdata	00000010 monojob_intf_desc
00018098 l     O .textdata	00000008 monojob_intf_op
000180a0 l     O .textdata	00000008 parameters
000180a8 l     O .textdata	0000000c numeric_process_desc
000180b4 l     O .textdata	00000010 resmux_child_desc
000180c4 l     O .textdata	00000010 named_xfer_desc
000180d4 l     O .textdata	00000010 named_resolv_desc
000180e4 l     O .textdata	00000010 resmux_child_op
000180f4 l     O .textdata	00000010 named_xfer_ops
00018104 l     O .textdata	00000010 named_resolv_op
00018114 l     O .textdata	00000010 aoedev_ata_desc
00018124 l     O .textdata	00000010 aoedev_config_desc
00018134 l     O .textdata	0000000c aoecmd_cfg
00018140 l     O .textdata	0000000c aoecmd_ata
0001814c l     O .textdata	00000008 aoe_commands
00018154 l     O .textdata	00000010 aoecmd_ata_desc
00018164 l     O .textdata	00000028 aoedev_ata_op
0001818c l     O .textdata	00000008 aoedev_config_op
00018194 l     O .textdata	00000008 aoecmd_ata_op
0001819c l     O .textdata	00000030 dhcp_packet_fields
000181cc l     O .textdata	00000014 dhcppkt_settings_operations
000181e0 g     O .textdata	00000004 .hidden tcp_sock_stream
000181e4 l     O .textdata	00000008 tcp_conns
000181ec l     O .textdata	00000010 tcp_xfer_desc
000181fc l     O .textdata	00000018 tcp_xfer_operations
00018214 l     O .textdata	00000010 atadev_block_desc
00018224 l     O .textdata	00000010 atadev_ata_desc
00018234 l     O .textdata	00000008 ata_commands
0001823c l     O .textdata	00000018 atacmd_identify
00018254 l     O .textdata	00000010 atacmd_block_desc
00018264 l     O .textdata	00000010 atacmd_ata_desc
00018274 l     O .textdata	00000018 atacmd_write
0001828c l     O .textdata	00000018 atacmd_read
000182a4 l     O .textdata	00000028 atadev_block_op
000182cc l     O .textdata	00000008 atadev_ata_op
000182d4 l     O .textdata	00000008 atacmd_block_op
000182dc l     O .textdata	00000008 atacmd_ata_op
000182e4 l     O .textdata	0000000c shell_cmd
000182f0 l     O .textdata	00000000 __table_entries.1926
000182f0 g     O .textdata	00000008 .hidden ipv4_arp_protocol
000182f8 l     O .textdata	00000000 __table_entries.1928
000182f8 g     O .textdata	00000014 .hidden oid_md5_algorithm
0001830c l     O .textdata	00000000 __table_entries.3704
0001830c g     O .textdata	00000008 .hidden version_builtin_setting
00018314 g     O .textdata	00000008 .hidden platform_builtin_setting
0001831c g     O .textdata	00000008 .hidden buildarch_builtin_setting
00018324 g     O .textdata	00000008 .hidden errno_builtin_setting
0001832c l     O .textdata	00000000 __table_entries.1912
0001832c l     O .textdata	00000000 __table_entries.3706
0001832c g     O .textdata	00000004 .hidden net_discarder
00018330 g     O .textdata	00000004 .hidden tcp_discarder
00018334 g     O .textdata	00000004 .hidden neighbour_discarder
00018338 l     O .textdata	00000000 __table_entries.1727
00018338 l     O .textdata	00000000 __table_entries.1914
00018338 l     O .textdata	00000000 __table_entries.1612
00018338 g     O .textdata	00000008 .hidden cpuid_command
00018340 g     O .textdata	00000008 .hidden sleep_command
00018348 g     O .textdata	00000008 .hidden iseq_command
00018350 g     O .textdata	00000008 .hidden isset_command
00018358 g     O .textdata	00000008 .hidden exit_command
00018360 g     O .textdata	00000008 .hidden echo_command
00018368 g     O .textdata	00000008 .hidden prompt_command
00018370 g     O .textdata	00000008 .hidden goto_command
00018378 g     O .textdata	00000008 .hidden autoboot_commands
00018380 g     O .textdata	00000008 .hidden config_command
00018388 g     O .textdata	00000010 .hidden dhcp_commands
00018398 g     O .textdata	00000018 .hidden ifmgmt_commands
000183b0 g     O .textdata	00000060 .hidden image_commands
00018410 g     O .textdata	00000008 .hidden login_command
00018418 g     O .textdata	00000018 .hidden menu_commands
00018430 g     O .textdata	00000028 .hidden nvo_commands
00018458 g     O .textdata	00000008 .hidden reboot_command
00018460 g     O .textdata	00000008 .hidden route_commands
00018468 g     O .textdata	00000018 .hidden sanboot_commands
00018480 g     O .textdata	00000008 .hidden sync_command
00018488 g     O .textdata	00000008 .hidden shell_command
00018490 g     O .textdata	00000008 .hidden help_command
00018498 l     O .textdata	00000000 __table_entries.1729
00018498 l     O .textdata	00000000 __table_entries.1076
00018498 l     O .textdata	00000000 __table_entries.1065
00018498 l     O .textdata	00000000 __table_entries.1614
00018498 g     O .textdata	00000014 .hidden bios_console
000184ac l     O .textdata	00000000 __table_entries.3039
000184ac l     O .textdata	00000000 __table_entries.3035
000184ac l     O .textdata	00000000 __table_entries.1078
000184ac l     O .textdata	00000000 __table_entries.1067
000184ac g     O .textdata	00000003 .hidden __dhcp_feature_bzimage
000184af g     O .textdata	00000003 .hidden __dhcp_feature_elfboot
000184b2 g     O .textdata	00000003 .hidden __dhcp_feature_multiboot
000184b5 g     O .textdata	00000003 .hidden __dhcp_feature_pxe_image
000184b8 g     O .textdata	00000003 .hidden __dhcp_feature_pxe_file
000184bb g     O .textdata	00000005 .hidden __dhcp_feature_version
000184c0 g     O .textdata	00000003 .hidden __dhcp_feature_http
000184c3 g     O .textdata	00000003 .hidden __dhcp_feature_iscsi
000184c6 g     O .textdata	00000003 .hidden __dhcp_feature_dns
000184c9 g     O .textdata	00000003 .hidden __dhcp_feature_tftp
000184cc g     O .textdata	00000003 .hidden __dhcp_feature_menu_cmd
000184cf g     O .textdata	00000003 .hidden __dhcp_feature_aoe
000184d2 l     O .textdata	00000000 __table_entries.3037
000184d4 l     O .textdata	00000000 __table_entries.1054
000184d4 g     O .textdata	00000010 .hidden netdev_errors
000184e4 g     O .textdata	00000008 .hidden segment_errors
000184ec g     O .textdata	00000088 .hidden common_errors
00018574 l     O .textdata	00000000 __table_entries.1056
00018574 g     O .textdata	00000004 .hidden __feature_http
00018578 g     O .textdata	00000004 .hidden __feature_iscsi
0001857c g     O .textdata	00000004 .hidden __feature_dns
00018580 g     O .textdata	00000004 .hidden __feature_tftp
00018584 g     O .textdata	00000004 .hidden __feature_aoe
00018588 g     O .textdata	00000004 .hidden __feature_bzimage
0001858c g     O .textdata	00000004 .hidden __feature_elfboot
00018590 g     O .textdata	00000004 .hidden __feature_multiboot
00018594 g     O .textdata	00000004 .hidden __feature_pxe_image
00018598 g     O .textdata	00000004 .hidden __feature_pxe_file
0001859c g     O .textdata	00000004 .hidden __feature_menu_cmd
000185a0 l     O .textdata	00000000 __table_entries.1372
000185a0 g     O .textdata	0000000c .hidden icmpv4_echo_protocol
000185ac l     O .textdata	00000000 __table_entries.1799
000185ac l     O .textdata	00000000 __table_entries.1374
000185ac g     O .textdata	0000000c .hidden multiboot_image_type
000185b8 g     O .textdata	0000000c .hidden bzimage_image_type
000185c4 g     O .textdata	0000000c .hidden elfboot_image_type
000185d0 g     O .textdata	0000000c .hidden script_image_type
000185dc g     O .textdata	0000000c .hidden pxe_image_type
000185e8 l     O .textdata	00000000 __table_entries.1801
000185e8 l     O .textdata	00000000 __table_entries.1005
000185e8 g     O .textdata	00000004 .hidden heap_init_fn
000185ec g     O .textdata	00000004 .hidden pxe_init_fn
000185f0 g     O .textdata	00000004 .hidden process_init_fn
000185f4 g     O .textdata	00000004 .hidden builtin_init_fn
000185f8 g     O .textdata	00000004 .hidden pci_settings_init_fn
000185fc g     O .textdata	00000004 .hidden smbios_init_fn
00018600 g     O .textdata	00000004 .hidden netdev_redirect_settings_init_fn
00018604 g     O .textdata	00000004 .hidden embedded_init_fn
00018608 l     O .textdata	00000000 __table_entries.1535
00018608 l     O .textdata	00000000 __table_entries.1537
00018608 l     O .textdata	00000000 __table_entries.1007
00018608 g     O .textdata	00000000 .hidden us_mapping
00018608 g     O .textdata	0000002c .hidden ethernet_protocol
00018634 l     O .textdata	00000000 __table_entries.2018
00018634 l     O .textdata	00000000 __table_entries.2178
00018634 l     O .textdata	00000000 __table_entries.2190
00018634 l     O .textdata	00000000 __table_entries.2216
00018634 g     O .textdata	00000010 .hidden neighbour_net_driver
00018644 l     O .textdata	00000000 __table_entries.2020
00018644 l     O .textdata	00000000 __table_entries.2180
00018644 l     O .textdata	00000000 __table_entries.2214
00018644 l     O .textdata	00000000 __table_entries.2295
00018644 g     O .textdata	00000010 .hidden arp_protocol
00018654 g     O .textdata	00000010 .hidden eth_slow_protocol
00018664 g     O .textdata	00000010 .hidden ipv4_protocol
00018674 g     O .textdata	00000010 .hidden rarp_protocol
00018684 g     O .textdata	00000010 .hidden aoe_protocol
00018694 l     O .textdata	00000000 __table_entries.2297
00018694 l     O .textdata	00000000 __table_entries.2140
00018694 g     O .textdata	00000010 .hidden realtek_driver
000186a4 l     O .textdata	00000000 __table_entries.1064
000186a4 l     O .textdata	00000000 __table_entries.2142
000186a4 g     O .textdata	00000010 .hidden net_process
000186b4 g     O .textdata	00000010 .hidden retry_process
000186c4 l     O .textdata	00000000 __table_entries.2116
000186c4 l     O .textdata	00000000 __table_entries.2918
000186c4 l     O .textdata	00000000 __table_entries.1066
000186c4 g     O .textdata	00000008 .hidden pxenv_unknown_api
000186cc g     O .textdata	00000040 .hidden pxe_file_api
0001870c g     O .textdata	00000038 .hidden pxe_preboot_api
00018744 g     O .textdata	00000028 .hidden pxe_tftp_api
0001876c g     O .textdata	00000020 .hidden pxe_udp_api
0001878c g     O .textdata	000000a0 .hidden pxe_undi_api
0001882c l     O .textdata	00000000 __table_entries.2118
0001882c l     O .textdata	00000000 __table_entries.2920
0001882c l     O .textdata	00000000 __table_entries.1499
0001882c g     O .textdata	00000008 .hidden numeric_resolver
00018834 g     O .textdata	00000008 .hidden dns_resolver
0001883c l     O .textdata	00000000 __table_entries.1243
0001883c l     O .textdata	00000000 __table_entries.1478
0001883c g     O .textdata	00000048 .hidden pci_root_device
00018884 l     O .textdata	00000000 __table_entries.1245
00018884 l     O .textdata	00000000 __table_entries.1485
00018884 g     O .textdata	00000004 .hidden ipv4_routing_family
00018888 l     O .textdata	00000000 __table_entries.3415
00018888 l     O .textdata	00000000 __table_entries.1487
00018888 g     O .textdata	00000014 .hidden setting_type_busdevfn
0001889c g     O .textdata	00000014 .hidden setting_type_uuid
000188b0 g     O .textdata	00000014 .hidden setting_type_hexraw
000188c4 g     O .textdata	00000014 .hidden setting_type_hexhyp
000188d8 g     O .textdata	00000014 .hidden setting_type_hex
000188ec g     O .textdata	00000014 .hidden setting_type_uint32
00018900 g     O .textdata	00000014 .hidden setting_type_uint16
00018914 g     O .textdata	00000014 .hidden setting_type_uint8
00018928 g     O .textdata	00000014 .hidden setting_type_int32
0001893c g     O .textdata	00000014 .hidden setting_type_int16
00018950 g     O .textdata	00000014 .hidden setting_type_int8
00018964 g     O .textdata	00000014 .hidden setting_type_ipv4
00018978 g     O .textdata	00000014 .hidden setting_type_uristring
0001898c g     O .textdata	00000014 .hidden setting_type_string
000189a0 l     O .textdata	00000000 __table_entries.3398
000189a0 l     O .textdata	00000000 __table_entries.3435
000189a0 l     O .textdata	00000000 __table_entries.3417
000189a0 l     O .textdata	00000000 __table_entries.2256
000189a0 g     O .textdata	00000014 .hidden chip_setting
000189b4 g     O .textdata	00000014 .hidden busid_setting
000189c8 g     O .textdata	00000014 .hidden busloc_setting
000189dc g     O .textdata	00000014 .hidden bustype_setting
000189f0 g     O .textdata	00000014 .hidden mac_setting
00018a04 g     O .textdata	00000014 .hidden gateway_setting
00018a18 g     O .textdata	00000014 .hidden netmask_setting
00018a2c g     O .textdata	00000014 .hidden ip_setting
00018a40 g     O .textdata	00000014 .hidden domain_setting
00018a54 g     O .textdata	00000014 .hidden dns_setting
00018a68 g     O .textdata	00000014 .hidden filename_setting
00018a7c g     O .textdata	00000014 .hidden next_server_setting
00018a90 g     O .textdata	00000014 .hidden root_path_setting
00018aa4 g     O .textdata	00000014 .hidden initiator_iqn_setting
00018ab8 g     O .textdata	00000014 .hidden skip_san_boot_setting
00018acc g     O .textdata	00000014 .hidden keep_san_setting
00018ae0 g     O .textdata	00000014 .hidden hostname_setting
00018af4 g     O .textdata	00000014 .hidden uuid_setting
00018b08 g     O .textdata	00000014 .hidden user_class_setting
00018b1c g     O .textdata	00000050 .hidden smbios_predefined_settings
00018b6c g     O .textdata	00000014 .hidden password_setting
00018b80 g     O .textdata	00000014 .hidden username_setting
00018b94 g     O .textdata	00000014 .hidden reverse_password_setting
00018ba8 g     O .textdata	00000014 .hidden reverse_username_setting
00018bbc g     O .textdata	00000014 .hidden version_setting
00018bd0 g     O .textdata	00000014 .hidden platform_setting
00018be4 g     O .textdata	00000014 .hidden buildarch_setting
00018bf8 g     O .textdata	00000014 .hidden errno_setting
00018c0c g     O .textdata	00000014 .hidden priority_setting
00018c20 g     O .textdata	00000014 .hidden dhcp_server_setting
00018c34 g     O .textdata	00000014 .hidden scriptlet_setting
00018c48 l     O .textdata	00000000 __table_entries.3107
00018c48 l     O .textdata	00000000 __table_entries.3400
00018c48 l     O .textdata	00000000 __table_entries.3437
00018c48 l     O .textdata	00000000 __table_entries.2258
00018c48 g     O .textdata	00000004 .hidden ipv4_settings_applicator
00018c4c g     O .textdata	00000004 .hidden dns_applicator
00018c50 g     O .textdata	00000004 .hidden tftp_settings_applicator
00018c54 l     O .textdata	00000000 __table_entries.3109
00018c54 l     O .textdata	00000000 __table_entries.885
00018c54 l     O .textdata	00000000 __table_entries.897
00018c54 g     O .textdata	0000000c .hidden ipv4_sockaddr_converter
00018c60 l     O .textdata	00000000 __table_entries.1400
00018c60 l     O .textdata	00000000 __table_entries.887
00018c60 l     O .textdata	00000000 __table_entries.899
00018c60 g     O .textdata	0000000c .hidden udp_ipv6_socket_opener
00018c6c g     O .textdata	0000000c .hidden udp_ipv4_socket_opener
00018c78 g     O .textdata	0000000c .hidden tcp_ipv6_socket_opener
00018c84 g     O .textdata	0000000c .hidden tcp_ipv4_socket_opener
00018c90 l     O .textdata	00000000 __table_entries.1016
00018c90 l     O .textdata	00000000 __table_entries.1029
00018c90 l     O .textdata	00000000 __table_entries.1402
00018c90 g     O .textdata	00000008 .hidden heap_startup_fn
00018c98 g     O .textdata	00000008 .hidden tcp_startup_fn
00018ca0 g     O .textdata	00000008 .hidden hide_etherboot_startup_fn
00018ca8 g     O .textdata	00000008 .hidden startup_devices
00018cb0 g     O .textdata	00000008 .hidden startup_initrd
00018cb8 l     O .textdata	00000000 __table_entries.1018
00018cb8 l     O .textdata	00000000 __table_entries.1027
00018cb8 l     O .textdata	00000000 __table_entries.1402
00018cb8 g     O .textdata	0000000c .hidden ipv4_tcpip_protocol
00018cc4 l     O .textdata	00000000 __table_entries.1385
00018cc4 l     O .textdata	00000000 __table_entries.1404
00018cc4 g     O .textdata	0000000c .hidden udp_protocol
00018cd0 g     O .textdata	0000000c .hidden icmpv4_protocol
00018cdc g     O .textdata	0000000c .hidden tcp_protocol
00018ce8 l     O .textdata	00000000 __table_entries.1347
00018ce8 l     O .textdata	00000000 __table_entries.1387
00018ce8 g     O .textdata	00000008 .hidden udp_uri_opener
00018cf0 g     O .textdata	00000008 .hidden http_uri_opener
00018cf8 g     O .textdata	00000008 .hidden iscsi_uri_opener
00018d00 g     O .textdata	00000008 .hidden mtftp_uri_opener
00018d08 g     O .textdata	00000008 .hidden tftm_uri_opener
00018d10 g     O .textdata	00000008 .hidden tftpsize_uri_opener
00018d18 g     O .textdata	00000008 .hidden tftp_uri_opener
00018d20 g     O .textdata	00000008 .hidden aoe_uri_opener
00018d28 g     O .textdata	00000008 .hidden tcp_uri_opener
00018d30 l     O .textdata	00000000 __table_entries.1349
00018d30 g       .textdata	00000000 .hidden __licence__gpl2_or_later__pxe_entry
00018d30 g     O .textdata	00000000 .hidden obj_edd
00018d30 g     O .textdata	00000000 .hidden __licence__gpl2_or_later__acpi
00018d30 g     O .textdata	00000000 .hidden __licence__gpl2_or_later__netdevice
00018d30 g     O .textdata	00000000 .hidden __licence__gpl2_only__bios_nap
00018d30 g     O .textdata	00000000 .hidden obj_timer
00018d30 g     O .textdata	00000000 .hidden obj_udp
00018d30 g     O .textdata	00000000 .hidden __licence__gpl2_or_later__pxe_file
00018d30 g     O .textdata	00000000 .hidden __licence__gpl2_only__pxe_image
00018d30 g     O .textdata	00000000 .hidden __licence__gpl2_or_later__readline
00018d30 g     O .textdata	00000000 .hidden __licence__gpl2_or_later__main
00018d30 g     O .textdata	00000000 .hidden __licence__gpl2_or_later__route_cmd
00018d30 g     O .textdata	00000000 .hidden __licence__gpl2_only__smbios
00018d30 g     O .textdata	00000000 .hidden __licence__gpl2_or_later__dhcppkt
00018d30 g     O .textdata	00000000 .hidden __licence__gpl2_or_later__bootsector
00018d30 g     O .textdata	00000000 .hidden __licence__gpl2_or_later__ibft
00018d30 g       .textdata	00000000 .hidden __licence__gpl2_or_later__liba20
00018d30 g     O .textdata	00000000 .hidden obj_basename
00018d30 g     O .textdata	00000000 .hidden obj_readline
00018d30 g     O .textdata	00000000 .hidden __licence__gpl2_only__base64
00018d30 g     O .textdata	00000000 .hidden obj_chap
00018d30 g     O .textdata	00000000 .hidden __licence__gpl2_or_later__elfboot
00018d30 g     O .textdata	00000000 .hidden __licence__gpl2_only__uri
00018d30 g     O .textdata	00000000 .hidden __licence__gpl2_or_later__iobuf
00018d30 g     O .textdata	00000000 .hidden __licence__gpl2_or_later__console
00018d30 g       .textdata	00000000 .hidden obj_virtaddr
00018d30 g     O .textdata	00000000 .hidden __licence__gpl2_only__vsprintf
00018d30 g     O .textdata	00000000 .hidden __licence__gpl2_or_later__menu_ui
00018d30 g     O .textdata	00000000 .hidden __licence__gpl2_only__monojob
00018d30 g     O .textdata	00000000 .hidden __licence__gpl2_or_later__cpio
00018d30 g     O .textdata	00000000 .hidden __licence__gpl2_or_later__ipv4
00018d30 g     O .textdata	00000000 .hidden __licence__gpl2_or_later__pxe_tftp
00018d30 g     O .textdata	00000000 .hidden __licence__gpl2_only__reboot_cmd
00018d30 g     O .textdata	00000000 .hidden __licence__gpl2_or_later__vsprintf
00018d30 g     O .textdata	00000000 .hidden __licence__gpl2_only__dhcpmgmt
00018d30 g       .textdata	00000000 .hidden __licence__gpl2_or_later__libprefix
00018d30 g     O .textdata	00000000 .hidden __licence__gpl2_only__parseopt
00018d30 g     O .textdata	00000000 .hidden __licence__gpl2_or_later__ifmgmt
00018d30 g     O .textdata	00000000 .hidden obj_elf
00018d30 g     O .textdata	00000000 .hidden __licence__gpl2_only__iscsi
00018d30 g     O .textdata	00000000 .hidden obj_bitmap
00018d30 g     O .textdata	00000000 .hidden obj_md5
00018d30 g     O .textdata	00000000 .hidden __licence__gpl2_or_later__config_ethernet
00018d30 g     O .textdata	00000000 .hidden obj_refcnt
00018d30 g     O .textdata	00000000 .hidden obj_ansiesc
00018d30 g     O .textdata	00000000 .hidden __licence__gpl2_only__readline
00018d30 g     O .textdata	00000000 .hidden __licence__gpl2_or_later__dns
00018d30 g     O .textdata	00000000 .hidden __licence__gpl2_only__settings
00018d30 g     O .textdata	00000000 .hidden __licence__bsd2__ibft
00018d30 g     O .textdata	00000000 .hidden __licence__gpl2_only__sanboot_cmd
00018d30 g     O .textdata	00000000 .hidden obj_pxe_udp
00018d30 g     O .textdata	00000000 .hidden __licence__gpl2_or_later__editbox
00018d30 g     O .textdata	00000000 .hidden obj_bios_timer
00018d30 g     O .textdata	00000000 .hidden __licence__gpl2_or_later__aoe
00018d30 g     O .textdata	00000000 .hidden __licence__gpl2_or_later__autoboot_cmd
00018d30 g     O .textdata	00000000 .hidden __licence__gpl2_or_later__login_ui
00018d30 g     O .textdata	00000000 .hidden obj_editbox
00018d30 g     O .textdata	00000000 .hidden __licence__gpl2_or_later__prompt
00018d30 g     O .textdata	00000000 .hidden obj_dns
00018d30 g     O .textdata	00000000 .hidden obj_editstring
00018d30 g     O .textdata	00000000 .hidden obj_menu_cmd
00018d30 g     O .textdata	00000000 .hidden __licence__gpl2_or_later__nullnet
00018d30 g     O .textdata	00000000 .hidden __licence__gpl2_or_later__relocate
00018d30 g     O .textdata	00000000 .hidden obj_nvo_cmd
00018d30 g     O .textdata	00000000 .hidden obj_aoe
00018d30 g     O .textdata	00000000 .hidden __licence__gpl2_only__bootsector
00018d30 g     O .textdata	00000000 .hidden __licence__gpl2_only__route_ipv4
00018d30 g     O .textdata	00000000 .hidden __licence__gpl2_or_later__sanboot_cmd
00018d30 g     O .textdata	00000000 .hidden __licence__gpl2_only__nullnet
00018d30 g     O .textdata	00000000 .hidden __licence__gpl2_only__rarp
00018d30 g     O .textdata	00000000 .hidden obj_print
00018d30 g       .textdata	00000000 .hidden __licence__gpl2_or_later__setjmp
00018d30 g     O .textdata	00000000 .hidden __licence__gpl2_or_later__downloader
00018d30 g     O .textdata	00000000 .hidden obj_pending
00018d30 g     O .textdata	00000000 .hidden __licence__gpl2_or_later__biosint
00018d30 g     O .textdata	00000000 .hidden __licence__gpl2_or_later__malloc
00018d30 g     O .textdata	00000000 .hidden obj_monojob
00018d30 g     O .textdata	00000000 .hidden __licence__gpl2_or_later__basename
00018d30 g     O .textdata	00000000 .hidden __licence__gpl2_or_later__random
00018d30 g     O .textdata	00000000 .hidden __licence__gpl2_or_later__cwuri
00018d30 g     O .textdata	00000000 .hidden obj_wininit
00018d30 g     O .textdata	00000000 .hidden obj_base64
00018d30 g     O .textdata	00000000 .hidden __licence__gpl2_only__mii
00018d30 g     O .textdata	00000000 .hidden obj_login_cmd
00018d30 g     O .textdata	00000000 .hidden __licence__gpl2_only__memmap
00018d30 g     O .textdata	00000000 .hidden obj_httpcore
00018d30 g     O .textdata	00000000 .hidden obj_biosint
00018d30 g     O .textdata	00000000 .hidden __licence__gpl2_or_later__memblock
00018d30 g     O .textdata	00000000 .hidden __licence__gpl2_or_later__fakedhcp
00018d30 g     O .textdata	00000000 .hidden __licence__gpl2_only__pci_settings
00018d30 g     O .textdata	00000000 .hidden __licence__gpl2_only__pxe_call
00018d30 g     O .textdata	00000000 .hidden __licence__gpl2_or_later__resolv
00018d30 g     O .textdata	00000000 .hidden __licence__gpl2_or_later__tftp
00018d30 g     O .textdata	00000000 .hidden __licence__gpl2_only__dhcpopts
00018d30 g     O .textdata	00000000 .hidden __licence__gpl2_only__print
00018d30 g     O .textdata	00000000 .hidden __licence__gpl2_only__basemem_packet
00018d30 g     O .textdata	00000000 .hidden __licence__gpl2_or_later__x86_string
00018d30 g     O .textdata	00000000 .hidden obj_blockdev
00018d30 g     O .textdata	00000000 .hidden __licence__gpl2_only__relocate
00018d30 g     O .textdata	00000000 .hidden obj_timer2
00018d30 g     O .textdata	00000000 .hidden __licence__gpl2_only__ifmgmt
00018d30 g     O .textdata	00000000 .hidden __licence__gpl2_or_later__ethernet
00018d30 g     O .textdata	00000000 .hidden __licence__gpl2_only__downloader
00018d30 g     O .textdata	00000000 .hidden __licence__gpl2_or_later__md5
00018d30 g     O .textdata	00000000 .hidden obj_xfer
00018d30 g     O .textdata	00000000 .hidden __licence__public_domain__keymap_us
00018d30 g     O .textdata	00000000 .hidden __licence__gpl2_or_later__init
00018d30 g     O .textdata	00000000 .hidden obj_ibft
00018d30 g     O .textdata	00000000 .hidden obj_pxe_loader
00018d30 g     O .textdata	00000000 .hidden obj_image
00018d30 g     O .textdata	00000000 .hidden __licence__gpl2_only__version
00018d30 g     O .textdata	00000000 .hidden obj_menu_ui
00018d30 g     O .textdata	00000000 .hidden obj_strerror
00018d30 g     O .textdata	00000000 .hidden __licence__gpl2_or_later__posix_io
00018d30 g     O .textdata	00000000 .hidden obj_uri
00018d30 g     O .textdata	00000000 .hidden obj_sanboot_cmd
00018d30 g     O .textdata	00000000 .hidden obj_ifmgmt
00018d30 g     O .textdata	00000000 .hidden __licence__gpl2_or_later__open
00018d30 g     O .textdata	00000000 .hidden __licence__gpl2_only__asprintf
00018d30 g     O .textdata	00000000 .hidden __licence__gpl2_or_later__menu
00018d30 g     O .textdata	00000000 .hidden obj_login_ui
00018d30 g     O .textdata	00000000 .hidden obj_bios_nap
00018d30 g     O .textdata	00000000 .hidden __licence__gpl2_only__netdev_settings
00018d30 g     O .textdata	00000000 .hidden obj_ctype
00018d30 g     O .textdata	00000000 .hidden __licence__gpl2_only__iobuf
00018d30 g     O .textdata	00000000 .hidden __licence__gpl2_only__init
00018d30 g     O .textdata	00000000 .hidden __licence__gpl2_or_later__bitops
00018d30 g     O .textdata	00000000 .hidden obj_cpuid
00018d30 g     O .textdata	00000000 .hidden __licence__gpl2_only__cpio
00018d30 g     O .textdata	00000000 .hidden __licence__gpl2_only__process
00018d30 g     O .textdata	00000000 .hidden obj_nvo
00018d30 g     O .textdata	00000000 .hidden __licence__gpl2_or_later__route_ipv4
00018d30 g       .textdata	00000000 .hidden obj_patch_cf
00018d30 g     O .textdata	00000000 .hidden __licence__gpl2_only__elfboot
00018d30 g     O .textdata	00000000 .hidden __licence__gpl2_only__getopt
00018d30 g     O .textdata	00000000 .hidden __licence__gpl2_only__route
00018d30 g     O .textdata	00000000 .hidden __licence__gpl2_or_later__blockdev
00018d30 g     O .textdata	00000000 .hidden obj_pci
00018d30 g     O .textdata	00000000 .hidden __licence__gpl2_or_later__pxe_preboot
00018d30 g     O .textdata	00000000 .hidden __licence__gpl2_only__netdevice
00018d30 g     O .textdata	00000000 .hidden __licence__gpl2_or_later__pxe_image
00018d30 g     O .textdata	00000000 .hidden __licence__gpl2_or_later__pxe_loader
00018d30 g     O .textdata	00000000 .hidden __licence__gpl2_or_later__xfer
00018d30 g     O .textdata	00000000 .hidden obj_memtop_umalloc
00018d30 g     O .textdata	00000000 .hidden __licence__gpl2_only__multiboot
00018d30 g     O .textdata	00000000 .hidden __licence__gpl2_only__bios_smbios
00018d30 g     O .textdata	00000000 .hidden __licence__gpl2_only__int13
00018d30 g     O .textdata	00000000 .hidden obj_iobuf
00018d30 g     O .textdata	00000000 .hidden __licence__gpl2_only__login_cmd
00018d30 g     O .textdata	00000000 .hidden __licence__gpl2_or_later__getkey
00018d30 g     O .textdata	00000000 .hidden obj_clear
00018d30 g     O .textdata	00000000 .hidden __licence__gpl2_or_later__sync_cmd
00018d30 g     O .textdata	00000000 .hidden __licence__gpl2_only__job
00018d30 g     O .textdata	00000000 .hidden __licence__gpl2_only__basename
00018d30 g     O .textdata	00000000 .hidden __licence__gpl2_or_later__bios_console
00018d30 g     O .textdata	00000000 .hidden obj_route
00018d30 g     O .textdata	00000000 .hidden __licence__gpl2_only__threewire
00018d30 g     O .textdata	00000000 .hidden __licence__gpl2_or_later__eth_slow
00018d30 g     O .textdata	00000000 .hidden __licence__gpl2_or_later__hidemem
00018d30 g       .textdata	00000000 .hidden obj_unnrv2b16
00018d30 g     O .textdata	00000000 .hidden __licence__gpl2_only__params
00018d30 g     O .textdata	00000000 .hidden __licence__gpl2_only__posix_io
00018d30 g     O .textdata	00000000 .hidden __licence__gpl2_only__hidemem
00018d30 g     O .textdata	00000000 .hidden obj_malloc
00018d30 g       .textdata	00000000 .hidden __licence__gpl2_or_later__unnrv2b16
00018d30 g     O .textdata	00000000 .hidden __licence__gpl2_or_later__script
00018d30 g     O .textdata	00000000 .hidden __licence__gpl2_only__string
00018d30 g     O .textdata	00000000 .hidden __licence__gpl2_only__acpi
00018d30 g     O .textdata	00000000 .hidden obj_acpi
00018d30 g     O .textdata	00000000 .hidden __licence__gpl2_or_later__udp
00018d30 g     O .textdata	00000000 .hidden __licence__gpl2_or_later__bios_reboot
00018d30 g     O .textdata	00000000 .hidden __licence__gpl2_only__autoboot
00018d30 g     O .textdata	00000000 .hidden __licence__gpl2_or_later__editstring
00018d30 g     O .textdata	00000000 .hidden obj_tcp
00018d30 g     O .textdata	00000000 .hidden __licence__gpl2_only__imgmgmt
00018d30 g     O .textdata	00000000 .hidden __licence__gpl2_or_later__device
00018d30 g     O .textdata	00000000 .hidden obj_basemem_packet
00018d30 g     O .textdata	00000000 .hidden obj_segment
00018d30 g     O .textdata	00000000 .hidden __licence__gpl2_only__chap
00018d30 g     O .textdata	00000000 .hidden __licence__bsd3__netdevice
00018d30 g     O .textdata	00000000 .hidden __licence__gpl2_only__menu_ui
00018d30 g     O .textdata	00000000 .hidden __licence__gpl2_or_later__pending
00018d30 g     O .textdata	00000000 .hidden obj_eth_slow
00018d30 g     O .textdata	00000000 .hidden __licence__gpl2_or_later__nvo_cmd
00018d30 g     O .textdata	00000000 .hidden obj_string
00018d30 g     O .textdata	00000000 .hidden __licence__gpl2_or_later__settings
00018d30 g     O .textdata	00000000 .hidden obj_config_romprefix
00018d30 g       .textdata	00000000 .hidden obj_stack
00018d30 g     O .textdata	00000000 .hidden __licence__gpl2_only__bios_reboot
00018d30 g     O .textdata	00000000 .hidden obj_spi_bit
00018d30 g     O .textdata	00000000 .hidden __licence__gpl2_or_later__nvs
00018d30 g     O .textdata	00000000 .hidden obj_autoboot_cmd
00018d30 g     O .textdata	00000000 .hidden __licence__gpl2_or_later__dhcpopts
00018d30 g     O .textdata	00000000 .hidden __licence__gpl2_only__pxe_udp
00018d30 g     O .textdata	00000000 .hidden __licence__gpl2_or_later__shell
00018d30 g     O .textdata	00000000 .hidden obj_x86_string
00018d30 g     O .textdata	00000000 .hidden obj_retry
00018d30 g     O .textdata	00000000 .hidden __licence__gpl2_only__md5
00018d30 g     O .textdata	00000000 .hidden __licence__gpl2_only__http
00018d30 g     O .textdata	00000000 .hidden __licence__gpl2_only__pxe_tftp
00018d30 g     O .textdata	00000000 .hidden __licence__gpl2_or_later__httpcore
00018d30 g     O .textdata	00000000 .hidden obj_smbios_settings
00018d30 g     O .textdata	00000000 .hidden obj_initrd
00018d30 g     O .textdata	00000000 .hidden __licence__gpl2_only__bitops
00018d30 g     O .textdata	00000000 .hidden __licence__gpl2_or_later__socket
00018d30 g     O .textdata	00000000 .hidden obj_open
00018d30 g     O .textdata	00000000 .hidden obj_elfboot
00018d30 g     O .textdata	00000000 .hidden __licence__gpl2_only__memtop_umalloc
00018d30 g     O .textdata	00000000 .hidden obj_console
00018d30 g     O .textdata	00000000 .hidden __licence__gpl2_only__exec
00018d30 g     O .textdata	00000000 .hidden __licence__gpl2_only__ipv4
00018d30 g     O .textdata	00000000 .hidden obj_init
00018d30 g     O .textdata	00000000 .hidden obj_fakedhcp
00018d30 g     O .textdata	00000000 .hidden __licence__bsd3__malloc
00018d30 g     O .textdata	00000000 .hidden __licence__gpl2_or_later__dhcp
00018d30 g     O .textdata	00000000 .hidden __licence__gpl2_only__bios_console
00018d30 g     O .textdata	00000000 .hidden __licence__gpl2_or_later__misc
00018d30 g     O .textdata	00000000 .hidden __licence__gpl2_only__x86_string
00018d30 g     O .textdata	00000000 .hidden obj_cpio
00018d30 g     O .textdata	00000000 .hidden obj_settings_ui
00018d30 g     O .textdata	00000000 .hidden __licence__gpl2_or_later__pci_settings
00018d30 g     O .textdata	00000000 .hidden obj_neighbour
00018d30 g     O .textdata	00000000 .hidden __licence__gpl2_or_later__asprintf
00018d30 g       .textdata	00000000 .hidden __licence__gpl2_or_later__romprefix
00018d30 g     O .textdata	00000000 .hidden __licence__gpl2_only__autoboot_cmd
00018d30 g     O .textdata	00000000 .hidden __licence__gpl2_only__tftp
00018d30 g     O .textdata	00000000 .hidden __licence__gpl2_or_later__getopt
00018d30 g     O .textdata	00000000 .hidden obj_posix_io
00018d30 g     O .textdata	00000000 .hidden __licence__gpl2_only__pending
00018d30 g     O .textdata	00000000 .hidden __licence__gpl2_only__socket
00018d30 g     O .textdata	00000000 .hidden obj_nullnet
00018d30 g     O .textdata	00000000 .hidden obj_main
00018d30 g     O .textdata	00000000 .hidden obj_tcpip
00018d30 g     O .textdata	00000000 .hidden __licence__gpl2_only__pxe_file
00018d30 g     O .textdata	00000000 .hidden __licence__gpl2_only__menu
00018d30 g     O .textdata	00000000 .hidden __licence__gpl2_or_later__pxe_udp
00018d30 g     O .textdata	00000000 .hidden __licence__gpl2_or_later__netdev_settings
00018d30 g     O .textdata	00000000 .hidden obj_pxe_undi
00018d30 g     O .textdata	00000000 .hidden __licence__gpl2_only__editstring
00018d30 g     O .textdata	00000000 .hidden __licence__gpl2_or_later__pxe_call
00018d30 g     O .textdata	00000000 .hidden __licence__gpl2_only__blockdev
00018d30 g     O .textdata	00000000 .hidden __licence__gpl2_only__image
00018d30 g     O .textdata	00000000 .hidden obj_ethernet
00018d30 g     O .textdata	00000000 .hidden __licence__gpl2_or_later__bios_timer
00018d30 g     O .textdata	00000000 .hidden __licence__gpl2_or_later__pci
00018d30 g     O .textdata	00000000 .hidden obj_cpuid_cmd
00018d30 g     O .textdata	00000000 .hidden obj_version
00018d30 g     O .textdata	00000000 .hidden obj_colour
00018d30 g     O .textdata	00000000 .hidden obj_getopt
00018d30 g     O .textdata	00000000 .hidden obj_pcibios
00018d30 g     O .textdata	00000000 .hidden obj_image_cmd
00018d30 g     O .textdata	00000000 .hidden __licence__gpl2_or_later__ansi_screen
00018d30 g       .textdata	00000000 .hidden __licence__gpl2_or_later__patch_cf
00018d30 g     O .textdata	00000000 .hidden __licence__gpl2_or_later__pxemenu
00018d30 g     O .textdata	00000000 .hidden __licence__gpl2_or_later__tcp
00018d30 g     O .textdata	00000000 .hidden __licence__gpl2_or_later__spi_bit
00018d30 g     O .textdata	00000000 .hidden __licence__gpl2_or_later__edd
00018d30 g     O .textdata	00000000 .hidden __licence__gpl2_or_later__colour
00018d30 g     O .textdata	00000000 .hidden obj_nvs
00018d30 g     O .textdata	00000000 .hidden __licence__gpl2_only__interface
00018d30 g     O .textdata	00000000 .hidden obj_ifmgmt_cmd
00018d30 g     O .textdata	00000000 .hidden obj_list
00018d30 g     O .textdata	00000000 .hidden obj_dhcppkt
00018d30 g       .textdata	00000000 .hidden __licence__gpl2_or_later__e820mangler
00018d30 g     O .textdata	00000000 .hidden obj_iobpad
00018d30 g     O .textdata	00000000 .hidden obj_pxemenu
00018d30 g     O .textdata	00000000 .hidden obj_getkey
00018d30 g     O .textdata	00000000 .hidden __licence__gpl2_or_later__basemem_packet
00018d30 g     O .textdata	00000000 .hidden __licence__gpl2_or_later__strerror
00018d30 g     O .textdata	00000000 .hidden __licence__gpl2_or_later__mucurses
00018d30 g     O .textdata	00000000 .hidden __licence__gpl2_or_later__monojob
00018d30 g     O .textdata	00000000 .hidden __licence__gpl2_only__ethernet
00018d30 g     O .textdata	00000000 .hidden __licence__gpl2_only__neighbour
00018d30 g     O .textdata	00000000 .hidden obj_interface
00018d30 g     O .textdata	00000000 .hidden __licence__gpl2_only__ansiesc
00018d30 g       .textdata	00000000 .hidden obj_stack16
00018d30 g     O .textdata	00000000 .hidden __licence__gpl2_only__main
00018d30 g     O .textdata	00000000 .hidden __licence__gpl2_only__initrd
00018d30 g     O .textdata	00000000 .hidden __licence__gpl2_or_later__list
00018d30 g     O .textdata	00000000 .hidden __licence__gpl2_or_later__wininit
00018d30 g     O .textdata	00000000 .hidden __licence__gpl2_or_later__cpuid
00018d30 g     O .textdata	00000000 .hidden obj_pci_settings
00018d30 g     O .textdata	00000000 .hidden obj_icmpv4
00018d30 g     O .textdata	00000000 .hidden __licence__gpl2_or_later__clear
00018d30 g     O .textdata	00000000 .hidden __licence__gpl2_or_later__scsi
00018d30 g     O .textdata	00000000 .hidden obj_bios_console
00018d30 g     O .textdata	00000000 .hidden __licence__gpl2_or_later__iscsi
00018d30 g     O .textdata	00000000 .hidden __licence__gpl2_or_later__segment
00018d30 g     O .textdata	00000000 .hidden __licence__gpl2_only__fakedhcp
00018d30 g       .textdata	00000000 .hidden obj_romprefix
00018d30 g     O .textdata	00000000 .hidden __licence__gpl2_or_later__int13
00018d30 g     O .textdata	00000000 .hidden obj_ipv4
00018d30 g     O .textdata	00000000 .hidden __licence__gpl2_or_later__tcpip
00018d30 g     O .textdata	00000000 .hidden obj_settings
00018d30 g     O .textdata	00000000 .hidden __licence__gpl2_only__dns
00018d30 g     O .textdata	00000000 .hidden __licence__gpl2_only__bios_timer
00018d30 g     O .textdata	00000000 .hidden __licence__gpl2_only__pxemenu
00018d30 g     O .textdata	00000000 .hidden __licence__gpl2_only__nvs
00018d30 g     O .textdata	00000000 .hidden __licence__gpl2_or_later__base64
00018d30 g     O .textdata	00000000 .hidden obj_realtek
00018d30 g     O .textdata	00000000 .hidden obj_dhcpopts
00018d30 g     O .textdata	00000000 .hidden obj_mucurses
00018d30 g     O .textdata	00000000 .hidden __licence__bsd2__iscsi
00018d30 g     O .textdata	00000000 .hidden __licence__gpl2_or_later__neighbour
00018d30 g     O .textdata	00000000 .hidden __licence__gpl2_or_later__bios_nap
00018d30 g     O .textdata	00000000 .hidden __licence__gpl2_or_later__ansiesc
00018d30 g     O .textdata	00000000 .hidden __licence__gpl2_or_later__errno
00018d30 g     O .textdata	00000000 .hidden __licence__gpl2_only__settings_ui
00018d30 g     O .textdata	00000000 .hidden __licence__gpl2_or_later__timer2
00018d30 g     O .textdata	00000000 .hidden obj_x86_tcpip
00018d30 g     O .textdata	00000000 .hidden __licence__gpl2_or_later__realtek
00018d30 g     O .textdata	00000000 .hidden __licence__gpl2_only__elf
00018d30 g     O .textdata	00000000 .hidden obj_pxe_file
00018d30 g     O .textdata	00000000 .hidden obj_smbios
00018d30 g     O .textdata	00000000 .hidden obj_autoboot
00018d30 g     O .textdata	00000000 .hidden __licence__gpl2_only__nvo_cmd
00018d30 g     O .textdata	00000000 .hidden __licence__gpl2_only__bitmap
00018d30 g     O .textdata	00000000 .hidden __licence__gpl2_only__edd
00018d30 g     O .textdata	00000000 .hidden __licence__gpl2_only__aoe
00018d30 g     O .textdata	00000000 .hidden __licence__gpl2_only__linebuf
00018d30 g     O .textdata	00000000 .hidden obj_icmp
00018d30 g     O .textdata	00000000 .hidden __licence__gpl2_only__icmpv4
00018d30 g     O .textdata	00000000 .hidden obj_mii
00018d30 g     O .textdata	00000000 .hidden __licence__gpl2_only__biosint
00018d30 g     O .textdata	00000000 .hidden obj_prompt
00018d30 g     O .textdata	00000000 .hidden obj_ansi_screen
00018d30 g     O .textdata	00000000 .hidden obj_exec
00018d30 g     O .textdata	00000000 .hidden __licence__gpl2_or_later__elf
00018d30 g     O .textdata	00000000 .hidden __licence__gpl2_only__fragment
00018d30 g     O .textdata	00000000 .hidden __licence__gpl2_or_later__image_cmd
00018d30 g     O .textdata	00000000 .hidden __licence__gpl2_or_later__ata
00018d30 g     O .textdata	00000000 .hidden obj_bzimage
00018d30 g     O .textdata	00000000 .hidden obj_resolv
00018d30 g     O .textdata	00000000 .hidden obj_script
00018d30 g       .textdata	00000000 .hidden obj_e820mangler
00018d30 g     O .textdata	00000000 .hidden obj_scsi
00018d30 g     O .textdata	00000000 .hidden __licence__gpl2_only__dhcp
00018d30 g     O .textdata	00000000 .hidden __licence__gpl2_or_later__smbios
00018d30 g     O .textdata	00000000 .hidden __licence__gpl2_or_later__memmap
00018d30 g     O .textdata	00000000 check_obj_realtek
00018d30 g     O .textdata	00000000 .hidden obj_dhcp_cmd
00018d30 g     O .textdata	00000000 .hidden obj_cwuri
00018d30 g       .textdata	00000000 .hidden __licence__gpl2_or_later__librm
00018d30 g     O .textdata	00000000 .hidden __licence__gpl2_or_later__imgmgmt
00018d30 g     O .textdata	00000000 .hidden __licence__gpl2_or_later__http
00018d30 g       .textdata	00000000 .hidden obj_librm
00018d30 g     O .textdata	00000000 .hidden __licence__gpl2_only__tcp
00018d30 g     O .textdata	00000000 .hidden __licence__gpl2_only__timer
00018d30 g     O .textdata	00000000 .hidden obj_threewire
00018d30 g     O .textdata	00000000 .hidden __licence__gpl2_or_later__cpuid_cmd
00018d30 g       .textdata	00000000 .hidden obj_pxe_entry
00018d30 g     O .textdata	00000000 .hidden __licence__bsd3__iobuf
00018d30 g     O .textdata	00000000 .hidden __licence__gpl2_only__memblock
00018d30 g     O .textdata	00000000 .hidden __licence__gpl2_or_later__job
00018d30 g     O .textdata	00000000 .hidden __licence__gpl2_only__open
00018d30 g     O .textdata	00000000 .hidden __licence__gpl2_or_later__refcnt
00018d30 g     O .textdata	00000000 .hidden __licence__gpl2_or_later__icmpv4
00018d30 g     O .textdata	00000000 .hidden obj_bitops
00018d30 g     O .textdata	00000000 .hidden __licence__gpl2_only__nvo
00018d30 g     O .textdata	00000000 .hidden __licence__gpl2_or_later__linebuf
00018d30 g     O .textdata	00000000 .hidden __licence__gpl2_or_later__ifmgmt_cmd
00018d30 g     O .textdata	00000000 .hidden __licence__gpl2_or_later__pcibios
00018d30 g     O .textdata	00000000 .hidden obj_pxe_preboot
00018d30 g     O .textdata	00000000 .hidden __licence__gpl2_only__console
00018d30 g     O .textdata	00000000 .hidden obj_config_cmd
00018d30 g     O .textdata	00000000 .hidden __licence__gpl2_only__pcibios
00018d30 g     O .textdata	00000000 .hidden __licence__gpl2_or_later__x86_tcpip
00018d30 g     O .textdata	00000000 .hidden obj_tftp
00018d30 g     O .textdata	00000000 .hidden __licence__gpl2_only__httpcore
00018d30 g     O .textdata	00000000 .hidden __licence__bsd3__realtek
00018d30 g     O .textdata	00000000 .hidden obj_errno
00018d30 g     O .textdata	00000000 .hidden __licence__gpl2_or_later__pxe_undi
00018d30 g     O .textdata	00000000 .hidden __licence__gpl2_only__iobpad
00018d30 g     O .textdata	00000000 .hidden obj_fragment
00018d30 g     O .textdata	00000000 .hidden __licence__gpl2_or_later__multiboot
00018d30 g     O .textdata	00000000 .hidden __licence__gpl2_only__realtek
00018d30 g     O .textdata	00000000 .hidden __licence__gpl2_only__scsi
00018d30 g     O .textdata	00000000 .hidden __licence__gpl2_or_later__nvo
00018d30 g     O .textdata	00000000 .hidden obj_vsprintf
00018d30 g     O .textdata	00000000 .hidden __licence__gpl2_or_later__uri
00018d30 g     O .textdata	00000000 .hidden __licence__gpl2_or_later__config
00018d30 g     O .textdata	00000000 .hidden __licence__gpl2_only__cpuid_cmd
00018d30 g     O .textdata	00000000 .hidden __licence__gpl2_only__cpuid
00018d30 g     O .textdata	00000000 .hidden __licence__gpl2_only__smbios_settings
00018d30 g     O .textdata	00000000 .hidden __licence__gpl2_only__cwuri
00018d30 g       .textdata	00000000 .hidden obj_undiloader
00018d30 g     O .textdata	00000000 .hidden obj_config_ethernet
00018d30 g     O .textdata	00000000 .hidden __licence__gpl2_only__route_cmd
00018d30 g     O .textdata	00000000 .hidden __licence__gpl2_only__refcnt
00018d30 g     O .textdata	00000000 .hidden obj_config
00018d30 g     O .textdata	00000000 .hidden obj_menu
00018d30 g     O .textdata	00000000 .hidden __licence__bsd3__tcp
00018d30 g     O .textdata	00000000 .hidden obj_asprintf
00018d30 g     O .textdata	00000000 .hidden __licence__gpl2_or_later__retry
00018d30 g     O .textdata	00000000 .hidden __licence__gpl2_or_later__chap
00018d30 g     O .textdata	00000000 .hidden __licence__gpl2_only__eth_slow
00018d30 g       .textdata	00000000 .hidden obj_liba20
00018d30 g     O .textdata	00000000 .hidden obj_route_cmd
00018d30 g     O .textdata	00000000 .hidden __licence__gpl2_only__malloc
00018d30 g     O .textdata	00000000 .hidden obj_params
00018d30 g     O .textdata	00000000 .hidden __licence__gpl2_or_later__initrd
00018d30 g     O .textdata	00000000 .hidden __licence__gpl2_or_later__bitmap
00018d30 g     O .textdata	00000000 .hidden __licence__gpl2_only__pxe_loader
00018d30 g     O .textdata	00000000 .hidden __licence__gpl2_or_later__icmp
00018d30 g     O .textdata	00000000 .hidden obj_int13
00018d30 g     O .textdata	00000000 .hidden __licence__gpl2_or_later__config_route
00018d30 g     O .textdata	00000000 .hidden obj_pxe_image
00018d30 g     O .textdata	00000000 .hidden __licence__gpl2_or_later__bitbash
00018d30 g     O .textdata	00000000 .hidden __licence__gpl2_or_later__route
00018d30 g     O .textdata	00000000 .hidden __licence__gpl2_only__segment
00018d30 g     O .textdata	00000000 .hidden __licence__gpl2_or_later__menu_cmd
00018d30 g       .textdata	00000000 .hidden __licence__gpl2_or_later__stack
00018d30 g     O .textdata	00000000 .hidden __licence__gpl2_or_later__string
00018d30 g     O .textdata	00000000 .hidden obj_dhcp
00018d30 g     O .textdata	00000000 .hidden obj_bootsector
00018d30 g     O .textdata	00000000 .hidden obj_winattrs
00018d30 g     O .textdata	00000000 .hidden obj_memblock
00018d30 g     O .textdata	00000000 .hidden __licence__gpl2_only__editbox
00018d30 g     O .textdata	00000000 .hidden obj_keymap_us
00018d30 g     O .textdata	00000000 .hidden __licence__gpl2_only__spi_bit
00018d30 g     O .textdata	00000000 .hidden obj_netdev_settings
00018d30 g     O .textdata	00000000 .hidden __licence__gpl2_or_later__image
00018d30 g     O .textdata	00000000 .hidden obj_sync_cmd
00018d30 g     O .textdata	00000000 .hidden __licence__gpl2_or_later__iobpad
00018d30 g     O .textdata	00000000 .hidden __licence__gpl2_only__timer2
00018d30 g     O .textdata	00000000 .hidden __licence__gpl2_only__dhcppkt
00018d30 g     O .textdata	00000000 .hidden __licence__gpl2_or_later__process
00018d30 g     O .textdata	00000000 .hidden obj_parseopt
00018d30 g     O .textdata	00000000 .hidden __licence__gpl2_or_later__version
00018d30 g     O .textdata	00000000 .hidden obj_reboot_cmd
00018d30 g     O .textdata	00000000 .hidden __licence__gpl2_or_later__login_cmd
00018d30 g     O .textdata	00000000 .hidden __licence__gpl2_or_later__bzimage
00018d30 g     O .textdata	00000000 .hidden __licence__gpl2_or_later__print
00018d30 g     O .textdata	00000000 .hidden obj_process
00018d30 g     O .textdata	00000000 .hidden __licence__gpl2_only__device
00018d30 g     O .textdata	00000000 .hidden __licence__gpl2_or_later__mii
00018d30 g     O .textdata	00000000 .hidden obj_embedded
00018d30 g     O .textdata	00000000 .hidden __licence__gpl2_only__config_cmd
00018d30 g     O .textdata	00000000 .hidden obj_memmap
00018d30 g     O .textdata	00000000 .hidden __licence__gpl2_or_later__ctype
00018d30 g     O .textdata	00000000 .hidden __licence__gpl2_only__pxe_preboot
00018d30 g     O .textdata	00000000 .hidden obj_pxe_call
00018d30 g     O .textdata	00000000 .hidden __licence__gpl2_only__shell
00018d30 g     O .textdata	00000000 .hidden __licence__gpl2_only__script
00018d30 g     O .textdata	00000000 .hidden __licence__gpl2_or_later__parseopt
00018d30 g     O .textdata	00000000 .hidden __licence__gpl2_only__ata
00018d30 g     O .textdata	00000000 .hidden __licence__gpl2_only__tcpip
00018d30 g       .textdata	00000000 .hidden obj_libprefix
00018d30 g       .textdata	00000000 .hidden __licence__gpl2_or_later__undiloader
00018d30 g     O .textdata	00000000 .hidden obj_bios_reboot
00018d30 g     O .textdata	00000000 .hidden obj_base16
00018d30 g     O .textdata	00000000 .hidden __licence__gpl2_only__resolv
00018d30 g     O .textdata	00000000 .hidden obj_netdevice
00018d30 g     O .textdata	00000000 .hidden __licence__gpl2_only__sync_cmd
00018d30 g     O .textdata	00000000 .hidden obj_uuid
00018d30 g     O .textdata	00000000 .hidden __licence__gpl2_only__pxe_undi
00018d30 g     O .textdata	00000000 .hidden __licence__gpl2_only__ifmgmt_cmd
00018d30 g     O .textdata	00000000 .hidden __licence__gpl2_only__xfer
00018d30 g     O .textdata	00000000 .hidden __licence__gpl2_or_later__settings_ui
00018d30 g     O .textdata	00000000 .hidden __licence__gpl2_only__base16
00018d30 g     O .textdata	00000000 .hidden obj_route_ipv4
00018d30 g     O .textdata	00000000 .hidden __licence__gpl2_or_later__threewire
00018d30 g     O .textdata	00000000 .hidden obj_iscsi
00018d30 g     O .textdata	00000000 .hidden obj_hidemem
00018d30 g     O .textdata	00000000 .hidden __licence__gpl2_or_later__dhcpmgmt
00018d30 g     O .textdata	00000000 .hidden __licence__gpl2_or_later__bios_smbios
00018d30 g     O .textdata	00000000 .hidden __licence__gpl2_or_later__dhcp_cmd
00018d30 g     O .textdata	00000000 .hidden __licence__gpl2_only__embedded
00018d30 g     O .textdata	00000000 .hidden obj_bitbash
00018d30 g     O .textdata	00000000 .hidden obj_linebuf
00018d30 g     O .textdata	00000000 .hidden __licence__gpl2_or_later__config_romprefix
00018d30 g     O .textdata	00000000 .hidden __licence__gpl2_only__strerror
00018d30 g     O .textdata	00000000 .hidden __licence__gpl2_only__icmp
00018d30 g     O .textdata	00000000 .hidden __licence__gpl2_or_later__uuid
00018d30 g     O .textdata	00000000 .hidden __licence__gpl2_only__list
00018d30 g     O .textdata	00000000 .hidden obj_ata
00018d30 g     O .textdata	00000000 .hidden obj_config_route
00018d30 g     O .textdata	00000000 .hidden __licence__gpl2_or_later__smbios_settings
00018d30 g     O .textdata	00000000 .hidden __licence__gpl2_only__ibft
00018d30 g     O .textdata	00000000 .hidden __licence__gpl2_only__bzimage
00018d30 g     O .textdata	00000000 .hidden __licence__gpl2_only__arp
00018d30 g     O .textdata	00000000 .hidden __licence__gpl2_or_later__fragment
00018d30 g     O .textdata	00000000 .hidden obj_dhcpmgmt
00018d30 g     O .textdata	00000000 .hidden obj_shell
00018d30 g     O .textdata	00000000 .hidden __licence__gpl2_only__udp
00018d30 g     O .textdata	00000000 .hidden __licence__gpl2_or_later__memtop_umalloc
00018d30 g       .textdata	00000000 _mtextdata
00018d30 g     O .textdata	00000000 .hidden obj_relocate
00018d30 g       .textdata	00000000 .hidden obj_setjmp
00018d30 g     O .textdata	00000000 .hidden __licence__gpl2_only__menu_cmd
00018d30 g     O .textdata	00000000 .hidden obj_downloader
00018d30 g     O .textdata	00000000 .hidden obj_misc
00018d30 g     O .textdata	00000000 .hidden __licence__gpl2_only__image_cmd
00018d30 g     O .textdata	00000000 .hidden obj_http
00018d30 g     O .textdata	00000000 .hidden __licence__gpl2_or_later__autoboot
00018d30 g     O .textdata	00000000 .hidden __licence__gpl2_only__retry
00018d30 g     O .textdata	00000000 .hidden obj_device
00018d30 g     O .textdata	00000000 .hidden __licence__gpl2_or_later__arp
00018d30 g     O .textdata	00000000 .hidden __licence__gpl2_or_later__timer
00018d30 g     O .textdata	00000000 .hidden __licence__gpl2_or_later__exec
00018d30 g     O .textdata	00000000 .hidden __licence__gpl2_only__wininit
00018d30 g     O .textdata	00000000 .hidden obj_rarp
00018d30 g     O .textdata	00000000 .hidden __licence__gpl2_or_later__params
00018d30 g     O .textdata	00000000 .hidden obj_job
00018d30 g     O .textdata	00000000 .hidden __licence__gpl2_or_later__config_cmd
00018d30 g     O .textdata	00000000 check_obj_config
00018d30 g     O .textdata	00000000 .hidden __licence__gpl2_or_later__rarp
00018d30 g     O .textdata	00000000 .hidden obj_imgmgmt
00018d30 g     O .textdata	00000000 .hidden obj_multiboot
00018d30 g     O .textdata	00000000 .hidden __licence__gpl2_or_later__embedded
00018d30 g     O .textdata	00000000 .hidden __licence__bsd3__neighbour
00018d30 g     O .textdata	00000000 .hidden obj_socket
00018d30 g     O .textdata	00000000 .hidden __licence__gpl2_only__login_ui
00018d30 g     O .textdata	00000000 .hidden obj_bios_smbios
00018d30 g       .textdata	00000000 .hidden __licence__gpl2_or_later__stack16
00018d30 g     O .textdata	00000000 .hidden __licence__gpl2_or_later__keymap_us
00018d30 g     O .textdata	00000000 .hidden __licence__gpl2_or_later__base16
00018d30 g     O .textdata	00000000 .hidden __licence__gpl2_only__pci
00018d30 g     O .textdata	00000000 .hidden obj_pxe_tftp
00018d30 g     O .textdata	00000000 .hidden obj_arp
00018d30 g     O .textdata	00000000 .hidden __licence__gpl2_or_later__reboot_cmd
00018d30 g     O .textdata	00000000 .hidden obj_random
00018d30 g     O .textdata	00000000 .hidden __licence__gpl2_only__dhcp_cmd
00018d30 g     O .textdata	00000000 .hidden __licence__gpl2_or_later__interface
00018d30 g     O .textdata	00000000 .hidden __licence__gpl2_only__getkey
00018d30 g       .textdata	00000000 .hidden __licence__gpl2_or_later__virtaddr
00018d30 g     O .textdata	00000000 .hidden __licence__gpl2_or_later__winattrs
00000000 g       .bss.textdata	00000000 _pprefix
00000000 g       .bss.textdata	00000000 _mpprefix
00018d30 l    d  .bss.textdata	00000000 .bss.textdata
00018d30 l     O .bss.textdata	00000004 mb_cmdline_offset
00018d34 l     O .bss.textdata	00000004 int_1a_hooked
00018d38 g     O .bss.textdata	00000004 .hidden pxe_netdev
00018d3c l     O .bss.textdata	00000004 undi_tx_count
00018d40 g     O .bss.textdata	00000004 .hidden device_keep_count
00018d44 l     O .bss.textdata	00000004 stop_state
00018d48 l     O .bss.textdata	00000000 exit_opts
00018d48 l     O .bss.textdata	00000000 isset_opts
00018d48 l     O .bss.textdata	00000000 iseq_opts
00018d48 l     O .bss.textdata	00000000 sleep_opts
00018d48 l     O .bss.textdata	00000004 imgindex.1767
00018d4c l     O .bss.textdata	00000004 require_trusted_images
00018d50 l     O .bss.textdata	00000004 started
00018d54 l     O .bss.textdata	00000000 null_intf_op
00018d54 l     O .bss.textdata	00080000 heap
00098d54 l     O .bss.textdata	00000010 buf.3083
00098d64 l     O .bss.textdata	00000025 buf.918
00098d8c l     O .bss.textdata	00000014 dummy_metadata
00098da0 l     O .bss.textdata	00000012 buf.1934
00098db4 l     O .bss.textdata	00000010 buf.2738
00098dc4 l     O .bss.textdata	00000001 next_ident_high
00098dc8 l     O .bss.textdata	00000004 ifindex.2164
00098dcc l     O .bss.textdata	00000002 itt_idx.3278
00098dd0 l     O .bss.textdata	00000004 localdomain
00098dd4 l     O .bss.textdata	00000004 qid.2669
00098dd8 l     O .bss.textdata	00000004 tftp_server.3166
00098ddc l     O .bss.textdata	00000004 script_offset
00098de0 l     O .bss.textdata	00000004 goto_label
00098de4 l     O .bss.textdata	00000000 goto_opts
00098de4 l     O .bss.textdata	00000004 end.2128
00098de8 l     O .bss.textdata	00000001 pci_settings_scope
00098de9 l     O .bss.textdata	00000001 smbios_settings_scope
00098dec l     O .bss.textdata	00000040 errbuf.1068
00098e2c l     O .bss.textdata	00000000 config_opts
00098e2c l     O .bss.textdata	00000000 pxebs_opts
00098e2c l     O .bss.textdata	00000000 imgmulti_opts
00098e2c l     O .bss.textdata	00000000 login_opts
00098e2c l     O .bss.textdata	00000000 inc_opts
00098e2c l     O .bss.textdata	00000000 set_core_opts
00098e2c l     O .bss.textdata	00000000 show_opts
00098e2c l     O .bss.textdata	00000000 route_opts
00098e2c l     O .bss.textdata	00000004 saved_usage
00098e30 l     O .bss.textdata	00000004 days.1447
00098e34 l     O .bss.textdata	00000002 equipment_word
00098e38 l     O .bss.textdata	00000004 bottom
00098e3c l     O .bss.textdata	00000004 top
00098e40 l     O .bss.textdata	00000004 heap_size
00098e44 g     O .bss.textdata	00000004 .hidden cwuri
00098e48 l     O .bss.textdata	00000004 monojob_rc
00098e4c l     O .bss.textdata	00000004 pending_total
00098e50 l     O .bss.textdata	00000004 rnd_seed
00098e54 l     O .bss.textdata	00000002 tag_idx.2947
00098e58 l     O .bss.textdata	00000010 smbios
00098e68 l     O .bss.textdata	00000000 shell_opts
00098e68 l     O .bss.textdata	00000004 int18_vector
00098e6c l     O .bss.textdata	00000004 int19_vector
00098e70 l     O .bss.textdata	00000004 offset.1509
00098e74 g     O .bss.textdata	00000004 .hidden initrd_top
00098e78 g     O .bss.textdata	00000004 .hidden initrd_bottom
00098e7c g     O .bss.textdata	00000004 .hidden pxe_cmdline
00098e80 g     O .bss.textdata	0000001c .hidden pxe_restart_nbp
00098e9c g     O .bss.textdata	00000002 .hidden isapnp_read_port
00098ea0 g     O .bss.textdata	00000004 .hidden optarg
00098ea4 g     O .bss.textdata	00000004 .hidden optind
00098ea8 g     O .bss.textdata	00000004 .hidden nextchar
00098eac g     O .bss.textdata	00000004 .hidden optopt
00098eb0 g     O .bss.textdata	00000004 .hidden current_image
00098eb4 g     O .bss.textdata	00000004 .hidden freemem
00098eb8 g     O .bss.textdata	00000001 .hidden builtin_scope
00098ebc g     O .bss.textdata	00000004 .hidden dhcp_last_xid
00098ec0 g     O .bss.textdata	00000000 .hidden ifcommon_opts
00098ec0 g     O .bss.textdata	00000004 .hidden errno
00098ec8 g       .bss.textdata	00000000 _stack
00099ec8 g       .bss.textdata	00000000 .hidden _etextdata
00099ec8 g       .bss.textdata	00000000 _estack
00099ec8 g       .bss.textdata	00000000 _epprefix
00000000 l    d  .zinfo	00000000 .zinfo
00000000 g       .zinfo	00000000 _weak
00000000 g       .zinfo	00000000 _zinfo
00000000 g       .zinfo	00000000 _eweak
000000b0 g       .zinfo	00000000 _ezinfo
000000b0 g       .zinfo	00000000 _mzinfo
00000000 l    d  .debug_frame	00000000 .debug_frame
00000000 l    d  .debug_info	00000000 .debug_info
00000000 l    d  .debug_abbrev	00000000 .debug_abbrev
00000000 l    d  .debug_loc	00000000 .debug_loc
00000000 l    d  .debug_aranges	00000000 .debug_aranges
00000000 l    d  .debug_ranges	00000000 .debug_ranges
00000000 l    d  .debug_line	00000000 .debug_line
00000000 l    d  .debug_str	00000000 .debug_str
00000000         *UND*	00000000 obj_config_cpio
00000000         *UND*	00000000 obj_config_edd
00000000         *UND*	00000000 obj_config_patch_cf
00000000         *UND*	00000000 obj_config_menu_cmd
00000000         *UND*	00000000 obj_config_wininit
00000000         *UND*	00000000 obj_config_console
00000000         *UND*	00000000 obj_config_eth_slow
00000000         *UND*	00000000 obj_config_dhcp
00000000         *UND*	00000000 obj_config_iobuf
00000000         *UND*	00000000 obj_config_config
00000000         *UND*	00000000 obj_config_liba20
00000000         *UND*	00000000 obj_config_tcp
00000000         *UND*	00000000 obj_config_nvo
00000000         *UND*	00000000 obj_config_bitbash
00000000         *UND*	00000000 obj_config_ifmgmt
00000000         *UND*	00000000 obj_config_route_cmd
00000000         *UND*	00000000 obj_config_settings_ui
00000000         *UND*	00000000 obj_config_rarp
00000000         *UND*	00000000 obj_config_smbios
00000000         *UND*	00000000 obj_config_bitmap
00000000         *UND*	00000000 obj_config_bios_console
00000000         *UND*	00000000 obj_config_pxe_entry
00000000         *UND*	00000000 obj_config_int13
00000000         *UND*	00000000 obj_config_fakedhcp
00000000         *UND*	00000000 obj_config_netdev_settings
00000000         *UND*	00000000 obj_config_shell
00000000         *UND*	00000000 obj_config_segment
00000000         *UND*	00000000 obj_config_pxe_image
00000000         *UND*	00000000 obj_config_udp
00000000         *UND*	00000000 obj_config_base16
00000000         *UND*	00000000 obj_config_editbox
00000000         *UND*	00000000 obj_config_list
00000000         *UND*	00000000 obj_config_initrd
00000000         *UND*	00000000 obj_config_nvo_cmd
00000000         *UND*	00000000 obj_config_iobpad
00000000         *UND*	00000000 obj_config_memmap
00000000         *UND*	00000000 obj_config_malloc
00000000         *UND*	00000000 obj_config_stack16
00000000         *UND*	00000000 obj_config_bzimage
00000000         *UND*	00000000 obj_config_ipv4
00000000         *UND*	00000000 obj_config_image_cmd
00000000         *UND*	00000000 obj_config_fragment
00000000         *UND*	00000000 obj_config_autoboot
00000000         *UND*	00000000 obj_config_ata
00000000         *UND*	00000000 obj_config_pending
00000000         *UND*	00000000 obj_config_getopt
00000000         *UND*	00000000 obj_config_menu
00000000         *UND*	00000000 obj_config_mucurses
00000000         *UND*	00000000 obj_config_menu_ui
00000000         *UND*	00000000 obj_config_image
00000000         *UND*	00000000 obj_config_socket
00000000         *UND*	00000000 obj_config_pxe_tftp
00000000         *UND*	00000000 obj_config_vsprintf
00000000         *UND*	00000000 obj_config_dhcppkt
00000000         *UND*	00000000 obj_config_init
00000000         *UND*	00000000 obj_config_config_cmd
00000000         *UND*	00000000 obj_config_pxe_udp
00000000         *UND*	00000000 obj_config_device
00000000         *UND*	00000000 obj_config_setjmp
00000000         *UND*	00000000 obj_config_posix_io
00000000         *UND*	00000000 obj_config_params
00000000         *UND*	00000000 obj_config_pxe_undi
00000000         *UND*	00000000 obj_config_iscsi
00000000         *UND*	00000000 obj_config_misc
00000000         *UND*	00000000 obj_config_httpcore
00000000         *UND*	00000000 obj_config_winattrs
00000000         *UND*	00000000 obj_config_chap
00000000         *UND*	00000000 obj_config_bios_smbios
00000000         *UND*	00000000 obj_config_netdevice
00000000         *UND*	00000000 obj_config_retry
00000000         *UND*	00000000 obj_config_colour
00000000         *UND*	00000000 obj_config_pcibios
00000000         *UND*	00000000 obj_config_ansiesc
00000000         *UND*	00000000 obj_config_timer2
00000000         *UND*	00000000 obj_config_relocate
00000000         *UND*	00000000 obj_config_x86_string
00000000         *UND*	00000000 obj_config_sync_cmd
00000000         *UND*	00000000 obj_config_config_ethernet
00000000         *UND*	00000000 obj_config_strerror
00000000         *UND*	00000000 obj_config_interface
00000000         *UND*	00000000 obj_config_clear
00000000         *UND*	00000000 obj_config_errno
00000000         *UND*	00000000 obj_config_mii
00000000         *UND*	00000000 obj_config_monojob
00000000         *UND*	00000000 obj_config_basename
00000000         *UND*	00000000 obj_config_elfboot
00000000         *UND*	00000000 obj_config_arp
00000000         *UND*	00000000 obj_config_scsi
00000000         *UND*	00000000 obj_config_http
00000000         *UND*	00000000 obj_config_nvs
00000000         *UND*	00000000 obj_config_pxe_file
00000000         *UND*	00000000 obj_config_x86_tcpip
00000000         *UND*	00000000 obj_config_main
00000000         *UND*	00000000 obj_config_login_ui
00000000         *UND*	00000000 obj_config_tcpip
00000000         *UND*	00000000 obj_config_pxe_call
00000000         *UND*	00000000 obj_config_bios_reboot
00000000         *UND*	00000000 obj_config_sanboot_cmd
00000000         *UND*	00000000 obj_config_uuid
00000000         *UND*	00000000 obj_config_realtek
00000000         *UND*	00000000 obj_config_version
00000000         *UND*	00000000 obj_config_string
00000000         *UND*	00000000 obj_config_downloader
00000000         *UND*	00000000 obj_config_cpuid
00000000         *UND*	00000000 obj_config_virtaddr
00000000         *UND*	00000000 obj_config_elf
00000000         *UND*	00000000 obj_config_timer
00000000         *UND*	00000000 obj_config_threewire
00000000         *UND*	00000000 obj_config_reboot_cmd
00000000         *UND*	00000000 obj_config_xfer
00000000         *UND*	00000000 obj_config_pxe_loader
00000000         *UND*	00000000 obj_config_bios_nap
00000000         *UND*	00000000 obj_config_linebuf
00000000         *UND*	00000000 obj_config_memtop_umalloc
00000000         *UND*	00000000 obj_config_pxe_preboot
00000000         *UND*	00000000 obj_config_ctype
00000000         *UND*	00000000 obj_config_readline
00000000         *UND*	00000000 obj_config_biosint
00000000         *UND*	00000000 obj_config_dhcpmgmt
00000000         *UND*	00000000 obj_config_route_ipv4
00000000         *UND*	00000000 obj_config_dhcp_cmd
00000000         *UND*	00000000 obj_config_nullnet
00000000         *UND*	00000000 obj_config_embedded
00000000         *UND*	00000000 obj_config_icmpv4
00000000         *UND*	00000000 obj_config_stack
00000000         *UND*	00000000 obj_config_job
00000000         *UND*	00000000 obj_config_keymap_us
00000000         *UND*	00000000 obj_config_process
00000000         *UND*	00000000 obj_config_spi_bit
00000000         *UND*	00000000 obj_config_refcnt
00000000         *UND*	00000000 obj_config_prompt
00000000         *UND*	00000000 obj_config_settings
00000000         *UND*	00000000 obj_config_ifmgmt_cmd
00000000         *UND*	00000000 obj_config_bitops
00000000         *UND*	00000000 obj_config_blockdev
00000000         *UND*	00000000 obj_config_ibft
00000000         *UND*	00000000 obj_config_random
00000000         *UND*	00000000 obj_config_base64
00000000         *UND*	00000000 obj_config_bootsector
00000000         *UND*	00000000 obj_config_config_romprefix
00000000         *UND*	00000000 obj_config_imgmgmt
00000000         *UND*	00000000 obj_config_config_route
00000000         *UND*	00000000 obj_config_memblock
00000000         *UND*	00000000 obj_config_smbios_settings
00000000         *UND*	00000000 obj_config_script
00000000         *UND*	00000000 obj_config_icmp
00000000         *UND*	00000000 obj_config_aoe
00000000         *UND*	00000000 obj_config_ansi_screen
00000000         *UND*	00000000 obj_config_basemem_packet
00000000         *UND*	00000000 obj_config_librm
00000000         *UND*	00000000 obj_config_e820mangler
00000000         *UND*	00000000 obj_config_uri
00000000         *UND*	00000000 obj_config_tftp
00000000         *UND*	00000000 obj_config_pci_settings
00000000         *UND*	00000000 obj_config_multiboot
00000000         *UND*	00000000 obj_config_hidemem
00000000         *UND*	00000000 obj_config_dhcpopts
00000000         *UND*	00000000 obj_config_resolv
00000000         *UND*	00000000 obj_config_autoboot_cmd
00000000         *UND*	00000000 obj_config_cpuid_cmd
00000000         *UND*	00000000 obj_config_cwuri
00000000         *UND*	00000000 obj_config_dns
00000000         *UND*	00000000 obj_config_acpi
00000000         *UND*	00000000 obj_config_parseopt
00000000         *UND*	00000000 obj_config_neighbour
00000000         *UND*	00000000 obj_config_undiloader
00000000         *UND*	00000000 obj_config_getkey
00000000         *UND*	00000000 obj_config_libprefix
00000000         *UND*	00000000 obj_config_bios_timer
00000000         *UND*	00000000 obj_config_login_cmd
00000000         *UND*	00000000 obj_config_md5
00000000         *UND*	00000000 obj_config_editstring
00000000         *UND*	00000000 obj_config_unnrv2b16
00000000         *UND*	00000000 obj_config_pci
00000000         *UND*	00000000 obj_config_print
00000000         *UND*	00000000 obj_config_exec
00000000         *UND*	00000000 obj_config_asprintf
00000000         *UND*	00000000 obj_config_open
00000000         *UND*	00000000 obj_config_pxemenu
